(lp0
(ispot
Spot
p1
(dp2
S'duration'
p3
NsS'data'
p4
(dp5
Vname
p6
VBayview
p7
sVreference
p8
VCpQBggAAABSA4lSpzjKT0pCp3w20Pef57-FPeTab1SpW6ue4JD79Wu28QymA3fO4gNSfSdGp7AfDnay8Gg0eYoC3hdmVDw-82CHWPHLbBGF18h6nlhA5U2kYEKJ3FnRfvoE0P87qpyxe8Za2N5CM3Lgzkm2_kb3FTs9Whw1gKnRgajpWpvK-qwFvw1lzThzRY-j24WsCDxIQROtabzxMSfDWRUNB9_3KkhoU5CLKNqzQDAx1E99rfAf10IJzO9w
p9
sVgeometry
p10
(dp11
Vlocation
p12
(dp13
Vlat
p14
F37.730416
sVlng
p15
F-122.384424
ssVviewport
p16
(dp17
Vnortheast
p18
(dp19
Vlat
p20
F37.7522488
sVlng
p21
F-122.3569669
ssVsouthwest
p22
(dp23
Vlat
p24
F37.7083844
sVlng
p25
F-122.4080732
ssssVadr_address
p26
VBayview, <span class="locality">San Francisco</span>, <span class="region">CA</span>, <span class="country-name">USA</span>
p27
sVplace_id
p28
VChIJVTQNsxt_j4ARYEXVGCqV7Mw
p29
sVvicinity
p30
VSan Francisco
p31
sVurl
p32
Vhttps://maps.google.com/maps/place?q=Bayview,+San+Francisco,+CA,+USA&ftid=0x808f7f1bb30d3455:0xccec952a18d54560
p33
sVscope
p34
VGOOGLE
p35
sVaddress_components
p36
(lp37
(dp38
Vlong_name
p39
VBayview
p40
sVtypes
p41
(lp42
Vneighborhood
p43
aVpolitical
p44
asVshort_name
p45
VBayview
p46
sa(dp47
Vlong_name
p48
VSan Francisco
p49
sVtypes
p50
(lp51
Vlocality
p52
aVpolitical
p53
asVshort_name
p54
VSF
p55
sa(dp56
Vlong_name
p57
VSan Francisco County
p58
sVtypes
p59
(lp60
Vadministrative_area_level_2
p61
aVpolitical
p62
asVshort_name
p63
VSan Francisco County
p64
sa(dp65
Vlong_name
p66
VCalifornia
p67
sVtypes
p68
(lp69
Vadministrative_area_level_1
p70
aVpolitical
p71
asVshort_name
p72
VCA
p73
sa(dp74
Vlong_name
p75
VUnited States
p76
sVtypes
p77
(lp78
Vcountry
p79
aVpolitical
p80
asVshort_name
p81
VUS
p82
sasVformatted_address
p83
VBayview, San Francisco, CA, USA
p84
sVid
p85
V918511e2a071071132a372542250079ff49fe0a9
p86
sVtypes
p87
(lp88
Vneighborhood
p89
aVpolitical
p90
asVicon
p91
Vhttp://maps.gstatic.com/mapfiles/place_api/icons/geocode-71.png
p92
ssba(ispot
Spot
p93
(dp94
g3
Nsg4
(dp95
Vwebsite
p96
Vhttp://www.nps.gov/goga/index.htm
p97
sVrating
p98
F4.7
sVutc_offset
p99
I-480
sVuser_ratings_total
p100
I102
sVname
p101
VGolden Gate National Recreation Area
p102
sVreference
p103
VCoQBfgAAAAFw4FmkwTLqDcKY3orXfKEoR2ukLpAVPud7ebOdKUTLwfQeAs2yYd80lAAftCdMmULp4mt-R-lfexiUUJtugmqIT4edYjX1eeW0qst_USFZqYHzgf_QTPgiazfMLdeCHJw_RzchEUYnaQSDHA4lgkDp6SUZVA1Z3S7GR37yJKpQEhBqFiKbyJmpTzWiOJ2Vfe7DGhQcL1LNkZYSmyHNtG1Kf25vlCQ8qg
p104
sVphotos
p105
(lp106
(dp107
Vphoto_reference
p108
VCnRoAAAA2uw2MtztEKZhHBCbkjO2C0PQkXfhLc9LGddsv97o0Xu13ZvRlM06iTaziyojoXB40waP4FXe5-UUOzIOF70kd4QhFKbrzGnrIB_E3Y-eRH6wFuhTQns3PxP55X8uJ4N_t0w98A7H5mFvYhfrjBV_-hIQCTFq3UySVnP25nloV2sybhoUw3nDpKRmgQILGVTbZefOeMVuNY0
p109
sVwidth
p110
I1280
sVhtml_attributions
p111
(lp112
V<a href="https://plus.google.com/111000134307967374586">Eldon Henry</a>
p113
asVheight
p114
I960
sa(dp115
Vphoto_reference
p116
VCpQBiwAAAAi6XHaNZoN_zK9KTyU59jakIVx9RCHnOr0gN_ApE1wll7DaSz7X12SE1pL9n87XyWXkWvG1uWRpJeHPzCEflurFkXQVXM8T-zhP9EDL1oabnDVAGy4SnyLix69-fTu55cstHXKUaBp9o2KCVoBM-0jPvQGRqg3Qx8UcLNFgMSSEKttWKLXiy-3ezHmKYAjw8RIQEEZFQcQQWrtxPFrsuBvh4xoUSRpkbY0x1LjGsDPGOY1PeDFpPXU
p117
sVwidth
p118
I1296
sVhtml_attributions
p119
(lp120
VFrom a Google User
p121
asVheight
p122
I972
sa(dp123
Vphoto_reference
p124
VCnRoAAAAA_yNvi832QFYPV5d4RK8dQXdFheeTGBr7lkok5DS1S-Vv_FqXfa25qc57TmH0vt_XeYPRlgV5ZOswm8ECUzeQ90I5usH5Qf1mQhyhVj-r04Vhx1baKS5m-YAEo0mS3qbmj0X56i0wEA1FTJKG7V4EhIQEKzuGNB1a79TTit16Vv_QxoU21m2XNpBDzjPXJ9L7AH4djQ9fJA
p125
sVwidth
p126
I2000
sVhtml_attributions
p127
(lp128
V<a href="https://plus.google.com/116913548795972454248">Zhongliang Xu</a>
p129
asVheight
p130
I1125
sa(dp131
Vphoto_reference
p132
VCpQBiwAAAOgrreTFEzGrBM4zHHl6CQ9hiaZ0_chG4p__9WdANPCCKYTgq-eGOGmH1wPc620IAvT0voHYnMnuroXSx7jkKNUFe8opcOFpqUMGiKab2plTI0VpSHo8AuTJEl3DJZKjlJQVacEAOceMSEprokD_fuGFpK3CeLFsGVHBwPVjlO2M19qZ9EJxSaH6zSV2JCHBsxIQHoElSBg-GzYz5WEGJK0ocxoURrT7_TVUHCicOkHk0KYOnPzI4co
p133
sVwidth
p134
I1344
sVhtml_attributions
p135
(lp136
V<a href="https://plus.google.com/106965600540781805193">Jose C</a>
p137
asVheight
p138
I760
sa(dp139
Vphoto_reference
p140
VCnRoAAAAtJURYjJGYILGoKfXvQOzrdoLdEtEEt3uKREJPddFcUDWUpJ5mCukZ48KoAsCVPVTUJMYt5sZLOecOg1zPu2dtGQdk89-jP0Fi9KQM8LgEupGEUDGq9WzWmX4ERB1aFYhm2Rp1KR0iM_UVlCk3zsofBIQKrrePxXyL5WNAghluOZsIhoUO1ynCtSQ-fpckr9e9Es4Qws40do
p141
sVwidth
p142
I2048
sVhtml_attributions
p143
(lp144
V<a href="https://plus.google.com/106521304996220499103">Ming Mak</a>
p145
asVheight
p146
I1536
sa(dp147
Vphoto_reference
p148
VCpQBiwAAAKGO6JzJlkNzOZQqrNRBCYVOUrsxx-Mtn4WxzRWxXAei8Dc73n2lEFamgOyGiHicR2JpRy-qgkD6w6y_ljucbMN84AXL4UA5NxhRSeqJUsGKxIzVTx2rO3dr3uTcS-QOd9-vw7CglD7GtBFt5c5lr2tTXbPSeA0-pFVJySu_aAaXG3NRhp5PsOKwz9pI3aBm9RIQ7xm2bxwVfneTo98jlmPT3BoUUHt2HbC3n95LBAn7SdPVKL_wqN0
p149
sVwidth
p150
I1296
sVhtml_attributions
p151
(lp152
V<a href="https://plus.google.com/113872060182239393125">Srimahesh Talatam</a>
p153
asVheight
p154
I972
sa(dp155
Vphoto_reference
p156
VCnRoAAAAtwrCL96dVQRqxI7T275VA1kvZmbdgyDNLWJ11wMedBkMVQRmXAqhDAkP89xdeMDPEXJwPERowAZ-_Cy-q5rZTRx5txms9dyvSqDp8hhiE02IngknTWaFXfuEzb0NgC3oLTaoz4YG47I9OUFJbIgrHhIQZa38X3RMGoZhOeKz0a_HXBoUoAZA1k3sXyaghoMbGUQ2Jhnv_aQ
p157
sVwidth
p158
I816
sVhtml_attributions
p159
(lp160
V<a href="https://plus.google.com/113221385464453900204">william vidal</a>
p161
asVheight
p162
I459
sa(dp163
Vphoto_reference
p164
VCpQBiwAAAKj5huWmZc9h37Ya4dI4YNFutAod9IQy4djEjHs7EGPIEzwZKghdhcqDw6B6BY_pVAgq9C7ftnHBotinPZ55JNBoTA28jYL6qC19u4cjbkvBnW0zVzj837vbX4ZNQMzSezAQ4b0aDcO_P0wbAzMXEQSwCOYuWx2JMa8fx_cmxNVIo5337NUIK5YFyN2EsOcINRIQYl5QtobQ4eJwb34V-2EinxoUFxxqtKgKfbaDiDOEgQ69Akn_g08
p165
sVwidth
p166
I1296
sVhtml_attributions
p167
(lp168
V<a href="https://plus.google.com/113872060182239393125">Srimahesh Talatam</a>
p169
asVheight
p170
I972
sa(dp171
Vphoto_reference
p172
VCnRoAAAAavn6n3ZjfYWHN85o5zZ7_qPA14mP539-jwQ6Wq3-0Hmp5-4WCF-sZ2sB2HVo323py0jPjj0AkBLWAPCgdUSWzU0BM4m6rCd8uzeeBNAd4FxJUBkVeQACduT_ys_x5G7npxilFwqIGOZND3kMnyL-JBIQ6wX6aTn344d49cTfajKCDxoUuwAdbC9jHxxc40uNkqPnoYbnSac
p173
sVwidth
p174
I4128
sVhtml_attributions
p175
(lp176
VFrom a Google User
p177
asVheight
p178
I2322
sa(dp179
Vphoto_reference
p180
VCnRvAAAAzmQQ37vMCi0K3_o69qhGLw7jJ4w9Zl7t5QQQPXJLpD_PE-5e2TIfx8k8MY_xCGP_6M3rVLw4Huap9HTDqii4ubxEomhBmS4eobpU8B-RohjVgquobdMXH7w_90_PAlWTbyxkos8PyCIZN3XFfThd7xIQUpH_gk-wszMA3TyTbChXnRoUqrVjq2d-tt0JYSzHJY5bDtZiXXo
p181
sVwidth
p182
I4000
sVhtml_attributions
p183
(lp184
V<a href="https://plus.google.com/109363976560217503323">Steven La Vinger</a>
p185
asVheight
p186
I3000
sasVgeometry
p187
(dp188
Vlocation
p189
(dp190
Vlat
p191
F37.834504
sVlng
p192
F-122.504792
sssVadr_address
p193
V<span class="locality">San Francisco</span>, <span class="region">CA</span> <span class="postal-code">94123</span>, <span class="country-name">United States</span>
p194
sVplace_id
p195
VChIJxdYX1GGOhYARiIigVMJ9TOY
p196
sVinternational_phone_number
p197
V+1 415-561-4700
p198
sVvicinity
p199
VSan Francisco
p200
sVreviews
p201
(lp202
(dp203
Vrating
p204
I5
sVaspects
p205
(lp206
(dp207
Vrating
p208
I3
sVtype
p209
Voverall
p210
sasVlanguage
p211
Ven
p212
sVtext
p213
VGreat hilly cycling with not too many cars. Very windy and steep in places so if you're a novice then take note of the signs that indicate the grade of a hill.
p214
sVauthor_name
p215
VDavid Doherty
p216
sVauthor_url
p217
Vhttps://plus.google.com/101425938795714023572
p218
sVtime
p219
I1410649425
sa(dp220
Vrating
p221
I5
sVaspects
p222
(lp223
(dp224
Vrating
p225
I3
sVtype
p226
Voverall
p227
sasVlanguage
p228
Ven
p229
sVtext
p230
VAbsolutely beautiful, hilly wilderness area just north of the city.  I ran a half marathon here in March and loved it. Lots of hills but wonderful, rewarding views along the ridge-line.  I'm hoping to come back to take some pictures of the city / Sutro tower from here.
p231
sVauthor_name
p232
VMax Heinritz
p233
sVauthor_url
p234
Vhttps://plus.google.com/102217125735823374958
p235
sVtime
p236
I1396213984
sa(dp237
Vrating
p238
I5
sVaspects
p239
(lp240
(dp241
Vrating
p242
I3
sVtype
p243
Voverall
p244
sasVlanguage
p245
Ven
p246
sVtext
p247
VIs one of the best tours and fun in SF.\u000aBotanical Garde, Museums, and beautiful place if you would like have cup of tea in the Japan Garden.
p248
sVauthor_name
p249
VCarol E
p250
sVauthor_url
p251
Vhttps://plus.google.com/106028332943283658842
p252
sVtime
p253
I1403275611
sa(dp254
Vrating
p255
I5
sVaspects
p256
(lp257
(dp258
Vrating
p259
I3
sVtype
p260
Voverall
p261
sasVlanguage
p262
Ven
p263
sVtext
p264
VBeautiful area with some nice hikes that is quite accessible from San Francisco.  Though, if you have time for the trip, mount tam to the north is even nicer.
p265
sVauthor_name
p266
VAndrew Duchi
p267
sVauthor_url
p268
Vhttps://plus.google.com/117034590178289719142
p269
sVtime
p270
I1390611829
sa(dp271
Vrating
p272
I5
sVaspects
p273
(lp274
(dp275
Vrating
p276
I3
sVtype
p277
Vquality
p278
sasVlanguage
p279
Ven
p280
sVtext
p281
VEverytime I come down to the Bay Area, is to show my visiting friends actually how beautiful this area is.\u000aIt's been given a bad rep over the years, mainly to peoples lifestyles. Well lifestyles are a huge part of life, if we can only enjoy ourselves because it matches only the way we think it should be, I suggest you stay home!\u000aSan Francisco has many beautiful places to go; such as any of the old Military Forts, Buildings, parks, museums, scenery for the photo enthuisists..\u000aCome and enjoy the coast line and see history unfold all around you!
p282
sVauthor_name
p283
VEldon Henry
p284
sVauthor_url
p285
Vhttps://plus.google.com/111000134307967374586
p286
sVtime
p287
I1361392098
sasVformatted_phone_number
p288
V(415) 561-4700
p289
sVurl
p290
Vhttps://plus.google.com/100583653707384517268/about?hl=en-US
p291
sVscope
p292
VGOOGLE
p293
sVaddress_components
p294
(lp295
(dp296
Vlong_name
p297
VSan Francisco
p298
sVtypes
p299
(lp300
Vlocality
p301
aVpolitical
p302
asVshort_name
p303
VSF
p304
sa(dp305
Vlong_name
p306
VCalifornia
p307
sVtypes
p308
(lp309
Vadministrative_area_level_1
p310
aVpolitical
p311
asVshort_name
p312
VCA
p313
sa(dp314
Vlong_name
p315
VUnited States
p316
sVtypes
p317
(lp318
Vcountry
p319
aVpolitical
p320
asVshort_name
p321
VUS
p322
sa(dp323
Vlong_name
p324
V94123
p325
sVtypes
p326
(lp327
Vpostal_code
p328
asVshort_name
p329
V94123
p330
sa(dp331
Vlong_name
p332
V0022
p333
sVtypes
p334
(lp335
Vpostal_code_suffix
p336
asVshort_name
p337
V0022
p338
sasVformatted_address
p339
VSan Francisco, CA 94123, United States
p340
sVid
p341
Va086663663c933df7081560fc939b31d45bd4df9
p342
sVtypes
p343
(lp344
Vpark
p345
aVestablishment
p346
asVicon
p347
Vhttp://maps.gstatic.com/mapfiles/place_api/icons/generic_business-71.png
p348
ssba(ispot
Spot
p349
(dp350
g3
Nsg4
(dp351
Vrating
p352
F4.2
sVreference
p353
VCoQBcwAAABrV_lYPqZb3ob7zSdhplUGH-zwJdZ5RtvQdewRlT5I36m8J4t_oZ0eRKVcchpXnmKRmHq-pa7Apwk597si-Zj-Lh-EZLeE80ClfzFXIjgYoW54lTF6eGg2dzsa-6KLl80q8M_dvgZCr_cLQCZeUFfXCPWOiOFdYWL4yr5sGl8JnEhALJFwl8Ul6fcKjTuAieNt4GhST-Je4U84tkk46w9kYYk6qGkRc1A
p354
sVplace_id
p355
VChIJN2S4EI2AhYAR9J4Qeh1U8Aw
p356
sVurl
p357
Vhttps://plus.google.com/114386282276154448100/about?hl=en-US
p358
sVformatted_address
p359
V950 Mason St, San Francisco, CA 94108, United States
p360
sVid
p361
Va9dbcfebeadf2c2e488dd47116305abb181a0cbb
p362
sVopening_hours
p363
(dp364
Vweekday_text
p365
(lp366
VMonday: Open 24 hours
p367
aVTuesday: Open 24 hours
p368
aVWednesday: Open 24 hours
p369
aVThursday: Open 24 hours
p370
aVFriday: Open 24 hours
p371
aVSaturday: Open 24 hours
p372
aVSunday: Open 24 hours
p373
asVopen_now
p374
I01
sVperiods
p375
(lp376
(dp377
Vopen
p378
(dp379
Vday
p380
I0
sVtime
p381
V0000
p382
ssassVvicinity
p383
V950 Mason St, San Francisco
p384
sVscope
p385
VGOOGLE
p386
sVwebsite
p387
Vhttp://www.fairmont.com/san-francisco
p388
sVutc_offset
p389
I-480
sVuser_ratings_total
p390
I212
sVphotos
p391
(lp392
(dp393
Vphoto_reference
p394
VCoQBfAAAAC9EakjVtEKmbAWd_nidCdF435F5kNOWz4EwkorYWwGgF9yIr5FnPotZOvPbiumv4Rp353eLdq73XeDykMd7RXvISStmqMLNUAPjEZJjsSW8CUEoHHH14bryfFrR0uqr5AH63MDo-wntwQqdghfVaGGKAk6vLKVILnHoagB35jU4EhC1DFjrSxZbc4hK6B8rIUHVGhQDWl73OhSTRLe8iNYUhKPOo6H04A
p395
sVwidth
p396
I576
sVhtml_attributions
p397
(lp398
sVheight
p399
I574
sa(dp400
Vphoto_reference
p401
VCnRqAAAAgCAQ4ZPBnHkgA-bqNM4BVHogpmSLnFEelDeHbLEiWzQeLD13cndE4VSWtriH0VvPIJyUIPSigNhAzdn4cS3o65ajonb5GFDxn_iMMeG1ZQ_aFoxFmt18yQiT9ZSeQVGhGEndNECbY4cNLaf__IySERIQ5zj9dIeuXaCUO_naQnCL8xoUJNgCNnDVaW17HOo3QevynWPmQOA
p402
sVwidth
p403
I1190
sVhtml_attributions
p404
(lp405
sVheight
p406
I960
sa(dp407
Vphoto_reference
p408
VCnRnAAAAtM2StV7d5Lfsve6IT45SdZh03_1ZvS62to6FPQMnlQuYgsUsILjS3z8MXO35Zb987D95OhYsQLJe_GA7tJDoGBcCWja7tKgGF9eRqI4ZEqc2Sx4mhx2ROpT5-deJmimJGYUXgfE0DZjgYqJjaNEMrRIQqj9Kqvp0JDxu1W8278uTSxoUqXbMNFWafJdvzKL2Jr_iWMNRZ2o
p409
sVwidth
p410
I1280
sVhtml_attributions
p411
(lp412
sVheight
p413
I645
sa(dp414
Vphoto_reference
p415
VCnRnAAAAQCmKPLe7dnZLuLs7pGpRz8Kq28ODHnEFDhbpdwJtrO7xIzIxwviX69IwaCvxcamsE5ZnQ7yw4K0WQ3Zx_kDhiWQibzySJeB8XWeGdyWiygNUok0Ra1ZCSoxVbHLvREqQ4N2Mned3YODm0_SnqzPkThIQv0gjABOiMlWGvn9h3yAqdhoUITVUvhqeyGzGM3X0u2cvJ6gbu2w
p416
sVwidth
p417
I1200
sVhtml_attributions
p418
(lp419
sVheight
p420
I800
sa(dp421
Vphoto_reference
p422
VCnRnAAAA7cXm_TEYP7VkM_5Tlj28pFtvXd4KhIXUzdzmqNwtWuSFsiI3b59qCMXctbaxX4Y7OVAecCjzWeqtsd_fxCnFdUVyMVLluhr7KqvIG0gi3E8eHNA1EiB38OV8xq_fE8dB0khBQQIFiocOLhPq-rgz3xIQQpsh8boFhcHmLZdMhYKl0RoUs6GKYRY3qofZiEX--6sIG9vP4Bk
p423
sVwidth
p424
I1200
sVhtml_attributions
p425
(lp426
sVheight
p427
I800
sa(dp428
Vphoto_reference
p429
VCnRnAAAACr4ZWHhQG-mF13QHZFf3QfrEAP_dFWTeGuxs47U5mZsPO7sv0i9jjNige1qFjH4SjZAboq9qv9UVHjaf5gPI8-ScOnDhC_5BO0wMWQ2puJtUYQG_52r5AjRIm1CiYIeaa1g0T7sJH2ht2bNrSvXsPhIQT23rycV5XkHl4Tj06Wvb1BoUrAEr4Zl-RFY3pCqVhB8nxH311J4
p430
sVwidth
p431
I1200
sVhtml_attributions
p432
(lp433
sVheight
p434
I800
sa(dp435
Vphoto_reference
p436
VCnRnAAAAknT_UNcDNUwId1QCMK5GzSFIr206FDa0zRVWhVknen-2WbfYDa7OO_XKzkMKFXqyfdxp2VcZPlczuVQlqYrZ9wd-qjeEM0RdfzdOvD-c30qOjWjzySGv8VD7UyHmy10eJAE1om7R7Dg0wLiOyw00fBIQmeNidnXydHKMsq-qAuKVHBoU1Xwe2wjvawQ3LAWCTsR40xGIbGw
p437
sVwidth
p438
I1200
sVhtml_attributions
p439
(lp440
sVheight
p441
I800
sa(dp442
Vphoto_reference
p443
VCnRnAAAAPXaPOoeCvUbs6iYbGyMdOIK7Yb1j-arzgrrL5d7HZ6bFhsOXdzX2Kf1kXbiWCxF31wx25FI78uk69_xT_aZBb_MOtimWbh1f4OUZ8QH5yNAftPWII7FxZNmA8Wz8gd4Mf76kxC_4m6IB5DND1hH77hIQHXeP70SqKn4-Rh_iLXDUQhoUjMQEjtwJduTZWJ5_5l4ZQ4mxLGs
p444
sVwidth
p445
I1200
sVhtml_attributions
p446
(lp447
sVheight
p448
I800
sa(dp449
Vphoto_reference
p450
VCnRnAAAA1Yz4FWGBZSa3xpwI62EKrgIecSfjSOrh2tVaLbZctpTVLzQtWytCK1OTIwAGbhT-RlnmrQXGXc4qpdyoJ-12B3hLcijfsfS_mvVbAkdCgXS19DWNVru4cwr8YJBmuRgIz7NSG3MteooXeaRDDrosiRIQj1_LWK1p94FiJ-dLiXJOHxoU0w_9U-SYk6JBe2vfnJicOFW-diE
p451
sVwidth
p452
I1200
sVhtml_attributions
p453
(lp454
sVheight
p455
I902
sa(dp456
Vphoto_reference
p457
VCnRqAAAAyok9lYcA9O0NfRoasRpS1VFkwlynNKIeF6yYgU6RoT8xEelostYazUUNhV7O4YsDskuEA0-DwDR-vpv-cRACm-lV8n0aHqBo9QpbOnUhdHaF1JXBItX3MQKUCv0oOg4T04fKa4Mv61bPsv6wB6jCaxIQvLGRNb2HFPyAFlNHJW-ZkBoU1GPripoXHngAlxXkTCf-oOnvKwU
p458
sVwidth
p459
I1280
sVhtml_attributions
p460
(lp461
sVheight
p462
I881
sasVtypes
p463
(lp464
Vlodging
p465
aVestablishment
p466
asVicon
p467
Vhttp://maps.gstatic.com/mapfiles/place_api/icons/lodging-71.png
p468
sVname
p469
VThe Fairmont San Francisco
p470
sVgeometry
p471
(dp472
Vlocation
p473
(dp474
Vlat
p475
F37.792396
sVlng
p476
F-122.410504
sssVadr_address
p477
V<span class="street-address">950 Mason St</span>, <span class="locality">San Francisco</span>, <span class="region">CA</span> <span class="postal-code">94108</span>, <span class="country-name">United States</span>
p478
sVinternational_phone_number
p479
V+1 415-772-5000
p480
sVreviews
p481
(lp482
(dp483
Vrating
p484
I5
sVaspects
p485
(lp486
(dp487
Vrating
p488
I3
sVtype
p489
Voverall
p490
sasVlanguage
p491
Ven
p492
sVtext
p493
VThis hotel is stunning. I've only been in the lobby area and to some of the meeting / event rooms. They are flawless and breathtaking. If you're in the area, drop by for a quick peek. If you like grand rooms with a historical feel you will not be disappointed.  
p494
sVauthor_name
p495
VAmy Meyer
p496
sVauthor_url
p497
Vhttps://plus.google.com/102690091571148307715
p498
sVtime
p499
I1407802650
sa(dp500
Vrating
p501
I3
sVaspects
p502
(lp503
(dp504
Vrating
p505
I1
sVtype
p506
Voverall
p507
sasVlanguage
p508
Ven
p509
sVtext
p510
VBeautiful place, especially the main lobby. This continues with renovated, beautiful rooms, and yellow marble bathrooms. Service here is okay, but not up to 'par' as used to Fairmonts. We have stayed at Fairmont in D.C. and NYC, and have always had great experience. Staff here is not as good as typical. Doormen outside seem understaffed, and there are a ton of people standing around. They can't really tell who is coming and going. Front desk with very young girls in the evening, that were not very helpful when I approached with a simple question. Also, it is a little uncomfortable having to break up their huddle around a cell phone. Not a big deal, and probably more a reflection of their age. I just stayed at a hotel for $150/night, and staff was much friendlier and responsive. \u000a\u000aWalls are paper thin, and I can literally hear and understand every word of the neighbor's words. Probably not management's fault, it's an old building.\u000a\u000aI feel bad with negative remarks, but management and staff that do an outstanding job should be rewarded. Had a great time here in SF, however.\u000a\u000a
p511
sVauthor_name
p512
VBrian Modena
p513
sVauthor_url
p514
Vhttps://plus.google.com/116551189392506282628
p515
sVtime
p516
I1406489780
sa(dp517
Vrating
p518
I5
sVaspects
p519
(lp520
(dp521
Vrating
p522
I3
sVtype
p523
Voverall
p524
sasVlanguage
p525
Ven
p526
sVtext
p527
VAs if you're walking back in time\u2026 a beautiful and thoughtfully orchestrated building with a rich history. Had a wonderful time at a fundraiser here recently. The thoughtful and detail oriented architecture was definitely noticed by all. Modernism is a part of our time now, but there is something that is easily appreciated by all when it comes to thoughtfulness- even when it's architecture. Highly recommended for a nice reminder of creativity and beauty from a great period in time. 
p528
sVauthor_name
p529
VLillian Chan
p530
sVauthor_url
p531
Vhttps://plus.google.com/111958487714652939736
p532
sVtime
p533
I1402737720
sa(dp534
Vrating
p535
I5
sVaspects
p536
(lp537
(dp538
Vrating
p539
I3
sVtype
p540
Voverall
p541
sasVlanguage
p542
Ven
p543
sVtext
p544
VStayed here 2 weeks ago, for 5 days. I was SHOCKED!!!! in a good way\u2026. I've stayed at many hotels in San Fran. By far, these rooms were the biggest I've ever seen! And that says a lot for the city by the bay\u2026. Had room to hang all clothes in the closet, and even an extra rack for our luggage. Temperature was well controlled throughout the hotel. Bell service was great, and the people at the front desk were always helpful. The only bad thing is the Valet Parking price. $60 per day is a bit steep, but I probably shouldn't have had a rental car in the city anyway. But I will definitely stay here again on my next trip! Well wort the price!
p545
sVauthor_name
p546
VRobert Peterson
p547
sVauthor_url
p548
Vhttps://plus.google.com/100510007029790173763
p549
sVtime
p550
I1408297701
sa(dp551
Vrating
p552
I1
sVaspects
p553
(lp554
(dp555
Vrating
p556
I0
sVtype
p557
Voverall
p558
sasVlanguage
p559
Ven
p560
sVtext
p561
VCrazy paranoid Security who are rude and accusatory to friends of guests. I went to go visit a friend of mine at night. I couldn't find the room number. Since no hotel staff could be found I asked the only person I could find. The man I asked was part of a painting crew. To my surprise they all spoke Cantonese and barely a word of English. I showed one of the men the room number and with much effort and hand signals the kind Chinese man told me where I could find the room. When I started to turn left instead of right the man shouted out to me. But because of his strong Cantonese accent the "No" sounded like a loud "Uhhhh".  Then from out of nowhere this 6'4" Caucasian man with a thick brown mustache and brown blazer comes out and says, "Why is he YELLING at you?!" I responded saying, "What? Who?" Then the security pointed to the group of Chinese painters. I had no idea what he was talking about because even with the thick Cantonese accent I still heard a "No". I didn't register that anyone was yelling at me. As I tried to process the words of this 41 year old Security guy as hovered his 6'4" 270 lb body over my 5'6" 125lb frame and staring at me as if he was about to beat me up. "Do you have the room number?" he asked. I said yeah. But this Security guy actually looked kinda crazy and I could only guess what he might do to my friend. I mean was stopped for no reason, perhaps this paranoid Security would hurt my friend. Then as I tried to form the words through the intimidation Security man said, "Let's walk this way." Then walked me to the exit as if he was doing a perp walk and walking slightly behind me and so close that he gave me the feeling that if I so much as paused he'd throw me to the ground. When he had me at the exit there was a cab waiting and he watched me get in the cab and stood there staring at me like a mad dog even while I sat in the taxi until it had driven out of sight.  All I wanted to do was see my friend and all my friend wanted was to have a romantic visit with an old girlfriend and the Fairmont Security ruined everything.  
p562
sVauthor_name
p563
VRuby Garcia
p564
sVauthor_url
p565
Vhttps://plus.google.com/105570168439947872947
p566
sVtime
p567
I1404804429
sasVformatted_phone_number
p568
V(415) 772-5000
p569
sVaddress_components
p570
(lp571
(dp572
Vlong_name
p573
V950
p574
sVtypes
p575
(lp576
Vstreet_number
p577
asVshort_name
p578
V950
p579
sa(dp580
Vlong_name
p581
VMason St
p582
sVtypes
p583
(lp584
Vroute
p585
asVshort_name
p586
VMason St
p587
sa(dp588
Vlong_name
p589
VSan Francisco
p590
sVtypes
p591
(lp592
Vlocality
p593
aVpolitical
p594
asVshort_name
p595
VSF
p596
sa(dp597
Vlong_name
p598
VCalifornia
p599
sVtypes
p600
(lp601
Vadministrative_area_level_1
p602
aVpolitical
p603
asVshort_name
p604
VCA
p605
sa(dp606
Vlong_name
p607
VUnited States
p608
sVtypes
p609
(lp610
Vcountry
p611
aVpolitical
p612
asVshort_name
p613
VUS
p614
sa(dp615
Vlong_name
p616
V94108
p617
sVtypes
p618
(lp619
Vpostal_code
p620
asVshort_name
p621
V94108
p622
sassba(ispot
Spot
p623
(dp624
g3
Nsg4
(dp625
Vrating
p626
F3.9
sVutc_offset
p627
I-480
sVuser_ratings_total
p628
I125
sVname
p629
VSan Francisco Marriott Marquis
p630
sVreference
p631
VCoQBeAAAANYOSsYI8JgyYy6AgVz6yaP-CqmFtl6KUdv8gofJyomULyrwpHvQwdVwKzaxX2OJvCbB1C6QJm9t1rHLcq1FlrvDMfpWDYLpHNYHRoka6xoIszcpdGFfxK4plxGmq2VVY9rrxrUyAbpjiDarVSdrUIyyemTd2zsytSd9ZfyfMsy4EhCyAS50uMkRZdHX3zdv59rbGhQO0Ak9RRZe4e1Fk0cQsgtroIyfGA
p632
sVphotos
p633
(lp634
(dp635
Vphoto_reference
p636
VCnRnAAAAb0iiotRbDezU8BWPnTMQWXAk5ANnYgj-wkMqIA5z6PQKRrOyCU807w_mx_EcTb0puA3W4TeDtAJ5JFZsu_ER6wtjFgsQW-R70k9UVSf0mHsSFk3CNIsAanFajkU3rJaNnJKSsSjhaxjEkxe7k0hQMxIQcJnx3M_H_3ts5Se3_gM0phoUbUiX6FznEYGFdvKvienIdzCdC8M
p637
sVwidth
p638
I610
sVhtml_attributions
p639
(lp640
sVheight
p641
I423
sa(dp642
Vphoto_reference
p643
VCnRnAAAAxyT_iVqIDg9hnEupowL2VY8VYUhSKRAV4q0csslF4SBk7MPX1VWg0WgA98qqCm6nx22dJK9Q4diov3_uTVnHYe7QyT2o8Gqu4yqjMSb-bE8aJ9qIx-lsEBQDDlfWbcXcpZd5mRWC9yAkfBKR9YwsrBIQG-_aNEjBW3CUto5Gki16shoUqAlCMJ67WBsa5pUkazdKzHFvjno
p644
sVwidth
p645
I610
sVhtml_attributions
p646
(lp647
sVheight
p648
I423
sa(dp649
Vphoto_reference
p650
VCnRnAAAAqGfJaA3SrQVQ7CcYpmj_mNEuCsa2IID2uLeULNweZCHOS6fTHmZBvoZH_B6IZKebFiCatrazkaZdG6u4d_pvntX8wJeNq88qRGh9js8nh08uNRN4kDKAxHTrlHw9ZIcSrF2qN3B19BP2_Uhn2l5qFRIQXp2xRK0i0WAG9Hn_hFNP_BoUAjd-chCilsfYbBgeNM5ZVwSbvHI
p651
sVwidth
p652
I610
sVhtml_attributions
p653
(lp654
sVheight
p655
I423
sa(dp656
Vphoto_reference
p657
VCnRnAAAAc7usYfuwbZudjFhtyY1SMAsqmBEhkSJ_RaX9DosLMvtL_7_G2-oHKGmmTu-VtAzglropM2290_9te3UPJHGLqcJhTvzYEMXWeZxMlbrU8XEdC9WAkXzlgS6o3HGVIBJnIe-8Fmdnt05fi3uzKjgT1hIQOjqGnLeThHfjS9YGILe4XBoU94R4LxHDlLj1J0tI9kHh9CO5SSY
p658
sVwidth
p659
I610
sVhtml_attributions
p660
(lp661
sVheight
p662
I423
sa(dp663
Vphoto_reference
p664
VCnRnAAAAGUhmQaVI0D7Q2veyg1KRCY8MiHzYPpK9OBRiLH_-_VSrOSjiv2oh2n77fjfMlDUebi9rkp_qV4ALXs_xiKI_L3NIBKRC48WriZzDfMIJjBvVob9me78WViRdrCmumOJ8JelKHAnq8de90vv8yT8EsxIQ31JJR9MoU0k4lzcaTUhV5RoU7jR--G1_Y4xFxPJUhvLCblm2NeQ
p665
sVwidth
p666
I610
sVhtml_attributions
p667
(lp668
sVheight
p669
I423
sa(dp670
Vphoto_reference
p671
VCnRnAAAAXzhi5pdQDaRmDC6fDHBk1GRCeg2dfsNxg0xICOUUmz9PeDvYPVuB0sdnLiJXkWrQH8vsH4HP9m8DhNH5ciHm3gVwVOl-wsMaK1KksbFLiZreS1ljo1VzxOGni5XZV51Fawy0CGTpLj9CGdwhUUPaUxIQdhszuxDXYTNZEW7M7iZz8RoUySox8mAJ9o57-26j6lt-WhiedGg
p672
sVwidth
p673
I610
sVhtml_attributions
p674
(lp675
sVheight
p676
I423
sa(dp677
Vphoto_reference
p678
VCnRnAAAATJ0GzBRig06y9qz9wB0aCeSi2dePxChHnXleEaUU-MLOMlPlzHUi1GgYJ-mCLhmqAAY7WWhnNBXRJuSz8PzEFSd6J9WmrEl3xVWsluCMO_foEI8kbwYKvsuRNM1g09fmdkHTxFIwhNwG9bjqwLYaEhIQiGDWouydHPbQ9n6KY5wMlRoUJxmBI5sukKyE9FPgIYfJR3kMsu0
p679
sVwidth
p680
I610
sVhtml_attributions
p681
(lp682
sVheight
p683
I423
sa(dp684
Vphoto_reference
p685
VCnRnAAAAW8f4SkO7m8Ysed_-IYNqxxZ0s8hGr-XnCM7s9ke5RMr6UxRtY-KXsiZ1RP8ymq28sAwnWcLPHzdHXKO_5cZ7MQk3zmy89WH8qKmoYytH46iFVRlnuBOB9TDimzK3EDPROc-HemR4B1m1iuoOpZClKxIQWQLy8E9URVEVO4vF8CTMZxoUr58Tb-3IyX8tmj_Eeth-zOqJ0eI
p686
sVwidth
p687
I610
sVhtml_attributions
p688
(lp689
sVheight
p690
I423
sa(dp691
Vphoto_reference
p692
VCpQBhQAAAHP0zddL3TPwnOjLbwcv9TG9uPZ7uwebZIW3Z6_rCE4lFDwME-iCUCr13-8mUA2teh9v26AonXum7vKDox1ue_BVvxxBDyfm1nDeI_xU9KWaLS-DX_u_W67scA3vu99FlyEWTxnSbjMihxsUXf583gtMHuqCL-OX-qrqTAkV4e3_7je-0sn9ESwJ4Uh2cNX98xIQjEUvsUni-ukLIcnwjJH4PRoUIFIutC2nmHqY-6yeCkfm8wH20uc
p693
sVwidth
p694
I610
sVhtml_attributions
p695
(lp696
sVheight
p697
I423
sa(dp698
Vphoto_reference
p699
VCnRnAAAAQ_1yRmuk-4Vu7cp7zhYpN-sLsdMNYJ4bvUX7KXY1kZZFKPQKqCZSo9pG-rKQstK3t3sP84y_GtM1L4JRH_kytHxIi6dYHloGD6vb6xKWqRX2XH5HkB2EJZmoqwIUMUEMCuITuZQVSqRikEx0HuPwcRIQHYQfE5y83-RpOAfjaC2b1xoUOmcXOGyCQ27i018zyEpK4j_6gcU
p700
sVwidth
p701
I610
sVhtml_attributions
p702
(lp703
sVheight
p704
I423
sasVgeometry
p705
(dp706
Vlocation
p707
(dp708
Vlat
p709
F37.785232
sVlng
p710
F-122.404387
sssVadr_address
p711
V<span class="street-address">780 Mission St</span>, <span class="locality">San Francisco</span>, <span class="region">CA</span> <span class="postal-code">94103</span>, <span class="country-name">United States</span>
p712
sVplace_id
p713
VChIJcT5nNoaAhYARVdbyW3zPwus
p714
sVinternational_phone_number
p715
V+1 415-896-1600
p716
sVvicinity
p717
V780 Mission St, San Francisco
p718
sVreviews
p719
(lp720
(dp721
Vrating
p722
I1
sVaspects
p723
(lp724
(dp725
Vrating
p726
I0
sVtype
p727
Voverall
p728
sasVlanguage
p729
Ven
p730
sVtext
p731
VTo deal with customer service over an reservation issue was the most discriminatory and humiliating telephone event of my life so far two representatives hung up on me ( Iam Marriott rewards member too), made fun of my husband's name started screaming and yelling at me,would not give me her name and she also hung up on me yesterday evening. I will be filing a complaint with the better business admin and Ca Dept of Consumer Affairs.\u000a
p732
sVauthor_name
p733
VLidia Iannicelli
p734
sVauthor_url
p735
Vhttps://plus.google.com/113290576894401125156
p736
sVtime
p737
I1414440405
sa(dp738
Vrating
p739
I4
sVaspects
p740
(lp741
(dp742
Vrating
p743
I2
sVtype
p744
Voverall
p745
sasVlanguage
p746
Ven
p747
sVtext
p748
VEnjoyed the hotel and it's location was superb.  Great customer service.  The only problem was the bellhop service. They were rude and expected a tip for their rudeness. Other than that this hotel was amazing. 
p749
sVauthor_name
p750
VWilliam Birdshead
p751
sVauthor_url
p752
Vhttps://plus.google.com/106070413165326970187
p753
sVtime
p754
I1399848580
sa(dp755
Vrating
p756
I5
sVaspects
p757
(lp758
(dp759
Vrating
p760
I3
sVtype
p761
Voverall
p762
sasVlanguage
p763
Ven
p764
sVtext
p765
VThis is one of my favorite hotels in the City. In the last few times I have stayed there, not only have I received an email from Marriott in advance confirming my arrival, but an email from guest services from the hotel itself asking about any requests I might have. When I arrived I was greeted by a friendly, helpful staff and upgraded to a suite with an incredible view of San Francisco. Every wish I made was granted, and every time I stay there they comment on and appreciate my loyalty. \u000aThis is a well located hotel; walking distance to the Ferry Building and many other attractions. The restaurant is open and friendly, and the view from the appropriately named "View Lounge" is stunning. \u000aAfter leaving the hotel I received another email from guest services wanting to make sure my stay was satisfactory. I was happy to respond that it was beyond satisfactory. \u000aI highly recommend this hotel.
p766
sVauthor_name
p767
VColleen Brennan
p768
sVauthor_url
p769
Vhttps://plus.google.com/109644931818394502043
p770
sVtime
p771
I1405442127
sa(dp772
Vrating
p773
I3
sVaspects
p774
(lp775
(dp776
Vrating
p777
I1
sVtype
p778
Voverall
p779
sasVlanguage
p780
Ven
p781
sVtext
p782
VEarly check-in is not an uncommon thing to request, yet here the evening before my reservation, first I'm told that the phone number in the email is the wrong number, and then told by the hotel that I will need to call the morning of the reservation (at which point I'll be on a plane), and even then it's a 50/50 chance.  Service is what sets great hotels apart from just-ok hotels, and so far Marquis is ranking "just ok".
p783
sVauthor_name
p784
VDustin Mitchell
p785
sVauthor_url
p786
Vhttps://plus.google.com/105883044168332773236
p787
sVtime
p788
I1411346693
sa(dp789
Vrating
p790
I5
sVaspects
p791
(lp792
(dp793
Vrating
p794
I3
sVtype
p795
Voverall
p796
sasVlanguage
p797
Ven
p798
sVtext
p799
VGreat room, comfortable. Possibly the highest-capacity hotel I've ever stayed in; it constantly had people coming and going in the lobby. But my room on the 7th floor was quiet.
p800
sVauthor_name
p801
VJason Long
p802
sVauthor_url
p803
Vhttps://plus.google.com/111193045009768821920
p804
sVtime
p805
I1408335037
sasVformatted_phone_number
p806
V(415) 896-1600
p807
sVscope
p808
VGOOGLE
p809
sVurl
p810
Vhttps://plus.google.com/106887444712850191170/about?hl=en-US
p811
sVopening_hours
p812
(dp813
Vweekday_text
p814
(lp815
VMonday: Open 24 hours
p816
aVTuesday: Open 24 hours
p817
aVWednesday: Open 24 hours
p818
aVThursday: Open 24 hours
p819
aVFriday: Open 24 hours
p820
aVSaturday: Open 24 hours
p821
aVSunday: Open 24 hours
p822
asVopen_now
p823
I01
sVperiods
p824
(lp825
(dp826
Vopen
p827
(dp828
Vday
p829
I0
sVtime
p830
V0000
p831
ssassVaddress_components
p832
(lp833
(dp834
Vlong_name
p835
V780
p836
sVtypes
p837
(lp838
Vstreet_number
p839
asVshort_name
p840
V780
p841
sa(dp842
Vlong_name
p843
VMission St
p844
sVtypes
p845
(lp846
Vroute
p847
asVshort_name
p848
VMission St
p849
sa(dp850
Vlong_name
p851
VSan Francisco
p852
sVtypes
p853
(lp854
Vlocality
p855
aVpolitical
p856
asVshort_name
p857
VSF
p858
sa(dp859
Vlong_name
p860
VCalifornia
p861
sVtypes
p862
(lp863
Vadministrative_area_level_1
p864
aVpolitical
p865
asVshort_name
p866
VCA
p867
sa(dp868
Vlong_name
p869
VUnited States
p870
sVtypes
p871
(lp872
Vcountry
p873
aVpolitical
p874
asVshort_name
p875
VUS
p876
sa(dp877
Vlong_name
p878
V94103
p879
sVtypes
p880
(lp881
Vpostal_code
p882
asVshort_name
p883
V94103
p884
sasVformatted_address
p885
V780 Mission St, San Francisco, CA 94103, United States
p886
sVid
p887
Vf007d2f91c0070ebdfec60275baa33623f0b771b
p888
sVtypes
p889
(lp890
Vlodging
p891
aVestablishment
p892
asVicon
p893
Vhttp://maps.gstatic.com/mapfiles/place_api/icons/lodging-71.png
p894
ssba(ispot
Spot
p895
(dp896
g3
Nsg4
(dp897
Vwebsite
p898
Vhttp://sanfrancisco.giants.mlb.com/sf/ballpark/
p899
sVrating
p900
F4.7
sVutc_offset
p901
I-480
sVuser_ratings_total
p902
I512
sVname
p903
VAT&T Park
p904
sVreference
p905
VCnRjAAAAO_lwRDmLPCzb2c7bwa-Kz9TivFJXG1sHvIaP4O0pWo02VKDijGqGOtEqAlaMPmpkapPVkE-gtu89aJezNBNXN5ggZy10ISSquQlJTsT0fpBwFDj4uHp0KuCpJc4HQJiOsDiQ63TZy2MGXgcY1jx-ABIQpNqS3dkCnYRh8CZHo4NHOhoUPaC8_R2P28B9HEDy5py739yvyBo
p906
sVphotos
p907
(lp908
(dp909
Vphoto_reference
p910
VCnRtAAAAsYMhRVsNNoGKR51PtVJE3qTGcSm2Ww0QOzDRoANmY2eXKr49aHROPpFIJnhUvefBZwpDv-T9G0nhj_PMdR0SdpqkDIJk4MvJJRyn1bcKqg6jcafbcffNY0Mb2SStztmGHMf0gSQddSLy5q8qM65rzxIQOIbrZ-cvCG5L9fdCyiPlmRoUmtiZt1UGWf8pEvyUmWd5hpyX96Q
p911
sVwidth
p912
I1632
sVhtml_attributions
p913
(lp914
VFrom a Google User
p915
asVheight
p916
I1224
sa(dp917
Vphoto_reference
p918
VCpQBhgAAAPsH7X5bDuoM7dhVQ7WrGjT4L--mfc0UGvtn7Mo35ozqAqCOM4a5tHvsGGMFgYqyFBRd3KjxsWjaTzy9ChowLhivPF5BjZv3YjtnVpMOL8tjbwGLPAjBfX4R2ObCSQfl2r8xt-62V_VubMsS_Vl5qfVmLqDfRUM0ABRp1RJZNiv1QKR4lTI1BcscGrMoYZpvZBIQNAYCVxMEP_W2Q7hPf8HyGhoU7CfeaO7UFnZE3JiwZdCIKh2Cdz8
p919
sVwidth
p920
I2048
sVhtml_attributions
p921
(lp922
V<a href="https://plus.google.com/106170335079428053302">Corrie Davidson</a>
p923
asVheight
p924
I1536
sa(dp925
Vphoto_reference
p926
VCoQBdgAAADb8ny5gCEwJS6nDfDdjRD15e9SFTtP8HhXx4lv7ZHamE2vd1dV88PfeFdVeE2wqcCXMrIm07eqF6XToa8k6Tlup03Axdikb_KHy8S_ZIIa97y4ldh_ECzAry6Czt-90WKYgEjzm1TvZmIhLCty4pFqfJCQIHYKY9842XFvYyRRuEhCCLK1O-u2ZNJcwIRqTgnynGhRLG7pHAFzPT4wGz0Olzw0XD6mdww
p927
sVwidth
p928
I1024
sVhtml_attributions
p929
(lp930
VFrom a Google User
p931
asVheight
p932
I768
sa(dp933
Vphoto_reference
p934
VCoQBcQAAAPmuChomCC5XxsbL-CJAtjbFgMjQl1kAKqKtOFY_vfW3aUPDE6DztgIoqghFW85J03zaPpwjCFPqvf9XOsUaouRFr8RoMlde6mP2cPRsKbUV6T2ybKlPFER9CZalh_TqP8bQovOT8no6RFKemgmsNMRB8HeS_KjG8SLKyHrsF_tqEhDDbtZqOFdVPRjdutBpOxrfGhQVfLu3ccdlOWywJjQ48_SjyTneYA
p935
sVwidth
p936
I2048
sVhtml_attributions
p937
(lp938
V<a href="https://plus.google.com/112095627515954870302">Garrett Messer</a>
p939
asVheight
p940
I1536
sa(dp941
Vphoto_reference
p942
VCnRoAAAAqfVsqxdwzq-g9ZwKSfYjoOtCVOOhg0RRLPivUDH5kW-RH5Rv79swnUwOtDFPQ1khhuw1x45gO7y0HoiuASqPu7wwQ6WkauBZj1L-z1XvLa1iHtowvUlLtp8BpBhDgu-5RNV1hocsiOjivKeH4p-ZghIQUH_uDYavx4qf3jx5R8Y2uBoUCNJ0DxTunuHhPeqmC0QCeXB0yMs
p943
sVwidth
p944
I1280
sVhtml_attributions
p945
(lp946
V<a href="https://plus.google.com/108152127945250235563">Michael Villalobos Gomez</a>
p947
asVheight
p948
I960
sa(dp949
Vphoto_reference
p950
VCnRtAAAAmIY3iWeauGERPaChlZE0cvNUkcfErK87nt7JvI814Oha9AItP_UV-3nI72UPrk8o1mwd_O73W7gXyKLClKlIorKRTUHuVNFTvtiYaeDEROYPLETTmVeblcrjjyPiqWxqu2ZUFcbFW0a2rx3ijYkiIRIQJURMExBbbZ60DovKjf3IfRoUpy8dbFDbZLenO9woQoiXNwn-JOg
p951
sVwidth
p952
I500
sVhtml_attributions
p953
(lp954
V<a href="https://plus.google.com/117701647401983318963">Piero Fusco</a>
p955
asVheight
p956
I332
sa(dp957
Vphoto_reference
p958
VCnRtAAAA2lvnkpb0ysFN1wPksPOlk5HVqy9g__couXJAAk75qs4q-Ac3UMVnh4wdjZ7pERx-9s3XxPrusPqYOR4ZnpZDgDLkBfYM-Ee6uof1csBNtpEO0dElE7Wmami7mVCGqF_7G_JtLUtzB2umhxm5xWtJlhIQXDWQcJut_Jkfuw_WrRWMzBoUH3SLaqM8Kz1bqSCX50QkJXKX5qU
p959
sVwidth
p960
I394
sVhtml_attributions
p961
(lp962
VFrom a Google User
p963
asVheight
p964
I314
sa(dp965
Vphoto_reference
p966
VCpQBhgAAABsI6QvzBorz9terS_mMuMNieA07K-OL0pSdjy2dDlBIUgUkZ_d-Epc_n_WrNpJeGqmw0g0jvehZtyh_V0mTdRxxkmSeXtBXOpNfJsT2x9u97qkZf_irKYD5LBqNgIkSqIuvrtm9t0VogO6X_0chY-fGY6yjnKLtuGROGZYQ7-UdkUBzDrz4sCFCLeA80pWkkBIQ883KZJTWRWWgZioYKp76jxoURdgEYLivxgFyXcudxjhn5evNmTo
p967
sVwidth
p968
I2048
sVhtml_attributions
p969
(lp970
V<a href="https://plus.google.com/106170335079428053302">Corrie Davidson</a>
p971
asVheight
p972
I1536
sa(dp973
Vphoto_reference
p974
VCnRoAAAAxDZi_hQR4b4P5Br5zckOymxxCe_ZBcJujRuYgL2Z2QQvlJk3XVGnRtIIsnaPXvInMDwnyaPg6QotXaD5LuYGN4pu90t8c0Oqo5faFGWXtWraIE6C2Gcbm8WeQ5bIliBpspiVsvFuj2ZQK0A7pgRFshIQeneik12o2Oju8ewtgB7BrRoU6PGd0bxTaF6KoK_RSNFnFuKU0qE
p975
sVwidth
p976
I2448
sVhtml_attributions
p977
(lp978
V<a href="https://plus.google.com/114499818319322887155">Tyler Inocencio</a>
p979
asVheight
p980
I3264
sa(dp981
Vphoto_reference
p982
VCnRtAAAAVfitGDEyBL8-QUI4BQWjGhkVp5JRdmRjCKe2CPYTmXs4CEzu0Xpt_jip5CYLSkNUAF_sbvD2pEC-Fh2cmhbT2pF3eQJqwFY5iq4yHtR_niqAcF0vgNit8qQ_s_5TtbOf2wUca2ELZWyX298h3KkA4hIQkbo8cbKTR_anGY48EWBJ9hoU9Xj7BDI3lkUwicfMgnujM-cfx8A
p983
sVwidth
p984
I1296
sVhtml_attributions
p985
(lp986
V<a href="https://plus.google.com/117454953906757170811">George Fosselius</a>
p987
asVheight
p988
I972
sasVgeometry
p989
(dp990
Vlocation
p991
(dp992
Vlat
p993
F37.778595
sVlng
p994
F-122.38927
sssVadr_address
p995
V<span class="street-address">24 Willie Mays Plaza</span>, <span class="locality">San Francisco</span>, <span class="region">CA</span> <span class="postal-code">94107</span>, <span class="country-name">United States</span>
p996
sVplace_id
p997
VChIJ_T25cNd_j4ARehGmHe0pT84
p998
sVinternational_phone_number
p999
V+1 415-972-2000
p1000
sVvicinity
p1001
V24 Willie Mays Plaza, San Francisco
p1002
sVreviews
p1003
(lp1004
(dp1005
Vrating
p1006
I5
sVaspects
p1007
(lp1008
(dp1009
Vrating
p1010
I3
sVtype
p1011
Voverall
p1012
sasVlanguage
p1013
Ven
p1014
sVtext
p1015
VI've been here for Giants baseball game,  concerts, and corporate events. The place is very clean and easy to walk through. During games there's TVs all around the stadium near the the food stands and bathrooms so you don't miss any action. The lines for food may be long, and there's so many so it's not too bad! If you are lucky if you go the Virgin America club level you're treating to a great view of the field and even better access to food and drinks! The club level has so much space including a bowling ball alley, galleries of old baseball bats, etc. Try to take a tour of the place if you can! The garden in the back is a welcome addition.
p1016
sVauthor_name
p1017
VAprille Espinueva
p1018
sVauthor_url
p1019
Vhttps://plus.google.com/100822860986184584169
p1020
sVtime
p1021
I1413043156
sa(dp1022
Vrating
p1023
I5
sVaspects
p1024
(lp1025
(dp1026
Vrating
p1027
I3
sVtype
p1028
Voverall
p1029
sasVlanguage
p1030
Ven
p1031
sVtext
p1032
VGreat stadium - and in the middle of SOMA as well!  The parking can be a bit annoying though as an FYI.\u000a\u000aThe stadium itself is great - I've only come for Giants games, and I've sat usually in the Virgin Airlines area (there's a separate escalator for this).  I really enjoy the food here - I love the garlic fries and I love how clean this stadium is even though it's been open for some time!  \u000a\u000aIt can get very cold here - most people don't realize how cold San Francisco can get at night without the sun, so definitely bring a jacket!  The wine can be really pricey as well so watch out for that. 
p1033
sVauthor_name
p1034
VSally Zhao
p1035
sVauthor_url
p1036
Vhttps://plus.google.com/112631984024381153921
p1037
sVtime
p1038
I1412978141
sa(dp1039
Vrating
p1040
I5
sVaspects
p1041
(lp1042
(dp1043
Vrating
p1044
I3
sVtype
p1045
Voverall
p1046
sasVlanguage
p1047
Ven
p1048
sVtext
p1049
VBeautiful park, awesome time! We went to the Giants vs. Dodgers game, we're Dodger fans, and people were actually pretty civil, considering how big of a game it was. People were telling me before I went, "try the garlic fries," NASTY!! I only took 6 bites or so, and that's only because they were $8!! I tossed them. And I like garlic. But overall, it was a great experience, pricey, just like any other professional game, but worth it.
p1050
sVauthor_name
p1051
VAmy Blaisdell
p1052
sVauthor_url
p1053
Vhttps://plus.google.com/100327111590932161816
p1054
sVtime
p1055
I1410903632
sa(dp1056
Vrating
p1057
I5
sVaspects
p1058
(lp1059
(dp1060
Vrating
p1061
I3
sVtype
p1062
Voverall
p1063
sasVlanguage
p1064
Ven
p1065
sVtext
p1066
VWhat can I say about AT&T park?! Anywhere you sit or stand is awesome!!! Entertainment galore! I love their crab cake sandwiches and of course, their garlic fries. The best thing about AT&T Park - The San Francisco Giants!!!!
p1067
sVauthor_name
p1068
VSharon Bee
p1069
sVauthor_url
p1070
Vhttps://plus.google.com/112933525571389870098
p1071
sVtime
p1072
I1413243471
sa(dp1073
Vrating
p1074
I5
sVaspects
p1075
(lp1076
(dp1077
Vrating
p1078
I3
sVtype
p1079
Voverall
p1080
sasVlanguage
p1081
Ven
p1082
sVtext
p1083
VMy favorite place in San Francisco. Such a beautiful ballpark with amazing energy. Tons of delicious and unique food options. So much to see and do, you will never be bored. Depending on time of the year you can get tickets for pretty inexpensive. Try the garlic fries!
p1084
sVauthor_name
p1085
VBrendon Nemeth
p1086
sVauthor_url
p1087
Vhttps://plus.google.com/105213255561655655900
p1088
sVtime
p1089
I1413257141
sasVformatted_phone_number
p1090
V(415) 972-2000
p1091
sVurl
p1092
Vhttps://plus.google.com/114995991922311473611/about?hl=en-US
p1093
sVscope
p1094
VGOOGLE
p1095
sVaddress_components
p1096
(lp1097
(dp1098
Vlong_name
p1099
V24
p1100
sVtypes
p1101
(lp1102
Vstreet_number
p1103
asVshort_name
p1104
V24
p1105
sa(dp1106
Vlong_name
p1107
VWillie Mays Plaza
p1108
sVtypes
p1109
(lp1110
Vroute
p1111
asVshort_name
p1112
VWillie Mays Plaza
p1113
sa(dp1114
Vlong_name
p1115
VSan Francisco
p1116
sVtypes
p1117
(lp1118
Vlocality
p1119
aVpolitical
p1120
asVshort_name
p1121
VSF
p1122
sa(dp1123
Vlong_name
p1124
VCalifornia
p1125
sVtypes
p1126
(lp1127
Vadministrative_area_level_1
p1128
aVpolitical
p1129
asVshort_name
p1130
VCA
p1131
sa(dp1132
Vlong_name
p1133
VUnited States
p1134
sVtypes
p1135
(lp1136
Vcountry
p1137
aVpolitical
p1138
asVshort_name
p1139
VUS
p1140
sa(dp1141
Vlong_name
p1142
V94107
p1143
sVtypes
p1144
(lp1145
Vpostal_code
p1146
asVshort_name
p1147
V94107
p1148
sasVformatted_address
p1149
V24 Willie Mays Plaza, San Francisco, CA 94107, United States
p1150
sVid
p1151
V2fabca457541277971b0bc91a40bbad02ecbb5ba
p1152
sVtypes
p1153
(lp1154
Vstadium
p1155
aVestablishment
p1156
asVicon
p1157
Vhttp://maps.gstatic.com/mapfiles/place_api/icons/stadium-71.png
p1158
ssba(ispot
Spot
p1159
(dp1160
g3
Nsg4
(dp1161
Vrating
p1162
I4
sVreference
p1163
VCqQBkQAAANMLArENgYk4g_1TmgTrFDIe8WK_dirr15efvlZetegTuiaR5a-G2u2db0V92TnbAGeDJxHEoZk7j9RL_GvcFUiXluGGnLjVQhnIEFqVvUoo_Br97ADBZ5lvt0ZOAU3NEExrDP3uek3b25CZy4j2aEfgc8GenNADvauNtreaQz5bhIYhUpGPlN9sELvt2wGe1z8PCzSxxVvKWlSlUe9LTxUSEL4FvVsfnT-DeZVm5HyzvokaFIJDDXKXEB3adeNWyrMOaLu-harP
p1164
sVprice_level
p1165
I4
sVplace_id
p1166
VChIJ150MH4iAhYARy399PwjhCb4
p1167
sVurl
p1168
Vhttps://plus.google.com/118209841820254113466/about?hl=en-US
p1169
sVformatted_address
p1170
V2 New Montgomery St, San Francisco, CA 94105, United States
p1171
sVid
p1172
Vf62741e305ade8cf3fab5b364cd7aafb1ce89f58
p1173
sVopening_hours
p1174
(dp1175
Vweekday_text
p1176
(lp1177
VMonday: Open 24 hours
p1178
aVTuesday: Open 24 hours
p1179
aVWednesday: Open 24 hours
p1180
aVThursday: Open 24 hours
p1181
aVFriday: Open 24 hours
p1182
aVSaturday: Open 24 hours
p1183
aVSunday: Open 24 hours
p1184
asVopen_now
p1185
I01
sVperiods
p1186
(lp1187
(dp1188
Vopen
p1189
(dp1190
Vday
p1191
I0
sVtime
p1192
V0000
p1193
ssassVvicinity
p1194
V2 New Montgomery St, San Francisco
p1195
sVscope
p1196
VGOOGLE
p1197
sVwebsite
p1198
Vhttp://www.sfpalace.com/
p1199
sVutc_offset
p1200
I-480
sVuser_ratings_total
p1201
I197
sVphotos
p1202
(lp1203
(dp1204
Vphoto_reference
p1205
VCnRnAAAA9RXqqhhPfchbsqbOx6Dh14ABdj7EzMMwTzDkb6bJER5bBU1N2J3DnXPfBlQYvDVq2JdseniUMl9FwjSX0gaFf5DdHSTzxTS2t5fRoO_ahAjrAoGyYHnpDeII6LIOokVuQtYwq9GyUX573OcD43QAzBIQ8i5yniC0gwB-32obBHscyBoUJPw8cS5KNgrtBQ1Ysa7LpUw9_5k
p1206
sVwidth
p1207
I343
sVhtml_attributions
p1208
(lp1209
sVheight
p1210
I230
sa(dp1211
Vphoto_reference
p1212
VCnRqAAAA5ak4Aklc1FkEGIZWI844vjvZT-pyU1cajvHjEfdd8oGeBWHsY5o7geWKzfFJ-aL6N5lT-7O68qfH34VTRwTOn4Pw7zd00EcvFzWESWOxLDjAGLEI2OiM3UCS4KT2s2VzCSSMVbP38ulPqmqsFrqt5RIQFG4b4QNv1zmsH-Mr6527yxoUG-wSpy1QVJHYjYLdnjhD9D4fX-M
p1213
sVwidth
p1214
I343
sVhtml_attributions
p1215
(lp1216
sVheight
p1217
I230
sa(dp1218
Vphoto_reference
p1219
VCnRnAAAA27uTmvTtRnj9M6oclIlCpIy46I0E-lrAWtM99_laYPuIxdEQr1VLQBbLwrqF9Zk8hiJYVN-SLMbuECZg-NDzmBRzK0kSVGrUl_l_IaOEPTY3cnNMBovt-TPD7iBwWoN3G8lOUjnW0Y8SVp7Xw8OghBIQ6ObV7A-7Ad0Z1G7WEbJR9BoUNy82prQOLdTu2ZrdiuQm1T14MFM
p1220
sVwidth
p1221
I343
sVhtml_attributions
p1222
(lp1223
sVheight
p1224
I230
sa(dp1225
Vphoto_reference
p1226
VCnRnAAAAqdljdtwGLwKy6T_NrLHyEDX4WgDqSvy0-gE7C3uClIg91fxM7mvM-ReRVlAEx8hWG5H880dnxsW7QZtPupsEmvg8a28QWXZSR9YGjbrboog_vmJvWSIZBKVvgtdImXAfulxdoaGWzBcIXvzDeXwm1RIQ2NkJ31D0PyPWzuGAjDjuvRoU9l8ZvcMwQ451HFLlu0jgAUadbP4
p1227
sVwidth
p1228
I343
sVhtml_attributions
p1229
(lp1230
sVheight
p1231
I230
sa(dp1232
Vphoto_reference
p1233
VCnRnAAAAkkGZn7hcPvCE6Se-qoakIVLcUnHk_zAXg4JYCkJvjUxvV7lt2hZHRYStvIqLNbUwzVAaCoSdDfLFeZPQcUT6yWnlXtRIpnLw4h7QQtLtnfb8Tx938VqrkqXwjAQIoGmb-BKu49kAzj-G-SnkCF7RzxIQF42KY6StHaQW3ODvS4r_7hoUV0yRGZXIWLt0AVk8lIBBniKKKSE
p1234
sVwidth
p1235
I343
sVhtml_attributions
p1236
(lp1237
sVheight
p1238
I230
sa(dp1239
Vphoto_reference
p1240
VCnRnAAAABAQBjQxvahzmULuH_vxyn4ZMj_7foOwbMeqWSyEgEShRBXbK0PtUy1s9OYoFMZQsjy1KQT6Qjwh2zW8O1SdnAxoMe_f6XeeeIHsTd7JoM1zUUNI2c0bRpPoip9OTll6w21NKWmsMjcWQ8FvX4Qdu5hIQCtYOzu0oDFann7tLsbpSthoUb0AZk3HXZMnE5TUBlCg-OfUv_z8
p1241
sVwidth
p1242
I343
sVhtml_attributions
p1243
(lp1244
sVheight
p1245
I230
sa(dp1246
Vphoto_reference
p1247
VCnRqAAAAOvL-JNReQNKxJbFJWlfzPhMwItB-LAL4f7oDn4nAL07L3jYxuke7R-Lb8rEyyGA1DuJ1n7UR3duXDFqgFiYbqCZFjzDjXxxsFSsdanzzOqgwF0bowTujP0Al6fn0SAdFJla0qjZOFRgACyOIofO9ohIQawVjL-3mS79t5-hYjbncqBoULnomyLsP-jsqG9mK2z1P2BZ1F2I
p1248
sVwidth
p1249
I343
sVhtml_attributions
p1250
(lp1251
sVheight
p1252
I230
sa(dp1253
Vphoto_reference
p1254
VCnRqAAAA3RFVC0SpAGjlacfPQqJyO3N8wl00_5w8WK7GG3tZ3056KvsJprMu0x0oYGDUt2YSPeUY2jVc0oHi0K4EdcuxmYXTstBYrph0t8fwlazJ4WPZcSNVj0JhjcpwOmrY3xeBMK7WkHThLd7njEt-WQoHyRIQwTdpmR2IwMuGJd6zV_kxOxoUdAyl7ewGVXDxnuI_VB2b16gfzyM
p1255
sVwidth
p1256
I343
sVhtml_attributions
p1257
(lp1258
sVheight
p1259
I230
sa(dp1260
Vphoto_reference
p1261
VCnRqAAAAzRHJ7dlypvdmA7DXuZklg6DJi85TV6qAlrRkf3pT9f9lNB6-V8YEp_5P1kJbE4tuMImfXKyTuWM41RBRpYCcIxd39YZKoXPqJtxIcuvPBnwYWuBO5Rq-zUrWj5qEoVxH4WK26d1vb3bCpnUNQiURnhIQ6dSMTdeEgI_ZnRLhyRTkcxoUBNMKcXjiIZVREIV8Qf_AINkLQ1c
p1262
sVwidth
p1263
I343
sVhtml_attributions
p1264
(lp1265
sVheight
p1266
I230
sa(dp1267
Vphoto_reference
p1268
VCnRqAAAA4cmhlS-y89Yy7AAOUAgxun68xzIHqwgpASGZ8jU0hzu7EA1WjkQDBdJ7sncuE6tTvTSUOpIXEQUeSCEpu_5s_LQczzdH8Vjqvsf_6LpDo6V9WiiCXWH44N0KZBUwkChZyiTyUWShNJerR2zBb4boFxIQUGM7asweO4skMJO7KSaGAxoUxN3XvAAVehGfBINd_4HjtSSe07Q
p1269
sVwidth
p1270
I343
sVhtml_attributions
p1271
(lp1272
sVheight
p1273
I230
sasVtypes
p1274
(lp1275
Vlodging
p1276
aVestablishment
p1277
asVicon
p1278
Vhttp://maps.gstatic.com/mapfiles/place_api/icons/lodging-71.png
p1279
sVname
p1280
VPalace Hotel, a Luxury Collection Hotel, San Francisco
p1281
sVgeometry
p1282
(dp1283
Vlocation
p1284
(dp1285
Vlat
p1286
F37.788599
sVlng
p1287
F-122.402019
sssVadr_address
p1288
V<span class="street-address">2 New Montgomery St</span>, <span class="locality">San Francisco</span>, <span class="region">CA</span> <span class="postal-code">94105</span>, <span class="country-name">United States</span>
p1289
sVinternational_phone_number
p1290
V+1 415-512-1111
p1291
sVreviews
p1292
(lp1293
(dp1294
Vrating
p1295
I5
sVaspects
p1296
(lp1297
(dp1298
Vrating
p1299
I3
sVtype
p1300
Voverall
p1301
sasVlanguage
p1302
Ven
p1303
sVtext
p1304
VI've only been here for events in the Grand Ballroom and to Tea.  So this review is based on those experiences, which have been superior!  Tea at the Sheraton Palace should be on everyone's bucket list.  The room is over the top elegant, as is the service.  This experience sets you back to another place and time, it is truly a respite from the frantic life we all seem to be rushing around in.  Reservations for tea are a must. 
p1305
sVauthor_name
p1306
VYoni Mayeri
p1307
sVauthor_url
p1308
Vhttps://plus.google.com/105820450885180571966
p1309
sVtime
p1310
I1412953438
sa(dp1311
Vrating
p1312
I5
sVaspects
p1313
(lp1314
(dp1315
Vrating
p1316
I3
sVtype
p1317
Voverall
p1318
sasVlanguage
p1319
Ven
p1320
sVtext
p1321
VThe hotel is beautiful, and the staff is very friendly and helpful.  I recently proposed at the hotel to my girlfriend, and the plan required some coordination with the hotel.  Prior to my arrival I called to coordinate with the hotel, the receptionist connected me with Adriana.  Adriana told me she had me covered. Just to start, she made it possible for me to do the check-in process over the phone and via a secure site so that when I arrived I'd just need to show my ID in exchange for the keycard, and had a bucket of ice placed in the room along with chocolate covered strawberries minutes prior to our timed arrival.  She made the entire experience flawless for me, and extremely special for the two of us.  My fiance was head over heals.  Thank you, Adriana.  We look forward coming back to stay for our anniversaries to come.  
p1322
sVauthor_name
p1323
VDaniel Garzia
p1324
sVauthor_url
p1325
Vhttps://plus.google.com/102573460518502520362
p1326
sVtime
p1327
I1409678518
sa(dp1328
Vrating
p1329
I4
sVaspects
p1330
(lp1331
(dp1332
Vrating
p1333
I2
sVtype
p1334
Voverall
p1335
sasVlanguage
p1336
Ven
p1337
sVtext
p1338
VDon't miss this lobby and restaurant. The food is good. Especially the Sunday Brunch. But just to sit in this three story atrium is the treat. Imagine this was used over 150 years ago. Plus the bar is a throw back to 100 years ago. Enjoy. 
p1339
sVauthor_name
p1340
VTom Flood
p1341
sVauthor_url
p1342
Vhttps://plus.google.com/115575784208091767568
p1343
sVtime
p1344
I1405422502
sa(dp1345
Vrating
p1346
I4
sVaspects
p1347
(lp1348
(dp1349
Vrating
p1350
I2
sVtype
p1351
Voverall
p1352
sasVlanguage
p1353
Ven
p1354
sVtext
p1355
VBeautiful hotel, center of the city. Room was average size with high ceilings, very nice bathroom and comfortable bed. Gorgeous inside the lobby (there was a wedding or something happening during our stay). Lots of traffic getting there to the valet but otherwise great. 
p1356
sVauthor_name
p1357
VShaw Levin
p1358
sVauthor_url
p1359
Vhttps://plus.google.com/117722603808387603069
p1360
sVtime
p1361
I1411845235
sa(dp1362
Vrating
p1363
I5
sVaspects
p1364
(lp1365
(dp1366
Vrating
p1367
I3
sVtype
p1368
Voverall
p1369
sasVlanguage
p1370
Ven
p1371
sVtext
p1372
VBeautiful, well preserved, old Hotel. Other old hotels in this city should take note. Old does not have to mean run down. Class act.
p1373
sVauthor_name
p1374
VJoAnn Gamma
p1375
sVauthor_url
p1376
Vhttps://plus.google.com/110299714971709099718
p1377
sVtime
p1378
I1414738296
sasVformatted_phone_number
p1379
V(415) 512-1111
p1380
sVaddress_components
p1381
(lp1382
(dp1383
Vlong_name
p1384
V2
p1385
sVtypes
p1386
(lp1387
Vstreet_number
p1388
asVshort_name
p1389
V2
p1390
sa(dp1391
Vlong_name
p1392
VNew Montgomery St
p1393
sVtypes
p1394
(lp1395
Vroute
p1396
asVshort_name
p1397
VNew Montgomery St
p1398
sa(dp1399
Vlong_name
p1400
VSouth Beach
p1401
sVtypes
p1402
(lp1403
Vneighborhood
p1404
aVpolitical
p1405
asVshort_name
p1406
VSouth Beach
p1407
sa(dp1408
Vlong_name
p1409
VSan Francisco
p1410
sVtypes
p1411
(lp1412
Vlocality
p1413
aVpolitical
p1414
asVshort_name
p1415
VSF
p1416
sa(dp1417
Vlong_name
p1418
VSan Francisco County
p1419
sVtypes
p1420
(lp1421
Vadministrative_area_level_2
p1422
aVpolitical
p1423
asVshort_name
p1424
VSan Francisco County
p1425
sa(dp1426
Vlong_name
p1427
VCalifornia
p1428
sVtypes
p1429
(lp1430
Vadministrative_area_level_1
p1431
aVpolitical
p1432
asVshort_name
p1433
VCA
p1434
sa(dp1435
Vlong_name
p1436
VUnited States
p1437
sVtypes
p1438
(lp1439
Vcountry
p1440
aVpolitical
p1441
asVshort_name
p1442
VUS
p1443
sa(dp1444
Vlong_name
p1445
V94105
p1446
sVtypes
p1447
(lp1448
Vpostal_code
p1449
asVshort_name
p1450
V94105
p1451
sassba(ispot
Spot
p1452
(dp1453
g3
Nsg4
(dp1454
Vrating
p1455
F4.3
sVreference
p1456
VCnRoAAAA9HeElExliD0JZLw4tWZBssgrSXNqpsTk9YSC5a5PvdKIvOxPgyXOJz8OtTC61cLcXERSQ9OSo3lklv_7YYt44xINbSXLkce7ZT4a_Z4uVkSzpCQRCZaztRKl_v0_wjUDrM0BgAePgBT_xXAEn_KathIQeLd4hdeTQbIWRyIOEhRS0RoUgl6XcB043ofJLaW7DJY91CMerVo
p1457
sVplace_id
p1458
VChIJI7NivpmAhYARSuRPlbbn_2w
p1459
sVurl
p1460
Vhttps://plus.google.com/104010277220168946324/about?hl=en-US
p1461
sVformatted_address
p1462
V50 Hagiwara Tea Garden Dr, San Francisco, CA 94118, United States
p1463
sVid
p1464
V2a7464f9faa0b872fcc3132045a4b29e7661f83c
p1465
sVopening_hours
p1466
(dp1467
Vweekday_text
p1468
(lp1469
VMonday: Closed
p1470
aVTuesday: 9:30 am \u2013 5:15 pm
p1471
aVWednesday: 9:30 am \u2013 5:15 pm
p1472
aVThursday: 9:30 am \u2013 5:15 pm
p1473
aVFriday: 9:30 am \u2013 8:45 pm
p1474
aVSaturday: 9:30 am \u2013 5:15 pm
p1475
aVSunday: 9:30 am \u2013 5:15 pm
p1476
asVopen_now
p1477
I00
sVperiods
p1478
(lp1479
(dp1480
Vclose
p1481
(dp1482
Vday
p1483
I0
sVtime
p1484
V1715
p1485
ssVopen
p1486
(dp1487
Vday
p1488
I0
sVtime
p1489
V0930
p1490
ssa(dp1491
Vclose
p1492
(dp1493
Vday
p1494
I2
sVtime
p1495
V1715
p1496
ssVopen
p1497
(dp1498
Vday
p1499
I2
sVtime
p1500
V0930
p1501
ssa(dp1502
Vclose
p1503
(dp1504
Vday
p1505
I3
sVtime
p1506
V1715
p1507
ssVopen
p1508
(dp1509
Vday
p1510
I3
sVtime
p1511
V0930
p1512
ssa(dp1513
Vclose
p1514
(dp1515
Vday
p1516
I4
sVtime
p1517
V1715
p1518
ssVopen
p1519
(dp1520
Vday
p1521
I4
sVtime
p1522
V0930
p1523
ssa(dp1524
Vclose
p1525
(dp1526
Vday
p1527
I5
sVtime
p1528
V2045
p1529
ssVopen
p1530
(dp1531
Vday
p1532
I5
sVtime
p1533
V0930
p1534
ssa(dp1535
Vclose
p1536
(dp1537
Vday
p1538
I6
sVtime
p1539
V1715
p1540
ssVopen
p1541
(dp1542
Vday
p1543
I6
sVtime
p1544
V0930
p1545
ssassVvicinity
p1546
V50 Hagiwara Tea Garden Dr, San Francisco
p1547
sVscope
p1548
VGOOGLE
p1549
sVwebsite
p1550
Vhttp://deyoung.famsf.org/
p1551
sVutc_offset
p1552
I-480
sVuser_ratings_total
p1553
I119
sVphotos
p1554
(lp1555
(dp1556
Vphoto_reference
p1557
VCnRwAAAAH5Fm1bqxpPeLNu4_3P-X2e065JhqMf10577bB7K2PJ24NP8oJnjn3Cf2XjLAekFrtzPp9wLH095lLI9zgm6nHTmr7jF8gNY2S5FN-XcYDtxCVANgBr6u5vFgoY1WuAa8z3uJy5D5DN-FjDI62V5sCRIQwTC4Q6fTaueHk4jlutCwFxoU76Jc4TmgxjOd0MPkLLfy1mU-Jt8
p1558
sVwidth
p1559
I953
sVhtml_attributions
p1560
(lp1561
sVheight
p1562
I953
sa(dp1563
Vphoto_reference
p1564
VCnRqAAAALwimRjF8GR0ugWiqHD3uBN29fA3RuT9SD8gMWnq_2JESMDR8y3ttf12nv-Xg9eHPIDeCiaST8-_o7Or7r8Nmv2xouykNdkh5M0lAZHH6yXGyYSJ5EmZDKM7T6RMTFXhw5c845I8WT0xtAcZSMIPn1hIQ4p4QN7_1INdRU33gJIyWXxoU0S1sy2214elZcjyVSCkI1M3lL_8
p1565
sVwidth
p1566
I2048
sVhtml_attributions
p1567
(lp1568
V<a href="https://plus.google.com/107703067300113514526">Cornelius O&#39;Leary Jr</a>
p1569
asVheight
p1570
I1361
sa(dp1571
Vphoto_reference
p1572
VCnRqAAAACZME31rA7L37Ox0znI49MH8RlMMejg7JMCdFVHxhaN8-xB44yhntK9JJYdbYwGhEEnZsRWcMWY4GBuqbv9USBf8ilMQ_HY35b3It7QZvUYBHZCqt4rz9FHWDrJqUJt8UA2YedT5qw2nXxf3xNlk2IBIQRAMJ9dYEAVeCDe-EJgvBTBoU7gPO-Ve2G92scOTIpIwCTZSSQkI
p1573
sVwidth
p1574
I1984
sVhtml_attributions
p1575
(lp1576
V<a href="https://plus.google.com/113173931251785215708">Henning Nielsen</a>
p1577
asVheight
p1578
I1488
sa(dp1579
Vphoto_reference
p1580
VCnRqAAAA6-du70QOulBm-K6ZxzzDc1B94IrqvSlKSl4J7pxSBA2_zpKmtw7INXKl9DJJoHtGYMxH5xFo_8B8FjdQm3jOQkOqqp8RLBAHtxVFadIKU7BgL8-k99yNuAWjTmfivAwwO55vrEl7HFjShAOnFe-gbBIQN8GYDdj6kE8_6Kb72GHTPxoUfjyT81kCnnvOoZhtiHiBhPk24Zk
p1581
sVwidth
p1582
I380
sVhtml_attributions
p1583
(lp1584
V<a href="https://plus.google.com/100146962083959904819">Sarah White</a>
p1585
asVheight
p1586
I276
sa(dp1587
Vphoto_reference
p1588
VCnRqAAAAX--z88wLaSY2UFQXMZBph0p2VmlXZxfUoiLVUlJK81I_SOHN8t60Y97wDGLqKyRx2qgU4jzgey3HEAHPYQJZuOctn7-npeB65p4VjRccNMPMErhsEU52QLnopm_1uRxYxi_8u7zkI2dhexRO6MgpvRIQbNWjyq1po8rhLMGcvZYQxhoUUeolXckOZ8bBL42wRV5AwTNpjUw
p1589
sVwidth
p1590
I2048
sVhtml_attributions
p1591
(lp1592
V<a href="https://plus.google.com/107703067300113514526">Cornelius O&#39;Leary Jr</a>
p1593
asVheight
p1594
I1361
sa(dp1595
Vphoto_reference
p1596
VCnRqAAAATz4Nbfe_z8oVsd-t1Sst38awnYyeI4uGbrQ1JRF5LRFgUKaiUXHVVQED8BChrtDy64if1Vm6ajmOkUSNE3WbXH2zUl4fuZJXp69N5JnDFnPXl_UXDaVViPo01zNvfItC3SlW0fhxD3SJqDbTdpd0qxIQEMSEM7WxMS-3YPLJiERNkRoUpwW11ifYk8PReZW8o5O1q8POd7U
p1597
sVwidth
p1598
I2048
sVhtml_attributions
p1599
(lp1600
V<a href="https://plus.google.com/107703067300113514526">Cornelius O&#39;Leary Jr</a>
p1601
asVheight
p1602
I1361
sa(dp1603
Vphoto_reference
p1604
VCnRqAAAAuAUEe6nPZvP_78XQuv88WB09WcDfZdSbqUK_F01M9lx_XPOWWcL8sM_dn0LBXBY_n7oFUledd7zySxOyBBjz_KGRKJy-z-uump74ozPXa7sykvjsn8tmZ-SBQqAJV8lii_QICkKnyvylCJz1ZME8MBIQgC4vUcsW-5p4wV_LABBR2xoUK9-Bn9lhLbkJ6FTK_ln6wjuQr9I
p1605
sVwidth
p1606
I2048
sVhtml_attributions
p1607
(lp1608
V<a href="https://plus.google.com/107703067300113514526">Cornelius O&#39;Leary Jr</a>
p1609
asVheight
p1610
I1361
sa(dp1611
Vphoto_reference
p1612
VCnRqAAAAH_3Pf3Ra-nlRoPBysF_To4Sdu5ZEOXjUHkEILZPlAMIalH4JGhmzrcyHD9kJc5WPS3b01NW35jSWGIQWPbS2YOsObajJi3h9Vi1BHRgGX5kmBSTykn1AUwnVUWeoAXKvWfDORtzujZTthhDQ9-cf2xIQjPE882_HOa7O6S592_S-ZxoUbDVNLeD_NOQ97IWMB3BBloBN1wY
p1613
sVwidth
p1614
I2048
sVhtml_attributions
p1615
(lp1616
V<a href="https://plus.google.com/107703067300113514526">Cornelius O&#39;Leary Jr</a>
p1617
asVheight
p1618
I1361
sa(dp1619
Vphoto_reference
p1620
VCnRqAAAA2jPDkVnMYsQ3gHKjEFQ0cQqpkwgni44M6AWNQeAuAYQtf7Y_ScIKqvgUoWpiDGtBlJN3RBKzUiag-I5aAAb-LvOhY0wmOSx8eIVVPJGxDNV3qiTinkBctnNauY0K_vVXsK_SpoXKAUOLa7GEhdvENBIQ8eqkkuoGcKFCwaeMBEGE-BoU4xSTHylah625QW6rAoB9KvRoJe4
p1621
sVwidth
p1622
I2048
sVhtml_attributions
p1623
(lp1624
V<a href="https://plus.google.com/107703067300113514526">Cornelius O&#39;Leary Jr</a>
p1625
asVheight
p1626
I1361
sa(dp1627
Vphoto_reference
p1628
VCnRqAAAAyhSeY5tLiVzrNly_DHJIfhBTt_duSthu-WFOlGLd-DTKZUSzTamk58pmnM-ab7IX1O83aaLoAFfVtPbf589hdV2aAhYqotBEdMHdVRfm4YWAprW8WPe0ONFispDwO_UVerUmZjmvugtE8nzW5Dt3ThIQguxrainBC_UTQ-ST76xu_BoUZKYPlzyDIaC1UvlLFKM8G8hQaNw
p1629
sVwidth
p1630
I2048
sVhtml_attributions
p1631
(lp1632
V<a href="https://plus.google.com/107703067300113514526">Cornelius O&#39;Leary Jr</a>
p1633
asVheight
p1634
I1361
sasVtypes
p1635
(lp1636
Vmuseum
p1637
aVestablishment
p1638
asVicon
p1639
Vhttp://maps.gstatic.com/mapfiles/place_api/icons/museum-71.png
p1640
sVname
p1641
Vde Young Museum
p1642
sVgeometry
p1643
(dp1644
Vlocation
p1645
(dp1646
Vlat
p1647
F37.771517
sVlng
p1648
F-122.468733
sssVadr_address
p1649
V<span class="street-address">50 Hagiwara Tea Garden Dr</span>, <span class="locality">San Francisco</span>, <span class="region">CA</span> <span class="postal-code">94118</span>, <span class="country-name">United States</span>
p1650
sVinternational_phone_number
p1651
V+1 415-750-3600
p1652
sVreviews
p1653
(lp1654
(dp1655
Vrating
p1656
I5
sVaspects
p1657
(lp1658
(dp1659
Vrating
p1660
I3
sVtype
p1661
Voverall
p1662
sasVlanguage
p1663
Ven
p1664
sVtext
p1665
VGreat collection of American Art, fantastic location and fun place to visit.  Shows change regularly, the permanent collection of glass, silver and furniture on the second floor is not to be missed. You can take the elevator to the top floor tower and see a 360 degree view of Golden Gate Park, The GG Bridge and all the neighborhoods surrounding the park.  Wonderful gardens around the museum too.  The cafe is super, lots of choices and fast, friendly service; dine inside or take your food to the lovely outdoor tables.  
p1666
sVauthor_name
p1667
VYoni Mayeri
p1668
sVauthor_url
p1669
Vhttps://plus.google.com/105820450885180571966
p1670
sVtime
p1671
I1412362196
sa(dp1672
Vrating
p1673
I5
sVaspects
p1674
(lp1675
(dp1676
Vrating
p1677
I3
sVtype
p1678
Voverall
p1679
sasVlanguage
p1680
Ven
p1681
sVtext
p1682
VI have been to a few major exhibits at this museum and I have to say that it is probably my favorite art museum in San Francisco. The staff here does a great job of presenting their classic collection along with an incredible mixture of popular exhibits and temporary installations that very confidently speak to the zeitgeist of the city. This is an amazing accomplishment. Consider how difficult this must be in a city as cool in San Francisco. But with things like the Warhol exhibit and the Jean Paul Gaultier design timeline tour, the DeYoung maintains its place at the pinnacle of the hyper-cool. Having met the people that work there I can also say that they are truly passionate about translating the method, practice, value, and study of art to their community. This is visible in the balance of fun to academic observation and analysis they have in every showing. There is something here for everyone and it's very presentation and curation is art of an incredible caliber. I could go on.....
p1683
sVauthor_name
p1684
VMisha Metrikin
p1685
sVauthor_url
p1686
Vhttps://plus.google.com/114890117672430115819
p1687
sVtime
p1688
I1413260271
sa(dp1689
Vrating
p1690
I4
sVaspects
p1691
(lp1692
(dp1693
Vrating
p1694
I2
sVtype
p1695
Voverall
p1696
sasVlanguage
p1697
Ven
p1698
sVtext
p1699
VWas lucky enough to visit the O'Keefe exhibit earlier this year and this is museum going at its finest (helped by the fact that the SF MoMa is closed for the next two years so options are currently slim).\u000aOnly giving it four stars since at $25 a pop for admission, this place isn't exactly a bargain. \u000aMake time to visit the Japanese Tea Garden next door and also be sure to go up to the viewing floor for unmatched views of the Presidio and Golden Gate Park.
p1700
sVauthor_name
p1701
VElmer Ayala
p1702
sVauthor_url
p1703
Vhttps://plus.google.com/103969904087092883134
p1704
sVtime
p1705
I1413179353
sa(dp1706
Vrating
p1707
I5
sVaspects
p1708
(lp1709
(dp1710
Vrating
p1711
I3
sVtype
p1712
Voverall
p1713
sasVlanguage
p1714
Ven
p1715
sVtext
p1716
VThe de Young is a beautiful and modern museum. Highly recommended; houses a full collection of African art, Native American textiles, modernism, and more. The tower in the de Young also offers access to an expansive view of both Golden Gate Park and the city.
p1717
sVauthor_name
p1718
VJoyce Tang
p1719
sVauthor_url
p1720
Vhttps://plus.google.com/101092365012450853182
p1721
sVtime
p1722
I1414996654
sa(dp1723
Vrating
p1724
I4
sVaspects
p1725
(lp1726
(dp1727
Vrating
p1728
I2
sVtype
p1729
Voverall
p1730
sasVlanguage
p1731
Ven
p1732
sVtext
p1733
VI just visited this place today with my mom, and it was an overall great place. There were lots of beautiful and winsome pieces...just exquisite. I learned about different cultures(European, African, and Native American). As being a person of color, I was being observed more than others, and the security was always following me(it's not even unusual anymore). My mom had to file a complaint about one of the security guards. All he had to do was politely tell my mom to stand farther away from the picture(which had no borders around it), but no...he felt like he had to raise his voice at her, and looked like he was going to touch her. He made it seem like everybody in the entire museum had to hear what was going on..which wasn't even necessary.Supposedly, this same security guard has gotten other complaints, so I hope he gets fired. I had people follow me the whole time I was there. At the end of my day there, we went to that little workshop area, where you could design some little postcard, with anything you wanted(paint, stitch,print, etc). That was really fun. The lady there, will make a collage out of all them...I can't wait to see it. Mine is the one that says,"K-pop 4 Life". So if you go there...please design one too. 
p1734
sVauthor_name
p1735
VLucky Charm
p1736
sVauthor_url
p1737
Vhttps://plus.google.com/105877178219911752867
p1738
sVtime
p1739
I1410070211
sasVformatted_phone_number
p1740
V(415) 750-3600
p1741
sVaddress_components
p1742
(lp1743
(dp1744
Vlong_name
p1745
V50
p1746
sVtypes
p1747
(lp1748
Vstreet_number
p1749
asVshort_name
p1750
V50
p1751
sa(dp1752
Vlong_name
p1753
VHagiwara Tea Garden Dr
p1754
sVtypes
p1755
(lp1756
Vroute
p1757
asVshort_name
p1758
VHagiwara Tea Garden Dr
p1759
sa(dp1760
Vlong_name
p1761
VSan Francisco
p1762
sVtypes
p1763
(lp1764
Vlocality
p1765
aVpolitical
p1766
asVshort_name
p1767
VSF
p1768
sa(dp1769
Vlong_name
p1770
VCalifornia
p1771
sVtypes
p1772
(lp1773
Vadministrative_area_level_1
p1774
aVpolitical
p1775
asVshort_name
p1776
VCA
p1777
sa(dp1778
Vlong_name
p1779
VUnited States
p1780
sVtypes
p1781
(lp1782
Vcountry
p1783
aVpolitical
p1784
asVshort_name
p1785
VUS
p1786
sa(dp1787
Vlong_name
p1788
V94118
p1789
sVtypes
p1790
(lp1791
Vpostal_code
p1792
asVshort_name
p1793
V94118
p1794
sassba(ispot
Spot
p1795
(dp1796
g3
Nsg4
(dp1797
Vwebsite
p1798
Vhttp://sfrecpark.org/destination/telegraph-hill-pioneer-park/coit-tower/
p1799
sVrating
p1800
F4.1
sVutc_offset
p1801
I-480
sVuser_ratings_total
p1802
I438
sVname
p1803
VCoit Tower
p1804
sVreference
p1805
VCnRkAAAABsyLFQ8xaXNyuJoXBWkV2sgpRdbvLes81akBi5NjJsRquCk7hH4ILDWlLO1t88n-1Mgz_4yOdiwt5RDk6O619HRHiqJ65Pbqdr7eODnTmMfH37C0Rnkv9oVeXUCmMkFTp7yLxKT5WIN38TyKtR0V0BIQOPCNAZ2fHM8vTpZoL4qHeBoUGNdz43S9ee-M1YiM5xL0DHvh934
p1806
sVgeometry
p1807
(dp1808
Vlocation
p1809
(dp1810
Vlat
p1811
F37.802395
sVlng
p1812
F-122.405822
sssVadr_address
p1813
V<span class="street-address">1 Telegraph Hill Blvd</span>, <span class="locality">San Francisco</span>, <span class="region">CA</span> <span class="postal-code">94133</span>, <span class="country-name">United States</span>
p1814
sVplace_id
p1815
VChIJAQAAQIyAhYARRN3yIQG4hd4
p1816
sVvicinity
p1817
V1 Telegraph Hill Blvd, San Francisco
p1818
sVreviews
p1819
(lp1820
(dp1821
Vrating
p1822
I4
sVaspects
p1823
(lp1824
(dp1825
Vrating
p1826
I2
sVtype
p1827
Voverall
p1828
sasVlanguage
p1829
Ven
p1830
sVtext
p1831
VCoit tower has recently undergone some renovations.  (Thanks National Trust for Historic Preservation)   The WPA murals on the ground floor are freshly cleaned, and present interesting visions of life in the 1930's SF.   The stairs are out of commission, so you have to take the small elevator up.   The views are spectacular, particularly on a clear day.  The view from the ground level parking area is also not bad.   On the way down,  try the steps toward the Embarcadero,  very great insights into lush backyards.
p1832
sVauthor_name
p1833
VAnna Hautzinger
p1834
sVauthor_url
p1835
Vhttps://plus.google.com/116136613716129316971
p1836
sVtime
p1837
I1415218790
sa(dp1838
Vrating
p1839
I4
sVaspects
p1840
(lp1841
(dp1842
Vrating
p1843
I2
sVtype
p1844
Voverall
p1845
sasVlanguage
p1846
Ven
p1847
sVtext
p1848
VAn understated icon of San Francisco. Perched on a rocky hill in the middle of the city's core, this art deco styled tower has impressive views from both it's base and it's viewing platform. Well worth the hike up the hill. Parking anywhere nearby is not going to happen, so take that into account.
p1849
sVauthor_name
p1850
VTyler Harding
p1851
sVauthor_url
p1852
Vhttps://plus.google.com/110357160824479158301
p1853
sVtime
p1854
I1412053153
sa(dp1855
Vrating
p1856
I4
sVaspects
p1857
(lp1858
(dp1859
Vrating
p1860
I2
sVtype
p1861
Voverall
p1862
sasVlanguage
p1863
Ven
p1864
sVtext
p1865
VAlthough no amazing heights, it's worth a trip if visiting SF.  Tickets are inexpensive and usually a short wait for the elevator ride up.  The inside at the bottom of the tower has beautifully painted murals and the gift shop has all the typical touristy stuff (mugs, maps, shirts, etc).  Depending on your journey to the tower, you can walk to the steep hill from North Beach for added exercise.  \u000aAnd the view from the top is nice, provided it's a clear day!  Pretty small, so be prepared to share windows to look out.
p1866
sVauthor_name
p1867
VLauren Pinheiro
p1868
sVauthor_url
p1869
Vhttps://plus.google.com/106990768782331898857
p1870
sVtime
p1871
I1400785941
sa(dp1872
Vrating
p1873
I5
sVaspects
p1874
(lp1875
(dp1876
Vrating
p1877
I3
sVtype
p1878
Voverall
p1879
sasVlanguage
p1880
Ven
p1881
sVtext
p1882
VToughed it up the stairs. Enjoyed the view from the base and the stiff breeze. Didn't bother to go to the top. 
p1883
sVauthor_name
p1884
VYvette Skinner
p1885
sVauthor_url
p1886
Vhttps://plus.google.com/116618204309104641755
p1887
sVtime
p1888
I1414728878
sa(dp1889
Vrating
p1890
I5
sVaspects
p1891
(lp1892
(dp1893
Vrating
p1894
I3
sVtype
p1895
Voverall
p1896
sasVlanguage
p1897
Ven
p1898
sVtext
p1899
VOne of, if not best view of city skyline along with both bridges(if no fog, of course) saw one of last full moon eclipses there years ago. Magical it lasted so long. Got a good contact high, too. No rag-weed, for sure.
p1900
sVauthor_name
p1901
VRaymond Alvarez
p1902
sVauthor_url
p1903
Vhttps://plus.google.com/113755175842025386880
p1904
sVtime
p1905
I1405827204
sasVphotos
p1906
(lp1907
(dp1908
Vphoto_reference
p1909
VCnRoAAAA4d3wcSx8vijGyFBVz-_6lYSl3er4cWXSGWIu6C_PSmImE5qJFpgE2Ktf3tgIf5SOIvXRRMAdRyradifVeDpGpKLTfJbEf2hvspKFIYr1Ue8fY0qbmQChtuZPjPCHs9c4URzKRoCpBBS8VKSV4Y5GVRIQ7d7BUqVNEHeOdp9lImATIhoUBRlN4A6kugf35tsqtN8ru5mrUfs
p1910
sVwidth
p1911
I1268
sVhtml_attributions
p1912
(lp1913
V<a href="https://plus.google.com/116596226154549124014">Kee Wook Lee</a>
p1914
asVheight
p1915
I947
sa(dp1916
Vphoto_reference
p1917
VCnRqAAAAQgVkYYCFw7uwzpSEkETNHdCja_8RXF6k8XnnjRrlU1H8swHZv5O4BsUOB5GfZ_9BuEkQS6BbayHslwoXme6KVpTK_AMftof3hOaH2U4wYa3Zveh7No6WwvM1RvWBtDP1xyArm1KwFDFMbSr-N4Fo3hIQEVbm755BbZhUdmcPmoObLBoUWHwnvUSM2z24Y3dhWYntbp21704
p1918
sVwidth
p1919
I768
sVhtml_attributions
p1920
(lp1921
VFrom a Google User
p1922
asVheight
p1923
I1024
sa(dp1924
Vphoto_reference
p1925
VCnRlAAAAseqj10H6MZPmjdwzdiwGaXIycMBNqTaFMR6qqrKpYfVNlNdGPd1-BbXSCva5XmtoMklhr-ka3NKnaRwzjDE6tnBM1PcBsuDRa8Vl6LFc4rjrhPUG0MTxvjgam4po_8bFVXW1rrzjXrPIxBeOOHy2IRIQdFEoXBEY3Iyyhs1BnrqhixoUqfWbAhuq0hysS8htQUVSBz7VBdg
p1926
sVwidth
p1927
I4608
sVhtml_attributions
p1928
(lp1929
V<a href="https://plus.google.com/113186450052791933529">Joseph D&#39;Angelo</a>
p1930
asVheight
p1931
I3456
sa(dp1932
Vphoto_reference
p1933
VCnRqAAAAI2m-Fi4L-wLryUzSeTQ8Dxk10wif0DxQVHd15lzpzYfTriB9I10vvZQF0Opkpgkr5P2QBLkFocJLeHIVXHI4ZMdRm6cx7SIxVrIEHAv1qBCSR2erMLsLvLaXPf4N1nHxWWZqIThfmjPsltzLlvkzpRIQWWHOYoDBb2H2LDsRvXF8SRoUQ6Lr13N_5SORGDqRsQEiTnkRF5c
p1934
sVwidth
p1935
I1296
sVhtml_attributions
p1936
(lp1937
V<a href="https://plus.google.com/114529464953149651619">Kim Nath</a>
p1938
asVheight
p1939
I776
sa(dp1940
Vphoto_reference
p1941
VCpQBigAAAKf157S9jFHEpwK46f3uYDHiUiJ5yVk4TRsHmf5ZFKReB5Gfol5UlNlKBv93dXFfBPQjHKdHMHChy6fZVd2tEFfIGslyG2Hecv28_ls7iBIOzOasjrr2G7w-2KiptJ9GYvF3ybRZIkKAUpr7M1nlwYshpxr7YVkbrV00cWrqVZ9g2rYU_tr83CwSD7rkfPDOghIQTnUHA1CiX1Nj86NLxLE5tBoUQFbpfKYovCWFUSbpQkVbiN8Y728
p1942
sVwidth
p1943
I2048
sVhtml_attributions
p1944
(lp1945
V<a href="https://plus.google.com/102156534886423108007">Peter Rehberg</a>
p1946
asVheight
p1947
I1362
sa(dp1948
Vphoto_reference
p1949
VCnRqAAAA5H_pAN7djbgZ9ZYnxO54N46pDDO8UbgGH2JIIDrdVLKT1i95AzVubDe0nSjvJtJHA_tzAKaEZrTWlcI85LwCAUYeUU1TfItnEKxKW3LD6kHi-2LdkBZ0Od_M8Bo6g1jScN2oi9PGv2jsIl5N2ERamxIQ6X-sPrOMU3SNulPJhzngARoUuc_uWJlxCBmhybBKrYlFmEv2aTo
p1950
sVwidth
p1951
I768
sVhtml_attributions
p1952
(lp1953
V<a href="https://plus.google.com/108274069435520984069">cesar maldonado</a>
p1954
asVheight
p1955
I1024
sa(dp1956
Vphoto_reference
p1957
VCuQB1wAAAOy3iMj4DHmLvzXJsmgn66tVy4LrHtg1LDIOtqdQmGs7GfAL9Gc5pHsTZ5VVIanjxJ1DbrXZLqHYbObjpWU-amiLUdir7hUiStbN82ouEqRUYKsUsgbHsFcoZ-NlkQYAvDrym4gcwSVr58KlN7i-ZlIRGZe3TIrqaItkl0fvFhhpq9nWI98dkbjj9Ig744CEYf_kZ6ICtBNteEd9rhlAgX2hGZpPW_NQhqveKiHZZsJ_R5qChPuWvihUOo_lPxkJqLRclNk2CwHShrNSuyebneslv9skCcNUOLADHrWJk70XEhAdpIxsQFCRohFtaoRu-V1ZGhSgqniwiwCO_d3Q4fsXeQDGJcOW_w
p1958
sVwidth
p1959
I1866
sVhtml_attributions
p1960
(lp1961
V<a href="https://plus.google.com/113837235805581391057">P Kusserow</a>
p1962
asVheight
p1963
I2048
sa(dp1964
Vphoto_reference
p1965
VCnRoAAAAaSmYLPn7HBFhVd2oUnAUZOqM3_bJgD2sriWB5MCLouStkEwkuqqlscnYlMYJTRidVJkh8WXbZnMZ5G9vFy_QwTZtEh0BbCxbnlw2_ozqicL-vDsTpTL-ivV0PeUpo54F4hjFTmTLTZHtANm781UyrRIQZfkmQWmp8McAcrstyX7c6hoUA7WkSmrR8LkSZ2-F1ssM2wnF1OY
p1966
sVwidth
p1967
I949
sVhtml_attributions
p1968
(lp1969
V<a href="https://plus.google.com/108568994711421183759">Harish S</a>
p1970
asVheight
p1971
I1265
sa(dp1972
Vphoto_reference
p1973
VCrQBowAAAGbOFElPny50J13-9B0KPOg3k4hC2H5wn1JlVCwuBpk8pAmef754SLRn5HJ_Do0-6uNjy7Xbwa3RqRhbRFm3nUXQAv9SjtMsT2Fs-NLcvWUA03uU2rAuVEP8OI8WOfrRFgjEt-p3_jcNzaOv9RBHYKXtSV5_PJlDqXazl9yEHiZhFyQ8BMlduKha_rQ1MlLpSM20psNp-PhoPHhIBlw6Q7QfLlKtq_87m4HRrapFaFHDEhDQjD1cJi4vmsHbWo42d7ATGhTIo4cBytvH6Ht6TP3ED0z0hUipAg
p1974
sVwidth
p1975
I2048
sVhtml_attributions
p1976
(lp1977
V<a href="https://plus.google.com/104908431756212890221">Jay E. Jenkins</a>
p1978
asVheight
p1979
I1468
sa(dp1980
Vphoto_reference
p1981
VCnRsAAAA-KIucIE91nKwQ8fBjjB-mlADmf07uQxsD71lkZgx2XzkLG4eTbjd2vcvyTzHEIDD80TrYk1SOUptSBiQAsiw0J6WZgP3bLcrq9UAADdN-Njul3zGD3i8XUmGueh3wi_bEPEl8LmbWmd-CS0SYQfQBxIQhjaM1UHhAfmtweeFF8bmaBoUR736DIiyrBVRgvjSdPgpoCDgWas
p1982
sVwidth
p1983
I512
sVhtml_attributions
p1984
(lp1985
V<a href="https://plus.google.com/106558039864076309587">Fototaker Sf</a>
p1986
asVheight
p1987
I768
sasVurl
p1988
Vhttps://plus.google.com/101183959756635433266/about?hl=en-US
p1989
sVscope
p1990
VGOOGLE
p1991
sVaddress_components
p1992
(lp1993
(dp1994
Vlong_name
p1995
V1
p1996
sVtypes
p1997
(lp1998
Vstreet_number
p1999
asVshort_name
p2000
V1
p2001
sa(dp2002
Vlong_name
p2003
VTelegraph Hill Blvd
p2004
sVtypes
p2005
(lp2006
Vroute
p2007
asVshort_name
p2008
VTelegraph Hill Blvd
p2009
sa(dp2010
Vlong_name
p2011
VSan Francisco
p2012
sVtypes
p2013
(lp2014
Vlocality
p2015
aVpolitical
p2016
asVshort_name
p2017
VSF
p2018
sa(dp2019
Vlong_name
p2020
VCalifornia
p2021
sVtypes
p2022
(lp2023
Vadministrative_area_level_1
p2024
aVpolitical
p2025
asVshort_name
p2026
VCA
p2027
sa(dp2028
Vlong_name
p2029
VUnited States
p2030
sVtypes
p2031
(lp2032
Vcountry
p2033
aVpolitical
p2034
asVshort_name
p2035
VUS
p2036
sa(dp2037
Vlong_name
p2038
V94133
p2039
sVtypes
p2040
(lp2041
Vpostal_code
p2042
asVshort_name
p2043
V94133
p2044
sasVformatted_address
p2045
V1 Telegraph Hill Blvd, San Francisco, CA 94133, United States
p2046
sVid
p2047
Vb29bfcfc1c01d4fb92de2cb3e5bc1c18fc3fb446
p2048
sVtypes
p2049
(lp2050
Vestablishment
p2051
asVicon
p2052
Vhttp://maps.gstatic.com/mapfiles/place_api/icons/generic_business-71.png
p2053
ssba(ispot
Spot
p2054
(dp2055
g3
Nsg4
(dp2056
Vrating
p2057
F4.4
sVreference
p2058
VCoQBdwAAANm1a19DvXgcPOrmAjVr4KiHq-hPP99Ytl1P_Es_wv-Qi5owgtfc22q7PU71r2EcAsQpCxpYo5VmYsZc02SnYjwFF51D20VlYFjPbCVSrf7ZObdykdeFCQmMfNr9MjyoTSc3FSNSLqueNvvpDWYN-CH1_kzKSZcv4_j97vhEf-mUEhBXoR6C-IVUuWamFGXNeMadGhS5MM3UpiAToPKNpgYy_jUXEabGXw
p2059
sVprice_level
p2060
I3
sVplace_id
p2061
VChIJIUT7rEOHhYARucp3wM-HhBs
p2062
sVurl
p2063
Vhttps://plus.google.com/116851551368109810342/about?hl=en-US
p2064
sVformatted_address
p2065
V55 Music Concourse Dr, San Francisco, CA 94118, United States
p2066
sVid
p2067
Vd920c64674d4af2f684358adccbdf3f04eb70002
p2068
sVopening_hours
p2069
(dp2070
Vweekday_text
p2071
(lp2072
VMonday: 9:30 am \u2013 5:00 pm
p2073
aVTuesday: 9:30 am \u2013 5:00 pm
p2074
aVWednesday: 9:30 am \u2013 5:00 pm
p2075
aVThursday: 9:30 am \u2013 5:00 pm
p2076
aVFriday: 9:30 am \u2013 5:00 pm
p2077
aVSaturday: 9:30 am \u2013 5:00 pm
p2078
aVSunday: 11:00 am \u2013 5:00 pm
p2079
asVopen_now
p2080
I00
sVperiods
p2081
(lp2082
(dp2083
Vclose
p2084
(dp2085
Vday
p2086
I0
sVtime
p2087
V1700
p2088
ssVopen
p2089
(dp2090
Vday
p2091
I0
sVtime
p2092
V1100
p2093
ssa(dp2094
Vclose
p2095
(dp2096
Vday
p2097
I1
sVtime
p2098
V1700
p2099
ssVopen
p2100
(dp2101
Vday
p2102
I1
sVtime
p2103
V0930
p2104
ssa(dp2105
Vclose
p2106
(dp2107
Vday
p2108
I2
sVtime
p2109
V1700
p2110
ssVopen
p2111
(dp2112
Vday
p2113
I2
sVtime
p2114
V0930
p2115
ssa(dp2116
Vclose
p2117
(dp2118
Vday
p2119
I3
sVtime
p2120
V1700
p2121
ssVopen
p2122
(dp2123
Vday
p2124
I3
sVtime
p2125
V0930
p2126
ssa(dp2127
Vclose
p2128
(dp2129
Vday
p2130
I4
sVtime
p2131
V1700
p2132
ssVopen
p2133
(dp2134
Vday
p2135
I4
sVtime
p2136
V0930
p2137
ssa(dp2138
Vclose
p2139
(dp2140
Vday
p2141
I5
sVtime
p2142
V1700
p2143
ssVopen
p2144
(dp2145
Vday
p2146
I5
sVtime
p2147
V0930
p2148
ssa(dp2149
Vclose
p2150
(dp2151
Vday
p2152
I6
sVtime
p2153
V1700
p2154
ssVopen
p2155
(dp2156
Vday
p2157
I6
sVtime
p2158
V0930
p2159
ssassVvicinity
p2160
V55 Music Concourse Dr, San Francisco
p2161
sVscope
p2162
VGOOGLE
p2163
sVwebsite
p2164
Vhttp://www.calacademy.org/
p2165
sVutc_offset
p2166
I-480
sVuser_ratings_total
p2167
I621
sVphotos
p2168
(lp2169
(dp2170
Vphoto_reference
p2171
VCnRnAAAAphBfJleDIEekFOA1_ODSWQm7EAYKBFjnzb6fwqBfnImfTX_7UETwrnHIgLJyGjG_rMQ9eMNkOWUVbXGEmzcyxpN_Weh1-jmGrWczq3yUf3H1WgBxvQJSUR059yRYK9hJ9rWSMUlgn_toG9DSk9wa8RIQICv2kIrzu_tEiO9bDXuBVBoUpMzf2zWcV74KDew-r_x75RkpNhk
p2172
sVwidth
p2173
I640
sVhtml_attributions
p2174
(lp2175
sVheight
p2176
I427
sa(dp2177
Vphoto_reference
p2178
VCnRnAAAA-Ax-s2GKW7oTpEE8Dl3fXl8kmzA6_hn_8YD1CUzjgYJDV7yTer3fmT6mlyG8z6P-F94BnTveu9YGuD74CrocPmbMwJjR5GRGzX4Kd34n3Wnj9tfs_Q3KLoVGtOkabEyPUWpnnAcgzkskcTZNrlwH-RIQOf6TJmbGP9JRxZvk0d7UZBoUFYV-P5X6kuQvJGRIz9bqZZpYtuw
p2179
sVwidth
p2180
I482
sVhtml_attributions
p2181
(lp2182
sVheight
p2183
I640
sa(dp2184
Vphoto_reference
p2185
VCnRnAAAAgCsuUA7FjJvEtLHHSPZ7cyIt7orjZo2Zf7hpwxrpErV-tsgQ2aemJGiaattZ_VZewDfu-cGiG45GFhaoYUuLSQ9J4R0JRIUmcaimGg4BZuLrlN1TVIwpe2OfuX1aD9NvMOoXuRcZGgFup-bzNHwB1BIQkUiCXAud1QCSMx0u0OvpTBoUKCxnCxxlcPYJKyi0Vs6ybHPvieI
p2186
sVwidth
p2187
I640
sVhtml_attributions
p2188
(lp2189
sVheight
p2190
I427
sa(dp2191
Vphoto_reference
p2192
VCnRnAAAAptyPeZV--mK_HfQ0m32b6SlruSVcY70TKGxAoedIjiNWF6OppTTelVyD_126Ovmyg5WPEKusuxAwx1ag61UGYUNmcZ_L9C3BeIrZhtPc4jfjWzrPXAh_H6CKrMdyP5vzAbg7J97K3ysOo9JcgfDBvBIQotJEbdG81DlRSHoXssGBXRoUijhzhZnpzHS5eHBCaFFv4lgkYXU
p2193
sVwidth
p2194
I640
sVhtml_attributions
p2195
(lp2196
sVheight
p2197
I427
sa(dp2198
Vphoto_reference
p2199
VCnRnAAAAYyO3rtirf9BvHpvs5e0mJVNAN1F08mMFw7JZRy-GZHWScXqEsAdyTr4duCjI4MhQXpTDDMGliABCiQRbsv4RnO31naQXnEWwy5Q3SKiG8yH-BKbbmWtu1aA80y_p6oHRU0IAkPwweIeeh-2tseMZ1hIQrii7Ufa_K6M0fP0I5mzngxoURAGh2dJJdfxNhsE0Qc5q1q7EaW0
p2200
sVwidth
p2201
I640
sVhtml_attributions
p2202
(lp2203
sVheight
p2204
I457
sa(dp2205
Vphoto_reference
p2206
VCnRnAAAAQJDOQ6VGE4Woi33ekxsNvIbOfzkynpSzi-WkedpOMiJcVvHQyU6ZJ_MV3-pERKbXb_kXjPdEv-6xvFnN848YxuA99p1c-BQWwHvFOJJlfzlnN3WBHo0jZICrjjNoTA3e3yzhG4crlhz_4aNsvItmPBIQ6RInnVop1qUYqgqqRcQ_rhoU4fq2rW_hd1_yL1vBLIgynTodDvE
p2207
sVwidth
p2208
I640
sVhtml_attributions
p2209
(lp2210
sVheight
p2211
I480
sa(dp2212
Vphoto_reference
p2213
VCnRnAAAAZcoYSeE9d6eUq7sTan1QJ5XuB5EL9s2vwZsl__sAq6f2tfxkGWayLuwemx9vyVFWWgh_Akq3JHN0OTuZAXZ3flOzFBQvyajtd4LYhzh6x9CrLvUmKRs7rQGLTXwRCCp6Yd25b9LEmO7yhU-y3Fy3JRIQgsDXShZpU5XBwI3ahNyWxhoUf4UVuCSH3d-d5X5_tOKMJ3H10iA
p2214
sVwidth
p2215
I562
sVhtml_attributions
p2216
(lp2217
sVheight
p2218
I640
sa(dp2219
Vphoto_reference
p2220
VCnRnAAAAfdrw27nB8_PXVKK4umEYRG7d9KVECEyogS_vt6KJVaAJjvIUwGGv71aoKVYusUXPBJVAsQNLFDXfAtekjUVJ2nVyC-DMhBFXoRl4QHtVxiFrnigTUwBk29B0SGmm-Mg-nZGw-MFjZGPXFTsQE4m8hBIQnQlpO-FCOHwjA_V37L1WYhoUsOISoZ4VT-ygYoPyiXjPR8JMC3k
p2221
sVwidth
p2222
I640
sVhtml_attributions
p2223
(lp2224
sVheight
p2225
I443
sa(dp2226
Vphoto_reference
p2227
VCnRqAAAA4loB8tZGdUC_XYIDuzCE-awasVTNhCwDUQqX67XuNmvhov7IHvr1ct9NmjHWbzA8TzT9YyovPU8Yhi7kheFi3KlU_5V7lzaYLX10niaXqqnjUgW0qRDiLpFwvH_dlmVf34sGP3RGtYFEK7N28ANFGxIQLCFcO1ZxKXf-3I4nLWQpWBoUmKNBL-SsGruYv00mRJDd26qYfSU
p2228
sVwidth
p2229
I2048
sVhtml_attributions
p2230
(lp2231
V<a href="https://plus.google.com/104847770319584345133">Shiraz Siddiqui</a>
p2232
asVheight
p2233
I1536
sa(dp2234
Vphoto_reference
p2235
VCnRmAAAAxEU_cErWjoNnVBZb30KcPvwZjdO0cUlnqks-zCsHEcyt3mgScioxA9tbEl5O12F8n_IyDSUgPGYBF4hHAyW8D8tzXVIM4QQlddbZ3cHU-jAqqDhm0xr90H0sGxXf967J0HP33kQOstpgryOvTd7y8BIQ2az5FNmNODwgMeryzig0uxoUJOuRMXNamf750ASeToAUxRfn1zE
p2236
sVwidth
p2237
I533
sVhtml_attributions
p2238
(lp2239
V<a href="https://plus.google.com/116600105708585783882">Edwin Ragadio</a>
p2240
asVheight
p2241
I400
sasVtypes
p2242
(lp2243
Vaquarium
p2244
aVmuseum
p2245
aVestablishment
p2246
asVicon
p2247
Vhttp://maps.gstatic.com/mapfiles/place_api/icons/aquarium-71.png
p2248
sVname
p2249
VCalifornia Academy of Sciences
p2250
sVgeometry
p2251
(dp2252
Vlocation
p2253
(dp2254
Vlat
p2255
F37.769865
sVlng
p2256
F-122.466095
sssVadr_address
p2257
V<span class="street-address">55 Music Concourse Dr</span>, <span class="locality">San Francisco</span>, <span class="region">CA</span> <span class="postal-code">94118</span>, <span class="country-name">United States</span>
p2258
sVinternational_phone_number
p2259
V+1 415-379-8000
p2260
sVreviews
p2261
(lp2262
(dp2263
Vrating
p2264
I4
sVaspects
p2265
(lp2266
(dp2267
Vrating
p2268
I2
sVtype
p2269
Voverall
p2270
sasVlanguage
p2271
Ven
p2272
sVtext
p2273
VThe Academy of sciences has an amazing aquarium complex that takes a long time to explore and see completely. The layout can be a bit confusing at first, but the high quality exhibits and the signage help. I really like their super small mini aquarium showcasing one tiny type of shrimp or crab, they are very detailed and neat.\u000aTheir biosphere/dome is really cool too, it has a lot to see and spend time in. It's a one way trip: when you get in, you look at things, walk to the top, and take an elevator to exit into the aquarium.\u000aI expected more hands-on things but I guess that's for the Exploratorium.\u000aTheir planetarium, while limited in seats (get a pass as soon as you arrive!) is cool. \u000aI went for the 21+ Thursday night events, which are great, and with a theme, but get very very crowded.
p2274
sVauthor_name
p2275
VJulian Fessard
p2276
sVauthor_url
p2277
Vhttps://plus.google.com/112118270664425522168
p2278
sVtime
p2279
I1412989932
sa(dp2280
Vrating
p2281
I5
sVaspects
p2282
(lp2283
(dp2284
Vrating
p2285
I3
sVtype
p2286
Voverall
p2287
sasVlanguage
p2288
Ven
p2289
sVtext
p2290
VUPDATING TO 5 stars!!!\u000aGot to go here for a city experts event... it was amazing! We got to listen to the tank diver talk about the awesome reef tank, and the older lady docent was awesome about telling us about all the fish and the alligators. Now that I'm expecting I can't wait to take my daughter here to watch all the fish swim by in the tanks, then travel to african savanna and see the zebras\u000a\u000aPrevious:\u000aOk so we all go here on field trips as kids and that's a memory that we hold dear. So you can imagine my surprise as an adult when I came here for one of their nightlife events and the whole inside was changed. It was really disorienting, but I do have to say they new design was still really awesome.\u000a\u000aHOWEVER, once I got acclimated to the changes, I actually had a pretty good time. I took glass with me and my favorite part was the tide pools. The staff were awesome and let me record them talking about the starfish. It made my night really special!!\u000a\u000aDefinitely checkout the nightlife events!!! Fish,dancing, & fun how can you go wrong???
p2291
sVauthor_name
p2292
VShauna Mork
p2293
sVauthor_url
p2294
Vhttps://plus.google.com/110513218467589779477
p2295
sVtime
p2296
I1411720448
sa(dp2297
Vrating
p2298
I5
sVaspects
p2299
(lp2300
(dp2301
Vrating
p2302
I3
sVtype
p2303
Voverall
p2304
sasVlanguage
p2305
Ven
p2306
sVtext
p2307
VThis place is amazing and one of the most impressive places to take a brainy date to. They have these Night-Life events that take place every Thursday and the theme is basically, science meets pop culture, meets a ginger tonic. It is incredibly fun and very hipster approved in my opinion. The drinks are not cheap of course, but the entrance tickets are at only $12 per person. They even have live-ostrich babies! If you can't win date of the year here then you're standing in the wrong museum. OH! and check out the starlight from the living roof exhibit, and get there early to catch the planetarium as it fills up in an instant.
p2308
sVauthor_name
p2309
VMisha Metrikin
p2310
sVauthor_url
p2311
Vhttps://plus.google.com/114890117672430115819
p2312
sVtime
p2313
I1413259773
sa(dp2314
Vrating
p2315
I5
sVaspects
p2316
(lp2317
(dp2318
Vrating
p2319
I3
sVtype
p2320
Voverall
p2321
sasVlanguage
p2322
Ven
p2323
sVtext
p2324
VThe Cal Academy is a great place for people of all ages. Everyone can find something they love here, whether it's ants, lizards, spiders and butterflies in the Rainforest or jellyfish and an albino crocodile in the Aquarium. Though the entrance is pricey, Cal Academy provides hours of fun, especially on a rainy day. And if you're of age, don't miss Nightlife on Thursdays!
p2325
sVauthor_name
p2326
VSamantha Berg
p2327
sVauthor_url
p2328
Vhttps://plus.google.com/107767768560438055175
p2329
sVtime
p2330
I1414974127
sa(dp2331
Vrating
p2332
I5
sVaspects
p2333
(lp2334
(dp2335
Vrating
p2336
I3
sVtype
p2337
Voverall
p2338
sasVlanguage
p2339
Ven
p2340
sVtext
p2341
VI love this place! What I really enjoy about it is that there is so much to learn and see. My favorite things are the rainforest where you get to go to an enclosed area and experience the rainforest habitat. Yes, this means humidity, bugs, butterflies, birds, lizards, etc.! You ascend the different levels of the rainforest and get to learn different environments. I also enjoy the beautiful fish in the coral reef section, I can just stay there all day and look at the different colors and variety of fish! There's also penguins, the albino alligator, etc. and I also love the living roof which also has an amazing view. I did go to the theatre once to watch a show when they first opened and the seats were reclined and comfortable, the space was so quiet and dark and it made me sleepy! I came here on the Thursday night events and those were pretty fun too, live music and you get to drink!
p2342
sVauthor_name
p2343
VAprille Espinueva
p2344
sVauthor_url
p2345
Vhttps://plus.google.com/100822860986184584169
p2346
sVtime
p2347
I1413349742
sasVformatted_phone_number
p2348
V(415) 379-8000
p2349
sVaddress_components
p2350
(lp2351
(dp2352
Vlong_name
p2353
V55
p2354
sVtypes
p2355
(lp2356
Vstreet_number
p2357
asVshort_name
p2358
V55
p2359
sa(dp2360
Vlong_name
p2361
VMusic Concourse Dr
p2362
sVtypes
p2363
(lp2364
Vroute
p2365
asVshort_name
p2366
VMusic Concourse Dr
p2367
sa(dp2368
Vlong_name
p2369
VSan Francisco
p2370
sVtypes
p2371
(lp2372
Vlocality
p2373
aVpolitical
p2374
asVshort_name
p2375
VSF
p2376
sa(dp2377
Vlong_name
p2378
VCalifornia
p2379
sVtypes
p2380
(lp2381
Vadministrative_area_level_1
p2382
aVpolitical
p2383
asVshort_name
p2384
VCA
p2385
sa(dp2386
Vlong_name
p2387
VUnited States
p2388
sVtypes
p2389
(lp2390
Vcountry
p2391
aVpolitical
p2392
asVshort_name
p2393
VUS
p2394
sa(dp2395
Vlong_name
p2396
V94118
p2397
sVtypes
p2398
(lp2399
Vpostal_code
p2400
asVshort_name
p2401
V94118
p2402
sassba(ispot
Spot
p2403
(dp2404
g3
Nsg4
(dp2405
Vrating
p2406
F3.7
sVreference
p2407
VCoQBegAAAGScGFSngTniq9nb0EslKlk2EctGRe3XkJIcXJbVWs00jugGgif8HCVW6OpwcuoCQbf639iRsrnLwfSHJ0R9ryInf-JkFnoewASBsmLT9IWOTWDviCiEo6HaU3snR3GloMfSsedzzJrXMUzqVxYdTPY4EdE2gHtx3Z_1_EnZq55KEhCfNlHVUKedK4BF5SSQEh_8GhSbpCs8KebjJK2PLdnS4U2y_ndRYw
p2408
sVplace_id
p2409
VChIJeSJHoI-AhYARembxZUVcNEk
p2410
sVurl
p2411
Vhttps://plus.google.com/107152743865247750438/about?hl=en-US
p2412
sVformatted_address
p2413
V333 O'Farrell St, San Francisco, CA 94102, United States
p2414
sVid
p2415
Vaaf2a7c4b9188218ab8dcb935cad388ab21ca4ab
p2416
sVopening_hours
p2417
(dp2418
Vweekday_text
p2419
(lp2420
VMonday: Open 24 hours
p2421
aVTuesday: Open 24 hours
p2422
aVWednesday: Open 24 hours
p2423
aVThursday: Open 24 hours
p2424
aVFriday: Open 24 hours
p2425
aVSaturday: Open 24 hours
p2426
aVSunday: Open 24 hours
p2427
asVopen_now
p2428
I01
sVperiods
p2429
(lp2430
(dp2431
Vopen
p2432
(dp2433
Vday
p2434
I0
sVtime
p2435
V0000
p2436
ssassVvicinity
p2437
V333 O'Farrell St, San Francisco
p2438
sVscope
p2439
VGOOGLE
p2440
sVwebsite
p2441
Vhttp://www3.hilton.com/en/hotels/california/hilton-san-francisco-union-square-SFOFHHH/index.html?WT.mc_id=zMKWASR0AA1HN2OLS3GooglePlusBusiness4GPBPT5SFOFHHH
p2442
sVutc_offset
p2443
I-480
sVuser_ratings_total
p2444
I201
sVphotos
p2445
(lp2446
(dp2447
Vphoto_reference
p2448
VCnRnAAAAPohu1AkpzTYPFKdivwzyRGwnpZqqp7s9lSVLk0ZJ34tgscjAlZA5YNigxW9cniHKLPNW-aqEDQt114UyUSikF1CeKFRy2kOKLffDrPjaB9u9yKEOKUhkVCXDXWItBQjmIBuSjrWav60IZhK6SEvbzhIQJajd118b-m3cD1yLbqB2QxoUW5W5EW3dfad_FJUUL94FbH4IKGE
p2449
sVwidth
p2450
I2048
sVhtml_attributions
p2451
(lp2452
sVheight
p2453
I1365
sa(dp2454
Vphoto_reference
p2455
VCnRnAAAATbSJTYgaWsLjFLQXjWYfEpSs844CILB5AEsFV9CDgunSanAN1t1vFqBERJtBMcT-nqfOW_g6O_OnlGxT_RFo4dd5EF2ObIJqwEYeVry1kffhemDjjWb_KtctlEZZ_kqqDFGAtRiAPjR5d1hZn240sRIQmcljYohSDKw3Z2HdNqkCVxoUrcvn3LtqW5KvZGU0FF1exAF0KSE
p2456
sVwidth
p2457
I2048
sVhtml_attributions
p2458
(lp2459
sVheight
p2460
I1365
sa(dp2461
Vphoto_reference
p2462
VCnRnAAAAYbul115B5RtSCaboAmBf_hBHY7UCXSQIqudazmQvWbcyI4OLRBNsRwMs05J9AKKfI0JyNyqMeE_Ut8MMxPMdVN9oVU6_lUu3jAzYB02de-nfzFRQiflI4zUuwnJ3ucxtW19YAkHoaSe2os1c8G1PCxIQg-gbOW2lXlD5FzrzyhinxBoUIxxgrdljzEQm3ODSKS4u3BCdwhY
p2463
sVwidth
p2464
I1312
sVhtml_attributions
p2465
(lp2466
sVheight
p2467
I2048
sa(dp2468
Vphoto_reference
p2469
VCnRnAAAAxLOayjFTd3iYurUhzuk3w5lvkwgkZ_P5OcHrG2BmaPul0tcek8CrVZJf1jfCkrlvV285pLK07kAKdT0qJDbCmqFKI8Zywo4RTDA_NaoMTP3zouD_hw3GZBWz2m2ufa49G65gpFoN3MjMpGS76MvZzhIQuCGMnBDJAzkhWnVutwsWjxoUJkBYZPWkpKsbr-M0ECEK3fCy_ho
p2470
sVwidth
p2471
I2048
sVhtml_attributions
p2472
(lp2473
sVheight
p2474
I1365
sa(dp2475
Vphoto_reference
p2476
VCnRnAAAAo3XUqcpbjk6JRR8tqOSzDV9pj5Z0jiXQwnrOId12ntE9_i9XrBXjBGsrfnLtkFioXkf61Pl-7z2632BkyAwBICx1Dj7moUzMLetTN1qb-1ObGKb_SEHkOWkCf5mRQ-1MgWJh0RielVRLnvvNyD13WhIQ_KFRMuEwFfCqM1i_wU8BVBoUkWSWOCRXKuJEhwJYZp8754l-jic
p2477
sVwidth
p2478
I2048
sVhtml_attributions
p2479
(lp2480
sVheight
p2481
I1365
sa(dp2482
Vphoto_reference
p2483
VCnRnAAAAMxe8F4k6xlDu2IIWYQj8nj9E7an_PWuy39_TG1ibTPqwQyG0CCmn-abm1PyWXZqVq2nT_unli8u1Dw64ZokjCcXVqIBCt7qdbbZJ2gGpXoY7uWDAUBCZx_5EtBr-S7R_58skwHIRMYErUpIaz2pRARIQAPZrGMIHxOzoCw07DKPxHRoURf2y9PcmtAkLoMOVEaL7wrpYSJs
p2484
sVwidth
p2485
I2048
sVhtml_attributions
p2486
(lp2487
sVheight
p2488
I1365
sa(dp2489
Vphoto_reference
p2490
VCnRoAAAABIE6tLgfyzw51d_qF8sp-ftla1Pfh__-yi40JPpb-XNkO4_wAUDxbgu2FI-s-TkXZqcwMVyCGHYvU2563b94ZoHzi1DHpa88HdCPmQNFKbTaOp5-_kYxM_J5xvtoLigCPh0NJy5kw2pXWtgrpa5SzRIQRGV2WCScGCUPcPly3S4WJxoUcmllWkc0UBYJpyVTEjDl0ATfIbI
p2491
sVwidth
p2492
I1632
sVhtml_attributions
p2493
(lp2494
V<a href="https://plus.google.com/102184877766196492628">Changbin Park</a>
p2495
asVheight
p2496
I1224
sa(dp2497
Vphoto_reference
p2498
VCnRoAAAA70JiNb8ArCHBrkrJz1upxjjKzgzx_Z9yoVzV1n0gwfSJ9MNyXbzv7xXSMElPh7S3SGtENVWZYydBWsWiZgY3OJWpyjEyDRB1EgSZXj6zwe4KEysmgMHwK1suzt-5dr3VywlHe8CC2RTn-14xE0ei9xIQ5ReI_cMU-36d4SbJJvunyhoUiXwDAjyZgxvI80iA4Ny0pKwSDn4
p2499
sVwidth
p2500
I1632
sVhtml_attributions
p2501
(lp2502
V<a href="https://plus.google.com/102184877766196492628">Changbin Park</a>
p2503
asVheight
p2504
I1224
sa(dp2505
Vphoto_reference
p2506
VCnRkAAAAn9bEucjSn-pQzd73XW2Q-Mz6oIXpXEwuApTDy5cQzxlE8R0Fu8cHi1dE9BPK0ZYXPsT8FBCNEQl_MqNWhVrY6aj2DyMYBjFD34ZXANRXfE1nm7T0udrWODVGDcNYQl8h9f0NHxh2xZdUU_unbmD86xIQh5hgMtqDvuzYHlbWrbLcyhoUVnyPNgKKxQOUTIXEbE6WxHfLVkg
p2507
sVwidth
p2508
I800
sVhtml_attributions
p2509
(lp2510
VFrom a Google User
p2511
asVheight
p2512
I600
sa(dp2513
Vphoto_reference
p2514
VCpQBhwAAAKn18khqEb1ZODlEeXEsSEewD9QrR2Di8DYWUH1AiUeI09dxLCewGUMt_Hr5mvEnThE48IbKsH8ixMh6xjUHBrwGf4803JaNdJm7TTAAFftIsEzP0j6kkxprKiG2WZQz_NT7uZugn3WEBsl_aEjAASqFt-gacSSRYgMQSkUM_o80yWKejgdf6m97PbjogFoITRIQGnS1GJr0TM6WyuYfT5YgURoU8OdspG1IrLGhVaH629l1rHtSQ-0
p2515
sVwidth
p2516
I480
sVhtml_attributions
p2517
(lp2518
VFrom a Google User
p2519
asVheight
p2520
I640
sasVtypes
p2521
(lp2522
Vlodging
p2523
aVestablishment
p2524
asVicon
p2525
Vhttp://maps.gstatic.com/mapfiles/place_api/icons/lodging-71.png
p2526
sVname
p2527
VHilton San Francisco Union Square
p2528
sVgeometry
p2529
(dp2530
Vlocation
p2531
(dp2532
Vlat
p2533
F37.785628
sVlng
p2534
F-122.410385
sssVadr_address
p2535
V<span class="street-address">333 O&#39;Farrell St</span>, <span class="locality">San Francisco</span>, <span class="region">CA</span> <span class="postal-code">94102</span>, <span class="country-name">United States</span>
p2536
sVinternational_phone_number
p2537
V+1 415-771-1400
p2538
sVreviews
p2539
(lp2540
(dp2541
Vrating
p2542
I1
sVaspects
p2543
(lp2544
(dp2545
Vrating
p2546
I0
sVtype
p2547
Voverall
p2548
sasVlanguage
p2549
Ven
p2550
sVtext
p2551
V"Bug Bites" & "Incapable Manager & Management"\u000a\u000aI stayed at this hotel from Nov 8th - 13th for business. When I woke up on the morning of Nov 10th, I noticed a bug bite bigger than the size of a quarter on my tummy. Because I wasn't very aware of bed bug issues and I was very busy during this trip, I didn't pay enough attention to the bites. Then on Nov 11th, I woke up with 6 bug bites (neck, arms, and tummy); each is no smaller than the size of a quarter. \u000a\u000aI was shocked and reported it to the front desk, and he reported it to the manager. I didn't know if the manager was too busy or what, he didn't come out to talk to me; instead he sent the front desk to change my room and to tell me that the would do a formal report with me in the afternoon, send people for inspection and folllow up with me later. I was very busy that morning, and didn't have time to insist seeing the manager. The front desk gave me the keys to the new room and didn't offer any help moving my stuff. I moved my stuff, but I felt like this was not the right way to deal with the issue 'cause it might spread the bugs to the new room through my luggage; but apparently, they didn't care as I do. \u000a\u000aLater that afternoon, I called the manager about the security report. However, he seemed to be too busy to remember/care, as when I mentioned this issue, his first reponse was like what bug bite, which made me feel very disappointed, as I feel like I was being ignored. But anyway, the security finally came, asked me filled out a piece of paper, and left without asking questions.\u000a\u000aI waited till check-out for the manager or somebody to follow up on the inspection, but there was no calls or any official apology. I was really angry, but I didn't want to be rude either, so I asked to see the manager as I was checking out. However, the front the desk told me that all the managers were in a meeting, so I had to leave a note because I had a flight to catch. The manager left me a voice message when I was in the plane. I called him later and left message, but he didn't call me back. I called again today, but it went to the mailbox, which again made me feel like I was being ignored.\u000a\u000aI'm afraid to carry the bugs home, so I tossed away all the un-washable stuff, and spent hours doing laundry after nearly 8 hours of travel across the country!!! I really wish to wash my laptop too (I finally left it outside in my car, hoping that the cold weather here can kill the bugs if there's any)...\u000a\u000aI feel very angry and disappointed right now by their incapable and indifferent response to this whole issue!!! BTW, they charged the same price as a big room after switching me to a smaller one. \u000a\u000aI've decided to report this to my company next week, and I will stop any business with Hilton if they can't fix this correctly.\u000a\u000aFYI. The rooms that I stayed at are 1-4077 (first 3 nights) and 1-3075 (the last 2 nights). I suggest you stay away from those 2 rooms if you still want to stay in this hotel after you see this.\u000a\u000aGood luck, travelers!
p2552
sVauthor_name
p2553
VJosh Xi
p2554
sVauthor_url
p2555
Vhttps://plus.google.com/108146486311107430763
p2556
sVtime
p2557
I1416027533
sa(dp2558
Vrating
p2559
I4
sVaspects
p2560
(lp2561
(dp2562
Vrating
p2563
I2
sVtype
p2564
Voverall
p2565
sasVlanguage
p2566
Ven
p2567
sVtext
p2568
VWhat a nice hotel! There are three things that drop this from a five star review to a four star review so let's get those three things over with first: The air vent that was in the corner by the shower had a lot of obvious dust all over it - ew! The other negative was that I had learned from visiting San Francisco that the smoking rule there is that if you go outside to smoke, you have to stand at the curb or if there is no curb in front of the building you have to be at least 15 feet from the door.  Apparently, that doesn't apply here because at the main entrance there were at some points a good 20 people standing right at the door smoking.  It's like welcome to the Hilton! Each time you enter you're greeted with the smell of cigarettes! Um, no thank you! Lastly, the air condition did not work the best in our room.  We would set the thermostat for instance to 74 when it said the current temperature was 76 and then it 40 minutes it would be 77 degrees in the room. Weird! None of my negatives were too big of a deal.\u000a\u000aOkay, now on to the positives: Check-in was pretty smooth, there's rental car garage right across the street so we were able to drop off our car and then just walk to the hotel.  Because we're Hilton Honors members, we got to go that check-in line was a quarter of the length of the regular line and we got lucky again because we got to stay at the newly renovated Hilton Honors members exclusive floor. I noticed the floors color scheme was the same color scheme of the Hilton Honors program branding colors - I thought that was cool! I forget which tower we stayed in but it was the one with the pool and whatever tower that was we were on the top floor of that tower. Whether it is 6 in the morning or midnight, the main (and maybe only - I'm not sure) lobby is always PACKED. That wasn't necessarily an issue for me because whenever I was in the lobby I was always able to find at least one seat and an outlet for charging my phone. Wi-Fi is of course free in the lobby and because we were gold members we got free Wi-Fi in the room. Speaking of Wi-Fi, like all Hilton brand hotels I've ever stayed at, the Wi-Fi is slow and there was no exception here. All the staff members who I encountered throughout my stay were nice.  Another plus was that there was always a lot of security, especially by the elevators and entrance. Here's a weird, random story from when I was here: when I was walking down the hallway from my room to the elevators I could easily hear from one of the rooms what sounded like someone playing the violin. It was extremely loud. Did I mention this was at around 8 in morning!  I would hate to have been in a room on either side or across the hall.  When I went back to my room a half an hour later, I could still hear the violin music. Also as Hilton Honors member, I think only gold and diamond members, we got two vouchers a day to get one free pastry/danish, one free fruit, and one free beverage per voucher from the Starbucks in the lobby.  The line is extremely long but it moves pretty quickly.  The hotel's location was pretty good.  It's located within walking distance of both the Yerba Buena Gardens area and about a 30 minutes or less walk to the Ferry Building area. The pool area was very nice.  When I wen swimming at about 9 am it was practically empty. I was there in July and at that the time the temperature was in the 60s but the pool was heated and comfortable and refreshing. Overall, my stay was good and next time I visit San Francisco I would stay here again.
p2569
sVauthor_name
p2570
VMichael Giskin
p2571
sVauthor_url
p2572
Vhttps://plus.google.com/103832599587201585955
p2573
sVtime
p2574
I1413817325
sa(dp2575
Vrating
p2576
I2
sVaspects
p2577
(lp2578
(dp2579
Vrating
p2580
I0
sVtype
p2581
Voverall
p2582
sasVlanguage
p2583
Ven
p2584
sVtext
p2585
VHilton hotel is fed ex office, the hilton id is garbage ad to psrties thst are said pick thrm up. This toddleetubbs what I go as sees that itd a plscr of suicidal sexual affiliate,  that Pelosi its internet or Medicare services unto others that had or end up titles guardian qualities. Tyrant ldiotic lease situations within thr building code templates they hand bill dea, atf where the places they went, orvsignaled.
p2586
sVauthor_name
p2587
VT.L TUBBS
p2588
sVauthor_url
p2589
Vhttps://plus.google.com/117504501064276275248
p2590
sVtime
p2591
I1413526751
sa(dp2592
Vrating
p2593
I3
sVaspects
p2594
(lp2595
(dp2596
Vrating
p2597
I1
sVtype
p2598
Voverall
p2599
sasVlanguage
p2600
Ven
p2601
sVtext
p2602
VOlder Hilton property on the edge of the seedy Tenderloin district, the nicest way to approach the hotel is from Market via O'Farrell. Avoid Taylor! Room decor and lobby could use some updating, and the bathroom really needed remodeling. The lobby is spacious though and a good place to meet. Adjoining restaurant serves great food. Front desk service was disappointing, I waited 10 minutes in line to check out in the morning. Even the clerk expressed some frustration with just having two people there at 8am, and suggested I mention it to management. So at least one person will be pleased by this review.
p2603
sVauthor_name
p2604
VDave Methvin
p2605
sVauthor_url
p2606
Vhttps://plus.google.com/103348693812294029194
p2607
sVtime
p2608
I1414036094
sa(dp2609
Vrating
p2610
I3
sVaspects
p2611
(lp2612
(dp2613
Vrating
p2614
I1
sVtype
p2615
Voverall
p2616
sasVlanguage
p2617
Ven
p2618
sVtext
p2619
V***Well now I feel a little bad, I may have been a bit cranky when I wrote the original review, but I stand by my account of the events and the hotel shortcomings. However, they reacted within a day to my posting of the original review below and offered to change my room, as well as gave me a beautiful bottle of wine. So I can't stay that mad if they are actively addressing issues and making such an effort, especially in the middle of a bustling convention. If you come here, just be conscious that there are actually 3 distinct towers, and staying in the much newer and nicer Tower 1 will save you some of the headaches and disappointment I experienced in Tower 3.\u000a\u000a                                                                                                                                                         -------------------------------------------------------------Original Review:\u000aSeriously avoid this place, it is quite clearly managed terribly - the lack of consistency and attention to detail says it all. My company comes here two to three times a year for conferences and books multiple rooms. Yet we end up in outdated, musty old rooms in Tower 3. This time I had the privilege of having stained sheets. I think someone had a good laugh as well when they took a card for incidentals at the front desk, knowing I'll get up to the room and wake up in the middle of the night looking for a bottle of water or something to drink only to find that there is in fact no refrigerator/mini bar - just a locked cabinet where one should be. I'm sure the laughs continued when I called down and they re-assured me that there was actually a refrigerator in the room. It gets better, they finally admitted that there isn't a fridge, but then directed me to the only vending machine in the whole hotel many floors up. And then, i'm sure someone got some perverse pleasure when I made that trek only to find that it dispenses A) nothing but water B) $4.00 water at that and C) takes 3 swipes/charges to dispense 1 water. I'm just livid with this place. For the money, there are many different options in the immediate vicinity, all that actually have functioning amenities like clean sheets and, imagine that, a way to get a water or coke easily. Luckily, I can call the shots on booking and next conference we WILL NOT be staying at this horrible location.
p2620
sVauthor_name
p2621
VJosh Castell
p2622
sVauthor_url
p2623
Vhttps://plus.google.com/117021169618275381644
p2624
sVtime
p2625
I1406080494
sasVformatted_phone_number
p2626
V(415) 771-1400
p2627
sVaddress_components
p2628
(lp2629
(dp2630
Vlong_name
p2631
V333
p2632
sVtypes
p2633
(lp2634
Vstreet_number
p2635
asVshort_name
p2636
V333
p2637
sa(dp2638
Vlong_name
p2639
VO'Farrell St
p2640
sVtypes
p2641
(lp2642
Vroute
p2643
asVshort_name
p2644
VO'Farrell St
p2645
sa(dp2646
Vlong_name
p2647
VSan Francisco
p2648
sVtypes
p2649
(lp2650
Vlocality
p2651
aVpolitical
p2652
asVshort_name
p2653
VSF
p2654
sa(dp2655
Vlong_name
p2656
VCalifornia
p2657
sVtypes
p2658
(lp2659
Vadministrative_area_level_1
p2660
aVpolitical
p2661
asVshort_name
p2662
VCA
p2663
sa(dp2664
Vlong_name
p2665
VUnited States
p2666
sVtypes
p2667
(lp2668
Vcountry
p2669
aVpolitical
p2670
asVshort_name
p2671
VUS
p2672
sa(dp2673
Vlong_name
p2674
V94102
p2675
sVtypes
p2676
(lp2677
Vpostal_code
p2678
asVshort_name
p2679
V94102
p2680
sassba(ispot
Spot
p2681
(dp2682
g3
Nsg4
(dp2683
Vrating
p2684
F4.4
sVreference
p2685
VCoQBdgAAAM7sBJD4r4Dw302lk_KCsF85YsZ1XtQzytH2_mCQfwCoRLkzapgkRxR0XEIEfA8_a_Kh0-2m5mBQK8KuR-iiVoXpSsRuvvWbbgBMsNX8iCMKo5x39g2uF5ROnQ2vSVQ9Mgr6MO13seUl6sdffzIy1Ii_nvU7lYe-qRMenRSEgYNwEhBn8bncT56rHd7Za5goQMicGhQt8ND1CMyGaNbSrAe-STQ4wgR4tA
p2686
sVplace_id
p2687
VChIJ5f7ZKtiGhYAR9WaYFS6bH1U
p2688
sVurl
p2689
Vhttps://plus.google.com/105919498584532583013/about?hl=en-US
p2690
sVformatted_address
p2691
V104 Montgomery St, San Francisco, CA 94129, United States
p2692
sVid
p2693
Vb1467bcc46fa06becac3805afdfcbe5e26806199
p2694
sVopening_hours
p2695
(dp2696
Vweekday_text
p2697
(lp2698
VMonday: 10:00 am \u2013 6:00 pm
p2699
aVTuesday: Closed
p2700
aVWednesday: 10:00 am \u2013 6:00 pm
p2701
aVThursday: 10:00 am \u2013 6:00 pm
p2702
aVFriday: 10:00 am \u2013 6:00 pm
p2703
aVSaturday: 10:00 am \u2013 6:00 pm
p2704
aVSunday: 10:00 am \u2013 6:00 pm
p2705
asVopen_now
p2706
I00
sVperiods
p2707
(lp2708
(dp2709
Vclose
p2710
(dp2711
Vday
p2712
I0
sVtime
p2713
V1800
p2714
ssVopen
p2715
(dp2716
Vday
p2717
I0
sVtime
p2718
V1000
p2719
ssa(dp2720
Vclose
p2721
(dp2722
Vday
p2723
I1
sVtime
p2724
V1800
p2725
ssVopen
p2726
(dp2727
Vday
p2728
I1
sVtime
p2729
V1000
p2730
ssa(dp2731
Vclose
p2732
(dp2733
Vday
p2734
I3
sVtime
p2735
V1800
p2736
ssVopen
p2737
(dp2738
Vday
p2739
I3
sVtime
p2740
V1000
p2741
ssa(dp2742
Vclose
p2743
(dp2744
Vday
p2745
I4
sVtime
p2746
V1800
p2747
ssVopen
p2748
(dp2749
Vday
p2750
I4
sVtime
p2751
V1000
p2752
ssa(dp2753
Vclose
p2754
(dp2755
Vday
p2756
I5
sVtime
p2757
V1800
p2758
ssVopen
p2759
(dp2760
Vday
p2761
I5
sVtime
p2762
V1000
p2763
ssa(dp2764
Vclose
p2765
(dp2766
Vday
p2767
I6
sVtime
p2768
V1800
p2769
ssVopen
p2770
(dp2771
Vday
p2772
I6
sVtime
p2773
V1000
p2774
ssassVvicinity
p2775
V104 Montgomery St, San Francisco
p2776
sVscope
p2777
VGOOGLE
p2778
sVwebsite
p2779
Vhttp://waltdisney.org/
p2780
sVutc_offset
p2781
I-480
sVuser_ratings_total
p2782
I63
sVphotos
p2783
(lp2784
(dp2785
Vphoto_reference
p2786
VCnRoAAAA-mb_7u5NuIwdLDWjOqzsxdTuLls8RGaTfA8-NkbwLzD7SvBZSa9D8QeAPNsZ8CJxwuJdX6mQE9K4spl9IUesN6qNtdk9ZSH_K3cJk_8MjsGfIzwTUV3iqHZVpttkUZGUZ72Ftc5T3qdr2mLoRb9QUBIQFkR-Cv4sEbEPfsoG81eH-RoU-qoqAAJfXl5cZqnED6ifPQuOHQ4
p2787
sVwidth
p2788
I1344
sVhtml_attributions
p2789
(lp2790
V<a href="https://plus.google.com/104418807524866039109">Rhonda Irmen</a>
p2791
asVheight
p2792
I760
sa(dp2793
Vphoto_reference
p2794
VCnRoAAAAxYG95O1I05F-0XxmYezvOW100l01PlmbWqYkEcGa7Fc4To4oLRogdwUWYcqo1I2mvUJPBKMtbJEp93A18WqMgKz_i_FR_UJ8oDB_wbu4xTWDjSiXyW11KQ8TnRC-oSypESuvI04Dy2VPFPHHXvcLcRIQRFgw4KDx5fTQY9r6RG9FGRoUSdDEZeJWmIO0a1RynetduhIAi_g
p2795
sVwidth
p2796
I1344
sVhtml_attributions
p2797
(lp2798
V<a href="https://plus.google.com/104418807524866039109">Rhonda Irmen</a>
p2799
asVheight
p2800
I760
sa(dp2801
Vphoto_reference
p2802
VCnRoAAAA9QAO9JA6oYk42-GB3AeLbz2Bcs4Y1igPWwOcwQiowkucsrJI8L4LvPk-KnCPJjc_7AwV_y2rh5oNPnQXJl98ietSeIKj7yYCrveyiNvZ5JmdfCrPD4zBBTdHmbdKgcCluQzmGVz6xyhHuQsowO0VgBIQwcO2TyVMfKAa6HS5agZwaRoUPu2-dhtJ6e-H0otwN_-YpCMTIfA
p2803
sVwidth
p2804
I1344
sVhtml_attributions
p2805
(lp2806
V<a href="https://plus.google.com/104418807524866039109">Rhonda Irmen</a>
p2807
asVheight
p2808
I760
sa(dp2809
Vphoto_reference
p2810
VCnRoAAAAKxyIBpcU-dwUTix9DXp15YjHh_z0H-GHgGFcvQGnMVeNFcFM1G7gd5tB0k7ENk54oFCKUBCcul-nOuQZERzh4khU_HQvvvP1Ye62PQPxh20G6_NOmaCWMUh4xX7QA3UpLj0WvsnOPs_GO4dTN6zGZRIQALdcvfy3JjGlgQoXl-ob4RoUXez-ZA4t47HftJDLW84RPS5sTl0
p2811
sVwidth
p2812
I658
sVhtml_attributions
p2813
(lp2814
V<a href="https://plus.google.com/104418807524866039109">Rhonda Irmen</a>
p2815
asVheight
p2816
I1216
sa(dp2817
Vphoto_reference
p2818
VCnRoAAAAUwSBFuxUJ-2AvxEIKlReqz0w_KpxjSxqVzRK1PMGdU5tCI5-QoefEXSZxzm_3NWipfKSda5iFcA7Jw22jve88u-C_-o0v-hZCDgp1q4yXvfiam_Ny8Q89VX_8VEbbmUmePVBnNoj9AINJgioMVTIdxIQ9XSI0xfsa8F8sEf9p83m9xoU7YYyx_m3pnRnBeBwsrJtirJvGRo
p2819
sVwidth
p2820
I760
sVhtml_attributions
p2821
(lp2822
V<a href="https://plus.google.com/104418807524866039109">Rhonda Irmen</a>
p2823
asVheight
p2824
I1344
sa(dp2825
Vphoto_reference
p2826
VCpQBjQAAAOMozkPhFYCEgXWWdbEDJwB5habRVy-8mYLROZvK-eWwnaPpANf7B9RLUGb-ULcK2KKoGI6k4f9tJ8RRZOZ_92BTTnYMkLFhw500vCIkfnNRPghxxalIXTjoWSE26AbncwqFJV3lU5jWKAeTNQme1Vt_vQ2YTCv2VF8uY8TpoTLaMAQPZNxQXnMojZy3I2EtVxIQoq6lkA0N-b8_1aLLOxv1FxoUxERcVO4xIWUTYUjSSQkMYAvmYaU
p2827
sVwidth
p2828
I3072
sVhtml_attributions
p2829
(lp2830
VFrom a Google User
p2831
asVheight
p2832
I2304
sa(dp2833
Vphoto_reference
p2834
VCpQBjQAAAOuz88-getYHJ68iNPp1xJa-F6PWxdd1Kk2u8AcrnRh_57EP0hkjanOWebmPA2xJjoJOAPOkiSWagd5QuOXEPCdTWvw-5qP6MYgEcHuRSUN2hqdPrNNDc6z4fgQQB1S-EyN5LlbEQ2pfXNXIOMshuD1Q4glnRVNuHntCB7q2aZb9oBURUleYU6qDFhePkr1YERIQ3DJxu0ANoMkgWLx-SywsFhoUjC-aNPGC9kXMp1jB-cfTkX-maoc
p2835
sVwidth
p2836
I3072
sVhtml_attributions
p2837
(lp2838
VFrom a Google User
p2839
asVheight
p2840
I2304
sa(dp2841
Vphoto_reference
p2842
VCnRqAAAAhkbxPuQ4dc9pV-8-x_DxhcVIScv8O-vXVj31PWbIda08WWGx9fXngO3wB1PpmLDr3f5VgD5CoLvK4s2VsPk7QAS4A3ZgVBkPeny5nDNcXAY5LLFqVDuZR0bi078w4meqwYkLgNCzQCm0cKbznmszRRIQxbPL6Dc8H-CnyUhllq43rBoUrYkcaVAiVe02TqzEVo62vamOGvw
p2843
sVwidth
p2844
I4752
sVhtml_attributions
p2845
(lp2846
V<a href="https://plus.google.com/113348736951055038973">Thomas Devaux</a>
p2847
asVheight
p2848
I3168
sasVtypes
p2849
(lp2850
Vmuseum
p2851
aVestablishment
p2852
asVicon
p2853
Vhttp://maps.gstatic.com/mapfiles/place_api/icons/museum-71.png
p2854
sVname
p2855
VThe Walt Disney Family Museum
p2856
sVgeometry
p2857
(dp2858
Vlocation
p2859
(dp2860
Vlat
p2861
F37.801395
sVlng
p2862
F-122.458661
sssVadr_address
p2863
V<span class="street-address">104 Montgomery St</span>, <span class="locality">San Francisco</span>, <span class="region">CA</span> <span class="postal-code">94129</span>, <span class="country-name">United States</span>
p2864
sVinternational_phone_number
p2865
V+1 415-345-6800
p2866
sVreviews
p2867
(lp2868
(dp2869
Vrating
p2870
I5
sVaspects
p2871
(lp2872
(dp2873
Vrating
p2874
I3
sVtype
p2875
Voverall
p2876
sasVlanguage
p2877
Ven
p2878
sVtext
p2879
VMy Family and I went to Disneyland the year it opened and I've returned many, many times over the past fifty years.  Never having been to Disneyland around Christmas, I'm taking my Sons and their Families this Christmas.  \u000a\u000aI went to the Museum with two other friends.  It took us two and one-half hours to see and absorb all there is to see, ending the tour sitting and reflecting with tears.  I loved every minute of it.  It was so well done.  Not sure if 'youngsters' would appreciate the whole of it.\u000a\u000aSo happy it's close by to me too (Sonoma).\u000a\u000aEnjoy!
p2880
sVauthor_name
p2881
VDiane Litchfield
p2882
sVauthor_url
p2883
Vhttps://plus.google.com/118291852086003731498
p2884
sVtime
p2885
I1413835643
sa(dp2886
Vrating
p2887
I3
sVaspects
p2888
(lp2889
(dp2890
Vrating
p2891
I1
sVtype
p2892
Voverall
p2893
sasVlanguage
p2894
Ven
p2895
sVtext
p2896
VThe most interesting part for me was the exhibit of Mary Blair's designs.  Some of them looked a lot like the movies they eventually led to: The Three Caballeros, Peter Pan, Lady and the Tramp.  But she had a unique way of drawing in a plane, which the animators were never able to master, so that her studies led only to a vague idea of what the characters ended up looking like, and in some cases the overall layout of a scene.  But it was quite educational.\u000a\u000aThe Disney Museum itself was pretty much like the displays that used to be in Disneyland (Anaheim) before it was "modernized" with a bunch of new rides and shops.  So for me there wasn't much new there.  For somebody younger, who has never seen those displays before, it might be more interesting.
p2897
sVauthor_name
p2898
VBarry Gold
p2899
sVauthor_url
p2900
Vhttps://plus.google.com/100495659440714462183
p2901
sVtime
p2902
I1405281106
sa(dp2903
Vrating
p2904
I5
sVaspects
p2905
(lp2906
(dp2907
Vrating
p2908
I3
sVtype
p2909
Voverall
p2910
sasVlanguage
p2911
Ven
p2912
sVtext
p2913
VThe Disney Family Museum is the perfect place for any Disney fanatic.  I came here during one of their night life events and I had a great time visiting the different exhibits.  The theme was tiki and everyone came dressed up in vintage tiki clothes.  They had themed cocktails, arts and crafts and had a food truck outside selling Hawaiian style sliders.  My favorite part of the museum was the Mary Blair exhibit in the second building in the back.  They also had a ukulele player that serenaded guests as they waited in the line to get into the museum.  I would love to go back on a day when it's not so crowded so I could see more of the museum.
p2914
sVauthor_name
p2915
VMandy Irvine
p2916
sVauthor_url
p2917
Vhttps://plus.google.com/104622617500175604392
p2918
sVtime
p2919
I1404172582
sa(dp2920
Vrating
p2921
I4
sVaspects
p2922
(lp2923
(dp2924
Vrating
p2925
I2
sVtype
p2926
Voverall
p2927
sasVlanguage
p2928
Ven
p2929
sVtext
p2930
VDiscount for students. Great hidden gem in the Presidio. A museum geared towards adults and artists, not kid recommended.
p2931
sVauthor_name
p2932
VAaron Babst
p2933
sVauthor_url
p2934
Vhttps://plus.google.com/110946194191781310998
p2935
sVtime
p2936
I1413471375
sa(dp2937
Vrating
p2938
I4
sVaspects
p2939
(lp2940
(dp2941
Vrating
p2942
I2
sVtype
p2943
Voverall
p2944
sasVlanguage
p2945
Ven
p2946
sVtext
p2947
VMy husband and I love the Disney parks and have even taken tours there. This was a no brainer to visit. It was interesting to walk through Walt's life and even sit on a bench he frequented in Disneyland at one time. There was also an exhibit of artists, which was nice to see. It cost extra, but it was well worth the walk through. 
p2948
sVauthor_name
p2949
VNatasha M. Heck
p2950
sVauthor_url
p2951
Vhttps://plus.google.com/107869456972446152610
p2952
sVtime
p2953
I1401940563
sasVformatted_phone_number
p2954
V(415) 345-6800
p2955
sVaddress_components
p2956
(lp2957
(dp2958
Vlong_name
p2959
V104
p2960
sVtypes
p2961
(lp2962
Vstreet_number
p2963
asVshort_name
p2964
V104
p2965
sa(dp2966
Vlong_name
p2967
VMontgomery St
p2968
sVtypes
p2969
(lp2970
Vroute
p2971
asVshort_name
p2972
VMontgomery St
p2973
sa(dp2974
Vlong_name
p2975
VSan Francisco
p2976
sVtypes
p2977
(lp2978
Vlocality
p2979
aVpolitical
p2980
asVshort_name
p2981
VSF
p2982
sa(dp2983
Vlong_name
p2984
VCalifornia
p2985
sVtypes
p2986
(lp2987
Vadministrative_area_level_1
p2988
aVpolitical
p2989
asVshort_name
p2990
VCA
p2991
sa(dp2992
Vlong_name
p2993
VUnited States
p2994
sVtypes
p2995
(lp2996
Vcountry
p2997
aVpolitical
p2998
asVshort_name
p2999
VUS
p3000
sa(dp3001
Vlong_name
p3002
V94129
p3003
sVtypes
p3004
(lp3005
Vpostal_code
p3006
asVshort_name
p3007
V94129
p3008
sassba(ispot
Spot
p3009
(dp3010
g3
Nsg4
(dp3011
Vrating
p3012
F4.2
sVreference
p3013
VCoQBdgAAALDSGzQ-Qh5bhoqLQgEdWUwbhZoaTUtm3_JRlA6NMKZhs6xc1kOtE1RQzutXeo3wSkU2mKn6uliNZVKuhEWd1OuoWUgycx6b2LbHfSpYFWIdX8-VA8cXC8mCV-UDO6sWlr5T8uX3Fy16IL3bdA5aR2Jc_qvKMD4kLqE0CORE1cyUEhDSdK-aOUQAn5mDwL4tJ2tqGhRiLzg2qm2YfT3ajCRXWARPUVqe3w
p3014
sVplace_id
p3015
VChIJd2spnJuAhYARhkuvhLCp3us
p3016
sVurl
p3017
Vhttps://plus.google.com/101406392128555893967/about?hl=en-US
p3018
sVformatted_address
p3019
V100 Larkin St, San Francisco, CA 94102, United States
p3020
sVid
p3021
Vb1c83827c82c9fa59ffcdad652d1e8a1b04a4ae8
p3022
sVopening_hours
p3023
(dp3024
Vweekday_text
p3025
(lp3026
VMonday: 10:00 am \u2013 6:00 pm
p3027
aVTuesday: 9:00 am \u2013 8:00 pm
p3028
aVWednesday: 9:00 am \u2013 8:00 pm
p3029
aVThursday: 9:00 am \u2013 8:00 pm
p3030
aVFriday: 12:00 \u2013 6:00 pm
p3031
aVSaturday: 10:00 am \u2013 6:00 pm
p3032
aVSunday: 12:00 \u2013 5:00 pm
p3033
asVopen_now
p3034
I00
sVperiods
p3035
(lp3036
(dp3037
Vclose
p3038
(dp3039
Vday
p3040
I0
sVtime
p3041
V1700
p3042
ssVopen
p3043
(dp3044
Vday
p3045
I0
sVtime
p3046
V1200
p3047
ssa(dp3048
Vclose
p3049
(dp3050
Vday
p3051
I1
sVtime
p3052
V1800
p3053
ssVopen
p3054
(dp3055
Vday
p3056
I1
sVtime
p3057
V1000
p3058
ssa(dp3059
Vclose
p3060
(dp3061
Vday
p3062
I2
sVtime
p3063
V2000
p3064
ssVopen
p3065
(dp3066
Vday
p3067
I2
sVtime
p3068
V0900
p3069
ssa(dp3070
Vclose
p3071
(dp3072
Vday
p3073
I3
sVtime
p3074
V2000
p3075
ssVopen
p3076
(dp3077
Vday
p3078
I3
sVtime
p3079
V0900
p3080
ssa(dp3081
Vclose
p3082
(dp3083
Vday
p3084
I4
sVtime
p3085
V2000
p3086
ssVopen
p3087
(dp3088
Vday
p3089
I4
sVtime
p3090
V0900
p3091
ssa(dp3092
Vclose
p3093
(dp3094
Vday
p3095
I5
sVtime
p3096
V1800
p3097
ssVopen
p3098
(dp3099
Vday
p3100
I5
sVtime
p3101
V1200
p3102
ssa(dp3103
Vclose
p3104
(dp3105
Vday
p3106
I6
sVtime
p3107
V1800
p3108
ssVopen
p3109
(dp3110
Vday
p3111
I6
sVtime
p3112
V1000
p3113
ssassVvicinity
p3114
V100 Larkin St, San Francisco
p3115
sVscope
p3116
VGOOGLE
p3117
sVwebsite
p3118
Vhttp://sfpl.org/index.php?pg=0100000101
p3119
sVutc_offset
p3120
I-480
sVuser_ratings_total
p3121
I81
sVphotos
p3122
(lp3123
(dp3124
Vphoto_reference
p3125
VCnRnAAAAYqY1Z94Ay8iDyFpunK56paThFL2Tjrg9CLosPAtBlY77npJsS2JCVq9QFkDjHNykPtNRrA7nuKEMZcCwfknNRSHuPWvqabJqUs3jBxFadzOyu6OnEOhuugHSFtv9vpTVz2BsHMKZYrAyxZpoD2Vb8BIQuRNibQGdISwFI3oLehdtkhoUfUsKzLcBYTgl1H3fo0iZrWegOKo
p3126
sVwidth
p3127
I212
sVhtml_attributions
p3128
(lp3129
sVheight
p3130
I132
sa(dp3131
Vphoto_reference
p3132
VCnRoAAAAR7vZnAbPY00-K_dR2IrlyG-YkughRdHXSrB9C4ilSX6qYv7Ofc41svYd4fe9kunAQRKXY-AdDiZJ6wpyBx79M4p_HLd7tNfsJ_Nj8wMah011dt0HnaEHktaxkHrJGuvvwuj3ZeghOD1ftvrxQTrVJRIQ3E6Mbwnolccep5R__e5XgBoUL_h6oy-tPfJJXJL-H2tkq6-LTh4
p3133
sVwidth
p3134
I1224
sVhtml_attributions
p3135
(lp3136
V<a href="https://plus.google.com/110973269841242399688">Leonard Hayes</a>
p3137
asVheight
p3138
I1632
sa(dp3139
Vphoto_reference
p3140
VCnRsAAAAtzv1zInZC1lT7bWAm99DC0bl50wTua3C8AQjC5ZGK044lcG1rRf_q8pkym0OB9iJ4dqJsp5N9maoTKKqHpyiwE3ewgcVVVvNy1gDvdtQLEgV19OYdkgIKFFty25Bksma01nhhiWchgE4IuRooCaLyhIQ8Dxm-Hwobbra78uPlCJZEBoU3J2uMT9hG06E4KtV81ACJPsdKZM
p3141
sVwidth
p3142
I1296
sVhtml_attributions
p3143
(lp3144
VFrom a Google User
p3145
asVheight
p3146
I972
sa(dp3147
Vphoto_reference
p3148
VCnRoAAAAH8wz3V1BskjrBSk2O5E7vXHKJLF6xslsrOzG-fe5Hykh-Wan6-lanzeUK1bQnbcsSXcBv3CaNQFh19bKeehgDhIVCnmAMkMuvZ0g7gKyH2MGqTErRHPCL7fyS6BSiPmR2f27n_1Uq5gGhamtWXiMsRIQTud73a47PFjDbXv-EVFTuRoUwyQ78Wk7Xu7TumKTWXW9CEwlQko
p3149
sVwidth
p3150
I1224
sVhtml_attributions
p3151
(lp3152
V<a href="https://plus.google.com/110623718662972590701">chad labounty</a>
p3153
asVheight
p3154
I1632
sa(dp3155
Vphoto_reference
p3156
VCoQBgAAAAJonEDFPqvm8JWKQydHr2V5qTreZcDOwPFPRUN9XRxJ2ePT40tyf7cl27dbVq8hF3i3EmYQuTN0vW8BFqsQ40A9sPAgkY9fASvGuY9DKmChQ9tsL4sNj-jCTH8K6pnMn_LxvyFmoWd8C4u6Y8zAPDutfbuM6jGoll4XPn_F30tD5EhDvMb5ONKryZk8UHvpOfUm5GhSLVGNT9jRdeQqXL_TJaWg18ko2Ww
p3157
sVwidth
p3158
I768
sVhtml_attributions
p3159
(lp3160
V<a href="https://plus.google.com/107358372958769357655">Eric T. Fisher</a>
p3161
asVheight
p3162
I1024
sa(dp3163
Vphoto_reference
p3164
VCnRnAAAAUyTxwTLShBB0MdeikSOTNQYijwKiH8GSXRjwKZFcOiJNx5FZ-xnxjsqTCBpi4d1LvjlucsbT8m2N-tABpG-d-AMuRIsUWdYQYxjDMoU2ExP3RmBs9dcTUu7kQ8QUTUnmYYJ7AcbSQ-o08I1_JVMgIBIQhdvNa_jWkdjcj9Tn08DB4hoU1yo2sCeaE_OHq_A0H2fv6lWGojQ
p3165
sVwidth
p3166
I485
sVhtml_attributions
p3167
(lp3168
sVheight
p3169
I160
sasVtypes
p3170
(lp3171
Vlibrary
p3172
aVestablishment
p3173
asVicon
p3174
Vhttp://maps.gstatic.com/mapfiles/place_api/icons/library-71.png
p3175
sVname
p3176
VSan Francisco Public Library
p3177
sVgeometry
p3178
(dp3179
Vlocation
p3180
(dp3181
Vlat
p3182
F37.779282
sVlng
p3183
F-122.415858
sssVadr_address
p3184
V<span class="street-address">100 Larkin St</span>, <span class="locality">San Francisco</span>, <span class="region">CA</span> <span class="postal-code">94102</span>, <span class="country-name">United States</span>
p3185
sVinternational_phone_number
p3186
V+1 415-557-4400
p3187
sVreviews
p3188
(lp3189
(dp3190
Vrating
p3191
I4
sVaspects
p3192
(lp3193
(dp3194
Vrating
p3195
I2
sVtype
p3196
Voverall
p3197
sasVlanguage
p3198
Ven
p3199
sVtext
p3200
VWhen your friends are outside enjoying the sunshine and you have to study this really isn't a bad place to spend your day. It's absolutely gorgeous! 3rd floor reading room. Bundle up because it's always freezing, but it helps keep you awake. For some reason it has smelled like dirty feet/vinegar lately, but it's not always like that. Maybe it's the tourists?
p3201
sVauthor_name
p3202
VClarence Sasser
p3203
sVauthor_url
p3204
Vhttps://plus.google.com/115415379408402048510
p3205
sVtime
p3206
I1415905219
sa(dp3207
Vrating
p3208
I4
sVaspects
p3209
(lp3210
(dp3211
Vrating
p3212
I2
sVtype
p3213
Voverall
p3214
sasVlanguage
p3215
Ven
p3216
sVtext
p3217
VI go tot his library when I got to the Civic Center, but my regular branch is the Ortega Branch Library in the Sunset District. The librarians were very friendly, and there was a wide collection of books. I love the returning process and the self-checkout. The 6th Floor history room, was superb. I looked through files and much more. i would recommend this to everyone.
p3218
sVauthor_name
p3219
VJunming Guan
p3220
sVauthor_url
p3221
Vhttps://plus.google.com/116961296874666170914
p3222
sVtime
p3223
I1413590548
sa(dp3224
Vrating
p3225
I4
sVaspects
p3226
(lp3227
(dp3228
Vrating
p3229
I2
sVtype
p3230
Voverall
p3231
sasVlanguage
p3232
Ven
p3233
sVtext
p3234
VPretty cool library!  I was here more as a tourist and didn't actually check out any books or anything, but it was neat to walk around and see everything.  The building looks interesting and the park in front of it is a nice place to hang out.\u000a
p3235
sVauthor_name
p3236
VVina Lund
p3237
sVauthor_url
p3238
Vhttps://plus.google.com/105821397683553294140
p3239
sVtime
p3240
I1415473895
sa(dp3241
Vrating
p3242
I5
sVaspects
p3243
(lp3244
(dp3245
Vrating
p3246
I3
sVtype
p3247
Voverall
p3248
sasVlanguage
p3249
Ven
p3250
sVtext
p3251
VBeautiful library - I love the architecture and the chandeliers hanging in the main reading room; very large and expansive in which you get grab a table to study and/or do work.  Not to mention that this was one of the sites used for 'Ghostwriters!'  There is plenty of light from the natural sunlight streaming in from the large windows as well as the additional light from the lamps.  They have an extensive collection of books and it's a beautiful place to just stop by if you're in the area.
p3252
sVauthor_name
p3253
VSenaida Salmon
p3254
sVauthor_url
p3255
Vhttps://plus.google.com/114300096668768848098
p3256
sVtime
p3257
I1415185197
sa(dp3258
Vrating
p3259
I4
sVaspects
p3260
(lp3261
(dp3262
Vrating
p3263
I2
sVtype
p3264
Voverall
p3265
sasVlanguage
p3266
Ven
p3267
sVtext
p3268
VDespite a constant homeless presence outside and around the fringes, the building is modern, spacious and well-managed. Finding a table with a nice window view isn't always easy, however. A very nice public library, in a not so nice part of town.
p3269
sVauthor_name
p3270
VTyler Harding
p3271
sVauthor_url
p3272
Vhttps://plus.google.com/110357160824479158301
p3273
sVtime
p3274
I1411964862
sasVformatted_phone_number
p3275
V(415) 557-4400
p3276
sVaddress_components
p3277
(lp3278
(dp3279
Vlong_name
p3280
V100
p3281
sVtypes
p3282
(lp3283
Vstreet_number
p3284
asVshort_name
p3285
V100
p3286
sa(dp3287
Vlong_name
p3288
VLarkin St
p3289
sVtypes
p3290
(lp3291
Vroute
p3292
asVshort_name
p3293
VLarkin St
p3294
sa(dp3295
Vlong_name
p3296
VCivic Center
p3297
sVtypes
p3298
(lp3299
Vneighborhood
p3300
aVpolitical
p3301
asVshort_name
p3302
VCivic Center
p3303
sa(dp3304
Vlong_name
p3305
VSan Francisco
p3306
sVtypes
p3307
(lp3308
Vlocality
p3309
aVpolitical
p3310
asVshort_name
p3311
VSF
p3312
sa(dp3313
Vlong_name
p3314
VSan Francisco County
p3315
sVtypes
p3316
(lp3317
Vadministrative_area_level_2
p3318
aVpolitical
p3319
asVshort_name
p3320
VSan Francisco County
p3321
sa(dp3322
Vlong_name
p3323
VCalifornia
p3324
sVtypes
p3325
(lp3326
Vadministrative_area_level_1
p3327
aVpolitical
p3328
asVshort_name
p3329
VCA
p3330
sa(dp3331
Vlong_name
p3332
VUnited States
p3333
sVtypes
p3334
(lp3335
Vcountry
p3336
aVpolitical
p3337
asVshort_name
p3338
VUS
p3339
sa(dp3340
Vlong_name
p3341
V94102
p3342
sVtypes
p3343
(lp3344
Vpostal_code
p3345
asVshort_name
p3346
V94102
p3347
sassba(ispot
Spot
p3348
(dp3349
g3
Nsg4
(dp3350
Vrating
p3351
F4.4
sVreference
p3352
VCnRwAAAAJJvhUU0HCUEoEAoa3kNcdi8PO_YBjkXGTig7CDH9xQkuQ6LIvqy9sxcUK54x5Ng6bv4kfCgOVKnYR5hCrglhUuPuSTqkfUkg6uRc-pe6M9ravEC6DPWOLgWT8X82HFd4dgzLcbeoJYrmWUHvoMS6CxIQ-tmzqblHpJkHzYyQ7HYAkRoUy6WN2QduOU1AbKXVrCsidunoQnQ
p3353
sVplace_id
p3354
VChIJS5fZqsx_j4ARsnlQbCfuapc
p3355
sVurl
p3356
Vhttps://plus.google.com/115958020751040892385/about?hl=en-US
p3357
sVformatted_address
p3358
V1705 Mariposa St, San Francisco, CA 94107, United States
p3359
sVid
p3360
Vc1c4eb58d9464534bb426042172104c8745ccac9
p3361
sVopening_hours
p3362
(dp3363
Vweekday_text
p3364
(lp3365
VMonday: 9:00 am \u2013 5:00 pm
p3366
aVTuesday: 9:00 am \u2013 5:00 pm
p3367
aVWednesday: 9:00 am \u2013 5:00 pm
p3368
aVThursday: 9:00 am \u2013 5:00 pm
p3369
aVFriday: 9:00 am \u2013 5:00 pm
p3370
aVSaturday: Closed
p3371
aVSunday: Closed
p3372
asVopen_now
p3373
I00
sVperiods
p3374
(lp3375
(dp3376
Vclose
p3377
(dp3378
Vday
p3379
I1
sVtime
p3380
V1700
p3381
ssVopen
p3382
(dp3383
Vday
p3384
I1
sVtime
p3385
V0900
p3386
ssa(dp3387
Vclose
p3388
(dp3389
Vday
p3390
I2
sVtime
p3391
V1700
p3392
ssVopen
p3393
(dp3394
Vday
p3395
I2
sVtime
p3396
V0900
p3397
ssa(dp3398
Vclose
p3399
(dp3400
Vday
p3401
I3
sVtime
p3402
V1700
p3403
ssVopen
p3404
(dp3405
Vday
p3406
I3
sVtime
p3407
V0900
p3408
ssa(dp3409
Vclose
p3410
(dp3411
Vday
p3412
I4
sVtime
p3413
V1700
p3414
ssVopen
p3415
(dp3416
Vday
p3417
I4
sVtime
p3418
V0900
p3419
ssa(dp3420
Vclose
p3421
(dp3422
Vday
p3423
I5
sVtime
p3424
V1700
p3425
ssVopen
p3426
(dp3427
Vday
p3428
I5
sVtime
p3429
V0900
p3430
ssassVvicinity
p3431
V1705 Mariposa St, San Francisco
p3432
sVscope
p3433
VGOOGLE
p3434
sVwebsite
p3435
Vhttp://www.anchorbrewing.com/
p3436
sVutc_offset
p3437
I-480
sVuser_ratings_total
p3438
I148
sVphotos
p3439
(lp3440
(dp3441
Vphoto_reference
p3442
VCnRnAAAAY1ExcXHHy8PxtRlkNUgXspfKvGWtANbX1LDN66-0mnzeX8-q5ZnkCIb2gF3YAITEK4pGYW8WEUK8aHAkGeuA0y0x765V2QoT67M-k8ssMfE2M1kcPkK-M63edQrxmA-nxCWL66x3CfG4I05KEaZJVBIQWb6zTNT2y81midG9Ia9MPBoUQaaxkG8PexStZgNFbjr5s842eOg
p3443
sVwidth
p3444
I1000
sVhtml_attributions
p3445
(lp3446
sVheight
p3447
I664
sa(dp3448
Vphoto_reference
p3449
VCnRnAAAAa1DoDey7M9BM6Unz2wtNPz6ehC5TLZ1RmCN9JOssO73HShsfLeusDsAnFjoTZswnmgEVyB7nhwJISyQsK11MH_fps7GXAjRnNmwctZ-Z_LYF8aYn1YeLha00Z5yEmg4NE88wU_CNuT1OuPUYPizXBxIQ7N8QHSnNQYD6_66WzFs4XRoU7OidQ-KaTSzUnTE7ZWKQ0rzTC90
p3450
sVwidth
p3451
I1000
sVhtml_attributions
p3452
(lp3453
sVheight
p3454
I541
sa(dp3455
Vphoto_reference
p3456
VCnRnAAAA7F3AH4IUKQzbq1gvPsTa5e7lZPeoPZbj82r9VXnByf1xoDW6a-oJ1In6QhO0aDdVcOI4Uv6WjQM-rdeHrP63_4PW_oC-XjvE_gXXxCYx2VGGRrMocwXCfyYhqBXYCHI6YuJyoA9pp0K3s2uz0YVWBBIQuclmXh9nIJGv-C8FhsM26hoUwU03qQ9DjbX5ZsyFDdQq-ZDoAS4
p3457
sVwidth
p3458
I1000
sVhtml_attributions
p3459
(lp3460
sVheight
p3461
I667
sa(dp3462
Vphoto_reference
p3463
VCnRnAAAAYWxQJ6-jLabVfNDFBpFYt-yL5Jrj0dXXzcjLWGJfg-QpFHFq_GcV0FR5WPlxwgM-zdkQ_hlDmG_e0ewOZzpYleYAJwYdclRXKyzv8xUtqMpWIFnWmcUYdrbLS7n100BuLyREQTl0vAjYEgAxntdSfxIQzfG0yR1_F5-NZrTujmk0lhoUvc6N5xl7kxeQi43euYAMLuwJJoI
p3464
sVwidth
p3465
I1000
sVhtml_attributions
p3466
(lp3467
sVheight
p3468
I667
sa(dp3469
Vphoto_reference
p3470
VCnRnAAAAdNiLed0bUnQEPfNnUy6SPvFUoaOYOJD0-4aZar-4VRcnd6Ap4B7x97ueSV9dePWvEgaMp8qtN4NQqE-ydMzb9XW_lp6hv7L086Z3c6lYTUB8NRMAxni7SxU9Qj1nssiKB2jmtVOQeQpSEDtDpl9n8hIQ4Zd81G5AaoFF7d-wIiPL5BoU7G-NCem6q74yD3JHrcJcLJiis2k
p3471
sVwidth
p3472
I600
sVhtml_attributions
p3473
(lp3474
sVheight
p3475
I600
sasVtypes
p3476
(lp3477
Vfood
p3478
aVbar
p3479
aVestablishment
p3480
asVicon
p3481
Vhttp://maps.gstatic.com/mapfiles/place_api/icons/bar-71.png
p3482
sVname
p3483
VAnchor Brewing Company
p3484
sVgeometry
p3485
(dp3486
Vlocation
p3487
(dp3488
Vlat
p3489
F37.763222
sVlng
p3490
F-122.400946
sssVadr_address
p3491
V<span class="street-address">1705 Mariposa St</span>, <span class="locality">San Francisco</span>, <span class="region">CA</span> <span class="postal-code">94107</span>, <span class="country-name">United States</span>
p3492
sVinternational_phone_number
p3493
V+1 415-863-8350
p3494
sVreviews
p3495
(lp3496
(dp3497
Vrating
p3498
I5
sVaspects
p3499
(lp3500
(dp3501
Vrating
p3502
I3
sVtype
p3503
Voverall
p3504
sasVlanguage
p3505
Ven
p3506
sVtext
p3507
VThe tour was amazing. Incredibly informative about this amazing 100+ year old brewery and the history behind their method in making inedible beer. The post type trading is a perfect ending after seeing the incredibly large tanks of beer, made with whole hoops that fills the air with a sweet smell that travels throughout the entire brewery, almost ready to enter the bottle with its hand created label. They even have a small stand displaying products with the anchor label ready to take home as a souvenir. \u000a\u000aThis is honestly one of the greatest experiences you will ever have in San Francisco. It requires a reservation month's in advance however that is a small price to pay for this incredible tour, along with the small price of $15 for the tour. I highly recommend it.
p3508
sVauthor_name
p3509
VOscar Velarde
p3510
sVauthor_url
p3511
Vhttps://plus.google.com/103011030476598492144
p3512
sVtime
p3513
I1411697689
sa(dp3514
Vrating
p3515
I5
sVaspects
p3516
(lp3517
(dp3518
Vrating
p3519
I3
sVtype
p3520
Voverall
p3521
sasVlanguage
p3522
Ven
p3523
sVtext
p3524
VI got a free set of tickets to this amazing brewery tour! They are very knowledgeable and clean! (Apparently that's the best way to make beer.) During the tour we were educated not only about the history of the Anchor Brewing company but also how their beers came about and the entire brewing process. After the tour the group got a tasting of all their beer made year round. The guys who gave the tour were engaging and funny. Well worth the money. I'd gladly pay to do it again!
p3525
sVauthor_name
p3526
VMichelle Rowe
p3527
sVauthor_url
p3528
Vhttps://plus.google.com/108974765489459336063
p3529
sVtime
p3530
I1412298568
sa(dp3531
Vrating
p3532
I5
sVaspects
p3533
(lp3534
(dp3535
Vrating
p3536
I3
sVtype
p3537
Voverall
p3538
sasVlanguage
p3539
Ven
p3540
sVtext
p3541
VOne of my favorite local beers. I would highly recommend giving this place and call and setting up a tour of the place. Learn some local SF history about Anchor. Be sure to ask for Bobby if you get a tour. He's great. 
p3542
sVauthor_name
p3543
VRyan Paredez
p3544
sVauthor_url
p3545
Vhttps://plus.google.com/100569678115145725371
p3546
sVtime
p3547
I1392080780
sa(dp3548
Vrating
p3549
I4
sVaspects
p3550
(lp3551
(dp3552
Vrating
p3553
I2
sVtype
p3554
Voverall
p3555
sasVlanguage
p3556
Ven
p3557
sVtext
p3558
VWe were able to get away on a weekday for a tour. It was a good tour, extensive and informative. You try a lot of beer. The employees are upbeat and friendly. Pretty cool facility. Definitely recommend but book a tour early!
p3559
sVauthor_name
p3560
VJenny Gossett
p3561
sVauthor_url
p3562
Vhttps://plus.google.com/101040699501346495649
p3563
sVtime
p3564
I1401831553
sa(dp3565
Vrating
p3566
I5
sVaspects
p3567
(lp3568
(dp3569
Vrating
p3570
I3
sVtype
p3571
Voverall
p3572
sasVlanguage
p3573
Ven
p3574
sVtext
p3575
VThis place rocks. The tour and tour guide Nick is great. Love the samples at the end of the tour. 
p3576
sVauthor_name
p3577
VFernando Arce Jr.
p3578
sVauthor_url
p3579
Vhttps://plus.google.com/100103212720648122433
p3580
sVtime
p3581
I1412307200
sasVformatted_phone_number
p3582
V(415) 863-8350
p3583
sVaddress_components
p3584
(lp3585
(dp3586
Vlong_name
p3587
V1705
p3588
sVtypes
p3589
(lp3590
Vstreet_number
p3591
asVshort_name
p3592
V1705
p3593
sa(dp3594
Vlong_name
p3595
VMariposa St
p3596
sVtypes
p3597
(lp3598
Vroute
p3599
asVshort_name
p3600
VMariposa St
p3601
sa(dp3602
Vlong_name
p3603
VSan Francisco
p3604
sVtypes
p3605
(lp3606
Vlocality
p3607
aVpolitical
p3608
asVshort_name
p3609
VSF
p3610
sa(dp3611
Vlong_name
p3612
VCalifornia
p3613
sVtypes
p3614
(lp3615
Vadministrative_area_level_1
p3616
aVpolitical
p3617
asVshort_name
p3618
VCA
p3619
sa(dp3620
Vlong_name
p3621
VUnited States
p3622
sVtypes
p3623
(lp3624
Vcountry
p3625
aVpolitical
p3626
asVshort_name
p3627
VUS
p3628
sa(dp3629
Vlong_name
p3630
V94107
p3631
sVtypes
p3632
(lp3633
Vpostal_code
p3634
asVshort_name
p3635
V94107
p3636
sa(dp3637
Vlong_name
p3638
V2334
p3639
sVtypes
p3640
(lp3641
Vpostal_code_suffix
p3642
asVshort_name
p3643
V2334
p3644
sassba(ispot
Spot
p3645
(dp3646
g3
Nsg4
(dp3647
Vrating
p3648
F3.9
sVreference
p3649
VCoQBdwAAAAslO8Q-Qk3sef4LI36H6r-SgPeMUrfwX7AIA484m_c-n7KkDnG0Ci7AVZaCKaSyakuxfZJLLHalVisKbJs6bYmd1RNCPpqEMiVZ3zzhaVQgicwQoobrgM4-TRgVg9ayBmivrBIgdoiUPK94OtMiw38KNgEGkLW3P7GLD_GYXvUcEhDho8T52heZuBwpFU34sjGFGhRDouUK4fP3BMpcG78zP1HeCH3jHQ
p3650
sVplace_id
p3651
VChIJ6zMe3oWAhYARaZ33Z1BAMRo
p3652
sVurl
p3653
Vhttps://plus.google.com/106989872492416375687/about?hl=en-US
p3654
sVformatted_address
p3655
V865 Market St, San Francisco, CA 94103, United States
p3656
sVid
p3657
V25d4bf0577c1d6e6c1ad6372dca5c4efaa5d74da
p3658
sVopening_hours
p3659
(dp3660
Vweekday_text
p3661
(lp3662
VMonday: 10:00 am \u2013 8:30 pm
p3663
aVTuesday: 10:00 am \u2013 8:30 pm
p3664
aVWednesday: 10:00 am \u2013 8:30 pm
p3665
aVThursday: 10:00 am \u2013 8:30 pm
p3666
aVFriday: 10:00 am \u2013 8:30 pm
p3667
aVSaturday: 10:00 am \u2013 8:30 pm
p3668
aVSunday: 11:00 am \u2013 7:00 pm
p3669
asVopen_now
p3670
I00
sVperiods
p3671
(lp3672
(dp3673
Vclose
p3674
(dp3675
Vday
p3676
I0
sVtime
p3677
V1900
p3678
ssVopen
p3679
(dp3680
Vday
p3681
I0
sVtime
p3682
V1100
p3683
ssa(dp3684
Vclose
p3685
(dp3686
Vday
p3687
I1
sVtime
p3688
V2030
p3689
ssVopen
p3690
(dp3691
Vday
p3692
I1
sVtime
p3693
V1000
p3694
ssa(dp3695
Vclose
p3696
(dp3697
Vday
p3698
I2
sVtime
p3699
V2030
p3700
ssVopen
p3701
(dp3702
Vday
p3703
I2
sVtime
p3704
V1000
p3705
ssa(dp3706
Vclose
p3707
(dp3708
Vday
p3709
I3
sVtime
p3710
V2030
p3711
ssVopen
p3712
(dp3713
Vday
p3714
I3
sVtime
p3715
V1000
p3716
ssa(dp3717
Vclose
p3718
(dp3719
Vday
p3720
I4
sVtime
p3721
V2030
p3722
ssVopen
p3723
(dp3724
Vday
p3725
I4
sVtime
p3726
V1000
p3727
ssa(dp3728
Vclose
p3729
(dp3730
Vday
p3731
I5
sVtime
p3732
V2030
p3733
ssVopen
p3734
(dp3735
Vday
p3736
I5
sVtime
p3737
V1000
p3738
ssa(dp3739
Vclose
p3740
(dp3741
Vday
p3742
I6
sVtime
p3743
V2030
p3744
ssVopen
p3745
(dp3746
Vday
p3747
I6
sVtime
p3748
V1000
p3749
ssassVvicinity
p3750
V865 Market St, San Francisco
p3751
sVscope
p3752
VGOOGLE
p3753
sVwebsite
p3754
Vhttp://www.westfield.com/sanfrancisco
p3755
sVutc_offset
p3756
I-480
sVuser_ratings_total
p3757
I424
sVphotos
p3758
(lp3759
(dp3760
Vphoto_reference
p3761
VCnRqAAAAV5EzqHfgO4gj5JAJyUuUYn_dcjGG3kEn-1rFkiq6tnw0tUJ2uREf3Xqf9HCTJhfEceVA3vjIHe0NgaUGCd6meHhkb7v7oSmz2mfMAEqj_sGaswz8lqNFqqfvReIZ1f6YrtXTS2_I_z2tmxv_tYc3_RIQGi_bzmNGt-BGnA3UGt_rhRoUc7KlwBaU6xBl2M3DTBh1Ci9NQOw
p3762
sVwidth
p3763
I336
sVhtml_attributions
p3764
(lp3765
sVheight
p3766
I448
sa(dp3767
Vphoto_reference
p3768
VCpQBggAAAAZ_L30-r0SBtWIRONZA20jU-8utSnSAgXp_udQQdZWwftFTi8JDnXPKXNeptgm9jSTa1tUymiktdsPKfmvkSmG1dyDU6q4rEFyVv675bFyobDSbe66DxFDw-85b245cjDEcLsFXHxXpZVy_8XyMpFS3wopRS0_aJFhGrv8SShh1MyVe1COtQsq5fzVrUK1dRBIQ5C_Vjo83uTcJMRIgWn07cBoUscBYP_idQHjLChR9AFREUnLdSwE
p3769
sVwidth
p3770
I1632
sVhtml_attributions
p3771
(lp3772
VFrom a Google User
p3773
asVheight
p3774
I976
sa(dp3775
Vphoto_reference
p3776
VCpQBggAAABdf-GsRXnuYMF1m4YFpXjgGEQpnElBcUGyMKbPULx5B7LqAUufZESYMJ-QuB9GaJYQkaWMsSaiBsvzeqQA4ePr01hwrswQYP-oF3mCiAsVSE721a3NhAPYq_lPLSr7nwegT79IpMy9bT1fr-kR-KdznwfKzfjIZnjX_fLdZnJsw2gXTnHkr1LN_9BOFbx5GuhIQCA6Ugg1LOrfrUNW56rCejhoU9CKwwYPYpYkjFKN71CQK2NfECq4
p3777
sVwidth
p3778
I960
sVhtml_attributions
p3779
(lp3780
V<a href="https://plus.google.com/104122760120991086547">Eddy Veras</a>
p3781
asVheight
p3782
I540
sa(dp3783
Vphoto_reference
p3784
VCnRoAAAAxcX3mxbkFFb1zx1Nnqx9tTNzP3TuX1V2t_voJagXoswJHerB8EOs1niJhD9NelCQEtqxhpRnRHCGF3AWKBo6dd9r4H2vIEMFxtipI84kvxYBnPJmboqOtIe6ilLCllC6H8vj8CEg053gQPl6YbY3kRIQf_nuJAQomeZvM-H4mYik8BoUbbIHH-mQyunhLMzTkqp6-AaL_UI
p3785
sVwidth
p3786
I896
sVhtml_attributions
p3787
(lp3788
V<a href="https://plus.google.com/102202411800644964458">Tarek Auel</a>
p3789
asVheight
p3790
I448
sa(dp3791
Vphoto_reference
p3792
VCpQBggAAAFPAfzNgGzIxgwAENyPUnlKUXeEsvOd0AMexOzEBePqeIeR6n4pnWR3Wub80VI-UudFdGtLtj7_m4bDVZ2Ss894_jQeGe0eS16NiEc56u3A5NcG_6jC8SHRusncA4qpSc_Wg4K4t0k2ClEqRsZEZlDOESx93GUUUIwY_W75id2yiNy7v1FNlFTyTyGUK0s5CKRIQ6_s77QJxago93Xl7Ldo_aBoU-ELSonLLtKy515ZPYo2NSDOxjIk
p3793
sVwidth
p3794
I640
sVhtml_attributions
p3795
(lp3796
VFrom a Google User
p3797
asVheight
p3798
I480
sa(dp3799
Vphoto_reference
p3800
VCnRoAAAAytx7OGjfCUBgsiGHyRl5gNjWT7x10GAw6Ob_5ah0LfXmB5w3CAThC70KhRw7J5OpkHh1STqHqUbzv7l0Es3PS7rvnlMHnbWuGaj3kpKpL8zaIz0pZCQW8_84URzakScO16QY2r3ZiyfTvwC8KwlY7hIQFIqVfBUgYN_E7i8E_p-OThoUK6XRTUFDTSt23TtJEmZf10lQoZ0
p3801
sVwidth
p3802
I640
sVhtml_attributions
p3803
(lp3804
V<a href="https://plus.google.com/105160613024897619532">Abdullah Al Marshed</a>
p3805
asVheight
p3806
I640
sa(dp3807
Vphoto_reference
p3808
VCpQBggAAAPBTRW8JD-vC6vfbMABBBScY5lAlmJAzHUBdIeiSASsCl4lFLyIuahXzSjQBtYFIgUXg_gAEloDVgIXGPWtlpoTttyWquOi23xGQZLNhyy_I0olLpspXmVxO-SY1snFoFpctA0by1AYfOGmAT5Y6ygJdyEruVe2XgVoVVQHO3dEQflzIt09zdy5PZ4bZDE-NlRIQ9lDo2N47fkvGIFvptSU5wxoUxC-VlT-VwveSAdSuTG13HH8PMLU
p3809
sVwidth
p3810
I1296
sVhtml_attributions
p3811
(lp3812
VFrom a Google User
p3813
asVheight
p3814
I776
sa(dp3815
Vphoto_reference
p3816
VCnRqAAAAxj-TtkZAjXzA9H1w9NehANPByoNnWybIfk2lo-XavwaiTx-NuEFB0A1Rlof00dxRqxCEK7gADpvz9p_utHeeC2zrMhhfdy4XmgXGCMeqoQ6mDJOksI8nNHy9GpQxh9nBykqGjnVEgkYrhEUiXQhnVRIQshVYbhUO5MeW9N4zQg-SVBoUSO7kXekysKrKnKPmbSF1WjFGm1Y
p3817
sVwidth
p3818
I448
sVhtml_attributions
p3819
(lp3820
sVheight
p3821
I156
sasVtypes
p3822
(lp3823
Vshopping_mall
p3824
aVestablishment
p3825
asVicon
p3826
Vhttp://maps.gstatic.com/mapfiles/place_api/icons/generic_business-71.png
p3827
sVname
p3828
VWestfield San Francisco Centre
p3829
sVgeometry
p3830
(dp3831
Vlocation
p3832
(dp3833
Vlat
p3834
F37.784143
sVlng
p3835
F-122.407361
sssVadr_address
p3836
V<span class="street-address">865 Market St</span>, <span class="locality">San Francisco</span>, <span class="region">CA</span> <span class="postal-code">94103</span>, <span class="country-name">United States</span>
p3837
sVinternational_phone_number
p3838
V+1 415-495-5656
p3839
sVreviews
p3840
(lp3841
(dp3842
Vrating
p3843
I5
sVaspects
p3844
(lp3845
(dp3846
Vrating
p3847
I3
sVtype
p3848
Voverall
p3849
sasVlanguage
p3850
Ven
p3851
sVtext
p3852
VThis mall offers an all-inclusive customer experience with shops, restaurants, a full service spa, grocery store and theater all under one roof. You can easily spend an entire day browsing, shopping, eating and relaxing with the added convenience of accessing an attached BART station. They offer a good variety of shops and department stores, including one of my favorites, Bloomingdales. Bristol Farms is a very fun gourmet grocery store to peruse and buy, with a wonderful variety of food that even the most discriminating eaters can select from. 
p3853
sVauthor_name
p3854
VLana C
p3855
sVauthor_url
p3856
Vhttps://plus.google.com/104200568677644151902
p3857
sVtime
p3858
I1408153162
sa(dp3859
Vrating
p3860
I5
sVaspects
p3861
(lp3862
(dp3863
Vrating
p3864
I3
sVtype
p3865
Voverall
p3866
sasVlanguage
p3867
Ven
p3868
sVtext
p3869
Vh t t p s : / / t . c o / S e 2 W S e R x Q G 
p3870
sVauthor_name
p3871
VRoyce Rollzae
p3872
sVauthor_url
p3873
Vhttps://plus.google.com/115845183049449381542
p3874
sVtime
p3875
I1408723479
sa(dp3876
Vrating
p3877
I1
sVaspects
p3878
(lp3879
(dp3880
Vrating
p3881
I0
sVtype
p3882
Voverall
p3883
sasVlanguage
p3884
Ven
p3885
sVtext
p3886
VIt was a very bad shopping experience at Westfield, San Francisco Centre. I was eating my  lunch  by Sarku Japan when i saw a black man sat down beside me and suddenly he snatched my phone then ran off. But the securities are very stupid, they can't  run fast to catch up the robber. Just run very slowly, i'm so angry. i cannot believe that my phone was snatched in a big shopping mall. It is a Westfield big shopping mall, not a small place or on the street.  The safety system is very very poor of Westfield San Francisco Centre !!!!
p3887
sVauthor_name
p3888
Vhuijie woo
p3889
sVauthor_url
p3890
Vhttps://plus.google.com/107279968104690970437
p3891
sVtime
p3892
I1398414301
sa(dp3893
Vrating
p3894
I4
sVaspects
p3895
(lp3896
(dp3897
Vrating
p3898
I2
sVtype
p3899
Voverall
p3900
sasVlanguage
p3901
Ven
p3902
sVtext
p3903
VBeautiful, historic architecture inside the mall.  The amount of stores is a bit overwhelming, and it is typically crowded.  You can find almost any store you want in the mall (no See's chocolate though).  The food court has a very large selection of choices.  Parking across the street can get expensive.  I like to take out of town visitors here to take pictures.  The dome is super impressive.
p3904
sVauthor_name
p3905
VLibby Chang
p3906
sVauthor_url
p3907
Vhttps://plus.google.com/105175245829173637529
p3908
sVtime
p3909
I1394606800
sa(dp3910
Vrating
p3911
I4
sVaspects
p3912
(lp3913
(dp3914
Vrating
p3915
I2
sVtype
p3916
Voverall
p3917
sasVlanguage
p3918
Ven
p3919
sVtext
p3920
VI like the architecture of the Westfield. Explore the top level (dome) for some nicer areas to sit and also for the new, upscale restaurants.
p3921
sVauthor_name
p3922
VTye Chait
p3923
sVauthor_url
p3924
Vhttps://plus.google.com/100427141882576084440
p3925
sVtime
p3926
I1407698304
sasVformatted_phone_number
p3927
V(415) 495-5656
p3928
sVaddress_components
p3929
(lp3930
(dp3931
Vlong_name
p3932
V865
p3933
sVtypes
p3934
(lp3935
Vstreet_number
p3936
asVshort_name
p3937
V865
p3938
sa(dp3939
Vlong_name
p3940
VMarket St
p3941
sVtypes
p3942
(lp3943
Vroute
p3944
asVshort_name
p3945
VMarket St
p3946
sa(dp3947
Vlong_name
p3948
VSan Francisco
p3949
sVtypes
p3950
(lp3951
Vlocality
p3952
aVpolitical
p3953
asVshort_name
p3954
VSF
p3955
sa(dp3956
Vlong_name
p3957
VSan Francisco County
p3958
sVtypes
p3959
(lp3960
Vadministrative_area_level_2
p3961
aVpolitical
p3962
asVshort_name
p3963
VSan Francisco County
p3964
sa(dp3965
Vlong_name
p3966
VCalifornia
p3967
sVtypes
p3968
(lp3969
Vadministrative_area_level_1
p3970
aVpolitical
p3971
asVshort_name
p3972
VCA
p3973
sa(dp3974
Vlong_name
p3975
VUnited States
p3976
sVtypes
p3977
(lp3978
Vcountry
p3979
aVpolitical
p3980
asVshort_name
p3981
VUS
p3982
sa(dp3983
Vlong_name
p3984
V94103
p3985
sVtypes
p3986
(lp3987
Vpostal_code
p3988
asVshort_name
p3989
V94103
p3990
sassba(ispot
Spot
p3991
(dp3992
g3
Nsg4
(dp3993
Vrating
p3994
F3.9
sVreference
p3995
VCnRmAAAAr-xijOtofzfbBKPqHPNpExh3w0Sj_0qtmto_hekUqg8VoZuxDQFL8owmXGdELtykoFjQXGgVj26VckrHDwDHAhJlbF-LgfqXgtw-SX9YGhbCT0qv-i8_tN6iFQD8eoatXI3Sfx59GnCPB4vH_JmKPRIQ8ruEw2WiVFKohi2kReEo1hoUgK2kBgEg3oCrTDkC163HLINspO8
p3996
sVprice_level
p3997
I0
sVplace_id
p3998
VChIJJ6m71o6AhYARiUxigIz3gLw
p3999
sVurl
p4000
Vhttps://plus.google.com/105424703974286241832/about?hl=en-US
p4001
sVformatted_address
p4002
V333 Post St, San Francisco, CA 94108, United States
p4003
sVid
p4004
Vb49a3811f38d6725cd7f95b00b4f03593c62b5de
p4005
sVopening_hours
p4006
(dp4007
Vweekday_text
p4008
(lp4009
VMonday: 9:00 am \u2013 12:00 am
p4010
aVTuesday: 9:00 am \u2013 12:00 am
p4011
aVWednesday: 9:00 am \u2013 12:00 am
p4012
aVThursday: 9:00 am \u2013 12:00 am
p4013
aVFriday: 9:00 am \u2013 12:00 am
p4014
aVSaturday: 9:00 am \u2013 12:00 am
p4015
aVSunday: 9:00 am \u2013 12:00 am
p4016
asVopen_now
p4017
I01
sVperiods
p4018
(lp4019
(dp4020
Vclose
p4021
(dp4022
Vday
p4023
I1
sVtime
p4024
V0000
p4025
ssVopen
p4026
(dp4027
Vday
p4028
I0
sVtime
p4029
V0900
p4030
ssa(dp4031
Vclose
p4032
(dp4033
Vday
p4034
I2
sVtime
p4035
V0000
p4036
ssVopen
p4037
(dp4038
Vday
p4039
I1
sVtime
p4040
V0900
p4041
ssa(dp4042
Vclose
p4043
(dp4044
Vday
p4045
I3
sVtime
p4046
V0000
p4047
ssVopen
p4048
(dp4049
Vday
p4050
I2
sVtime
p4051
V0900
p4052
ssa(dp4053
Vclose
p4054
(dp4055
Vday
p4056
I4
sVtime
p4057
V0000
p4058
ssVopen
p4059
(dp4060
Vday
p4061
I3
sVtime
p4062
V0900
p4063
ssa(dp4064
Vclose
p4065
(dp4066
Vday
p4067
I5
sVtime
p4068
V0000
p4069
ssVopen
p4070
(dp4071
Vday
p4072
I4
sVtime
p4073
V0900
p4074
ssa(dp4075
Vclose
p4076
(dp4077
Vday
p4078
I6
sVtime
p4079
V0000
p4080
ssVopen
p4081
(dp4082
Vday
p4083
I5
sVtime
p4084
V0900
p4085
ssa(dp4086
Vclose
p4087
(dp4088
Vday
p4089
I0
sVtime
p4090
V0000
p4091
ssVopen
p4092
(dp4093
Vday
p4094
I6
sVtime
p4095
V0900
p4096
ssassVvicinity
p4097
V333 Post St, San Francisco
p4098
sVscope
p4099
VGOOGLE
p4100
sVwebsite
p4101
Vhttp://www.visitunionsquaresf.com/
p4102
sVutc_offset
p4103
I-480
sVuser_ratings_total
p4104
I257
sVphotos
p4105
(lp4106
(dp4107
Vphoto_reference
p4108
VCoQBcwAAAIKmVuKY4QK8fiQjTU5OzVdAy8I1WE1GJOYaZ1bkfUFnoEm0Tdstehm1yQQ7QLxLerIt5InYzDcOQZWcGL7BfBTP0Dv5b7o0WphbNni6sQv2D9u-U4oc5C5AhcpUePR8MtHoxbC-zWDhQFIzbXxSg39Ij29kyx92pJdgF6FT1Q7KEhCJJQ5YR1BeQhpE1BrK2D0tGhTgjms1xKubM41ux2sjaXJ5aRWSwg
p4109
sVwidth
p4110
I1296
sVhtml_attributions
p4111
(lp4112
VFrom a Google User
p4113
asVheight
p4114
I776
sa(dp4115
Vphoto_reference
p4116
VCoQBcwAAAKMaBawpa7CeFNbrPbAiznJyBnG7YBdRfxlHXdesXIM0xUigctU8N0vWM9yd1wW9_Dx_QVbPtG5mdEop0PURw2b9316jMj3ZY24cWV5tCNvrWuB_BNSyPzInbN80-JzdhXTXjLdsQU9Z18bXmUdT23uTkfBPeGdLqw5Z6IIN-82fEhCPqnQs4RZUMVF99P-VVq3hGhQKIcI4qdW8-4iUvpUy2JYmqnuG0A
p4117
sVwidth
p4118
I768
sVhtml_attributions
p4119
(lp4120
VFrom a Google User
p4121
asVheight
p4122
I1024
sa(dp4123
Vphoto_reference
p4124
VCoQBcwAAAETOyZx-EHqDvkHhbyDWgp5ZwqHFpyrxwCAlCpNsS1iKDeNUf4AVKFpdVi8NOiPa3kQHzQydREUZ1HThPGn-J7Adww2tWDWbBsxuYuiHI-89Z7Wbbj8AVtPr3LHgPkRtVu4CpDjKw4xrEcF2XnltWuvhYv2okx9STJnZPElsRUz0EhDRgQQTuYo_bUmq7jFyPWmrGhT24Tw4hnGZQMIa-o9B7nxZCvFb6Q
p4125
sVwidth
p4126
I1296
sVhtml_attributions
p4127
(lp4128
V<a href="https://plus.google.com/111947489942124903382">Farrel Buchinsky</a>
p4129
asVheight
p4130
I972
sa(dp4131
Vphoto_reference
p4132
VCnRoAAAA-NdKWqPOD7cw8A0qO3e1ziBnw9q4yGFT8cNY-y4tGdNHL5MWVK5sj7SkhkYmD656QivKMjivJMi0kwEMluHD58uUG4ZSSZH8E_q5FTLIODsFbxl-zWV0jc8xrGaTpvfxo1bj78qsTHxh7N4JxwKWhhIQg-g-oPK6S2n1kq6nVISMTRoUS-EvmiElW2655DmDmH4g-niyz8M
p4133
sVwidth
p4134
I1265
sVhtml_attributions
p4135
(lp4136
V<a href="https://plus.google.com/102690091571148307715">Amy Meyer</a>
p4137
asVheight
p4138
I949
sa(dp4139
Vphoto_reference
p4140
VCoQBcwAAADddK37Oss2Jl5X85OKE1Ut6ztLLHwMpM0ovS3Ng5Np4eOhRAZfDyRwTWfRahnLDWaz8roYNvhI1_mKDNJpszxG-3-I2n1QKNdItPz6stdArocrMkmV6Mh7zGbIiOCyL9h4MMkRbNIPkD7tOaSiOFAKPs1G51CDRVRmdyvqI_yoGEhDFUKmH944bMnv7oL1FdsXkGhQWB0KQVfpWqYLmEdGqSn3YnlFImQ
p4141
sVwidth
p4142
I972
sVhtml_attributions
p4143
(lp4144
VFrom a Google User
p4145
asVheight
p4146
I1296
sa(dp4147
Vphoto_reference
p4148
VCnRoAAAACclaDiP_Wmx6dJHP5Pjhb3qXr9BwKTfOo25EkHWKqE5I-XCscxeYDoduVXFBORJr9OzQgyW71sqIblZjjJpcTGOoAX1YndKQZJBlkFWftWiJaMFB9WMLSSUZsKWOYTbS-BMS6H2dRLR9uuZzTdQU2RIQwNEaskv9N30uEc0EkF8QHhoUCQ3MoFiG6EEtSLMYk4Oiv3h9h4o
p4149
sVwidth
p4150
I1224
sVhtml_attributions
p4151
(lp4152
V<a href="https://plus.google.com/108708262973663947907">Armando Besa</a>
p4153
asVheight
p4154
I1632
sa(dp4155
Vphoto_reference
p4156
VCoQBcwAAACNvgBfbtjm_dwFrx4TeD6d07ULW7zBKpfqFguc1dqtecygLC_j1Q8iuj_Kg0iNsNGnO4URNrwaHafFqScYocwvZ1ukePSvzZ6oLyKHfPfxHaK1RxSfquzS1uYnb1c7POXvR17Mpa8N8jc__H6euAGlV1WDVwfZAyh3QBOvJaj5XEhBmSgMlVMaIOemP9pNZFxdkGhRKR9IUgjhPM1RABjhHtE9g3gczLA
p4157
sVwidth
p4158
I776
sVhtml_attributions
p4159
(lp4160
VFrom a Google User
p4161
asVheight
p4162
I1296
sa(dp4163
Vphoto_reference
p4164
VCoQBcwAAAC2p43K9pQPbGbLjenPr5gumKTOMCyfVkdCe-cWgBosuiPSIqjYHid52hN8u7YC57tXVvsvAl-xk-I7olQSCxxjjcomxfTuuesHwzgNfeDpZmD33qgnTwUe5zjRjvF9upw7KDYyRlYxppAedSG2cnlZWBL3Ox9unkXpLrpNw2rCmEhDbYyKlip4XqhICbphZ0YVtGhR0CnwV6A3T9vW8xDCf-wcZFJSbZg
p4165
sVwidth
p4166
I960
sVhtml_attributions
p4167
(lp4168
V<a href="https://plus.google.com/109673904073317858708">Peter Wood</a>
p4169
asVheight
p4170
I1280
sa(dp4171
Vphoto_reference
p4172
VCnRoAAAAGos_Xq3oJx8846nP1vF2dhsMX6lm7o858M1B445VhaT2nC_Cv9yV8FOI9CVPSiJK6QaEAxfFWmHG_KRd6mXhCWRlO7VfTxLisPSSIv9oWOXd7tZfiCimaFGawpTymOZbfTbTL_0V77Z7I0qOHXgUPxIQWyWR2eCWrZvwGLZZL6bhJRoUDvN4n1E-b-9Pp8F_pq464GDIO20
p4173
sVwidth
p4174
I816
sVhtml_attributions
p4175
(lp4176
V<a href="https://plus.google.com/101350698429042644706">Sergio Rodriguez de Guzman</a>
p4177
asVheight
p4178
I612
sa(dp4179
Vphoto_reference
p4180
VCnRoAAAAL9I25jN0UvZiTzot89tuGbsuv7Im_8FAzWr7GsBUAStjnlGO3BtqtimQ8ZQHEZHNZ_A78BKQadk9BkcMFsCcOXI1h36Sk_qZok55mdBdfIlbd_A8mkK90w-zPhRwaSau1yYEv_05_EX-S9y15KPH4BIQw8gcl6GTKEmTw3QXLTJX9RoUmziiqFRevOOrRBdFvnmN0dzByjw
p4181
sVwidth
p4182
I1632
sVhtml_attributions
p4183
(lp4184
V<a href="https://plus.google.com/108708262973663947907">Armando Besa</a>
p4185
asVheight
p4186
I1224
sasVtypes
p4187
(lp4188
Vpark
p4189
aVestablishment
p4190
asVicon
p4191
Vhttp://maps.gstatic.com/mapfiles/place_api/icons/generic_business-71.png
p4192
sVname
p4193
VUnion Square
p4194
sVgeometry
p4195
(dp4196
Vlocation
p4197
(dp4198
Vlat
p4199
F37.787994
sVlng
p4200
F-122.407437
sssVadr_address
p4201
V<span class="street-address">333 Post St</span>, <span class="locality">San Francisco</span>, <span class="region">CA</span> <span class="postal-code">94108</span>, <span class="country-name">United States</span>
p4202
sVinternational_phone_number
p4203
V+1 415-477-2610
p4204
sVreviews
p4205
(lp4206
(dp4207
Vrating
p4208
I4
sVaspects
p4209
(lp4210
(dp4211
Vrating
p4212
I2
sVtype
p4213
Voverall
p4214
sasVlanguage
p4215
Ven
p4216
sVtext
p4217
VUnion Square is a great place for tourists. However, for locals it could be quite a headache driving downtown. There are a lot of activities to do in the area. The most beautiful time of year to go is around Christmas time because they set up amazing light displays as well as decorations and an ice skating rink! A great place to take visitors to take pictures
p4218
sVauthor_name
p4219
VLisa Lai
p4220
sVauthor_url
p4221
Vhttps://plus.google.com/111028865577258308025
p4222
sVtime
p4223
I1415740202
sa(dp4224
Vrating
p4225
I5
sVaspects
p4226
(lp4227
(dp4228
Vrating
p4229
I3
sVtype
p4230
Voverall
p4231
sasVlanguage
p4232
Ven
p4233
sVtext
p4234
VA must see in San Francisco! Like it's name, it's quite literally a square. There is something super special about this place though. Lots of activity, stores, restaurants, etc.... My favorite spots here are: Zara, Uniqlo, Apple Store, and Nike. And of course the higher end stores :P Tip: Try to avoid going on a Sunday since most cafes closes.
p4235
sVauthor_name
p4236
VEarl Friedberg
p4237
sVauthor_url
p4238
Vhttps://plus.google.com/110040772890698655598
p4239
sVtime
p4240
I1415723615
sa(dp4241
Vrating
p4242
I5
sVaspects
p4243
(lp4244
(dp4245
Vrating
p4246
I3
sVtype
p4247
Voverall
p4248
sasVlanguage
p4249
Ven
p4250
sVtext
p4251
VBest place for hanging out and working outside. Has free tables, free wifi and free power outlets. What else do you need?
p4252
sVauthor_name
p4253
VGevorg Madzharyan
p4254
sVauthor_url
p4255
Vhttps://plus.google.com/101851695849425096196
p4256
sVtime
p4257
I1413327706
sa(dp4258
Vrating
p4259
I4
sVaspects
p4260
(lp4261
(dp4262
Vrating
p4263
I2
sVtype
p4264
Voverall
p4265
sasVlanguage
p4266
Ven
p4267
sVtext
p4268
VA must see in San Francisco! As per it's name, it's quite literally a square. But there is something special about this place, morning, noon or night. It's a hub of activity and an entertaining place to rest your legs before exploring the rest of the city. 
p4269
sVauthor_name
p4270
VAmy Meyer
p4271
sVauthor_url
p4272
Vhttps://plus.google.com/102690091571148307715
p4273
sVtime
p4274
I1407809789
sa(dp4275
Vrating
p4276
I4
sVaspects
p4277
(lp4278
(dp4279
Vrating
p4280
I2
sVtype
p4281
Voverall
p4282
sasVlanguage
p4283
Ven
p4284
sVtext
p4285
VUnion Square is a nice, photogenic park in the heart of downtown.  It is near to many restaurants, shops, and hotels.  With heart-shaped sculptures at each corner, it's a popular tourist destination.  I have not attended any events at Union Square, but based on the location, expect crowds.  Also, below the park is a multi-story parking garage.  I often circled the park looking for street parking before realizing this.
p4286
sVauthor_name
p4287
VKeith Achorn
p4288
sVauthor_url
p4289
Vhttps://plus.google.com/110171932238566208341
p4290
sVtime
p4291
I1394595948
sasVformatted_phone_number
p4292
V(415) 477-2610
p4293
sVaddress_components
p4294
(lp4295
(dp4296
Vlong_name
p4297
V333
p4298
sVtypes
p4299
(lp4300
Vstreet_number
p4301
asVshort_name
p4302
V333
p4303
sa(dp4304
Vlong_name
p4305
VPost St
p4306
sVtypes
p4307
(lp4308
Vroute
p4309
asVshort_name
p4310
VPost St
p4311
sa(dp4312
Vlong_name
p4313
VSan Francisco
p4314
sVtypes
p4315
(lp4316
Vlocality
p4317
aVpolitical
p4318
asVshort_name
p4319
VSF
p4320
sa(dp4321
Vlong_name
p4322
VCalifornia
p4323
sVtypes
p4324
(lp4325
Vadministrative_area_level_1
p4326
aVpolitical
p4327
asVshort_name
p4328
VCA
p4329
sa(dp4330
Vlong_name
p4331
VUnited States
p4332
sVtypes
p4333
(lp4334
Vcountry
p4335
aVpolitical
p4336
asVshort_name
p4337
VUS
p4338
sa(dp4339
Vlong_name
p4340
V94108
p4341
sVtypes
p4342
(lp4343
Vpostal_code
p4344
asVshort_name
p4345
V94108
p4346
sassba(ispot
Spot
p4347
(dp4348
g3
Nsg4
(dp4349
Vrating
p4350
F4.5
sVreference
p4351
VCnRqAAAAnmfl4oNuJAPHARc7TRbiOKqxhhRteYTgzxOaXskS9dHxivvwDT3uFhhv9YwPcHAClpvbAweHBq8doJY5fliRMJh9-O6UsoUBUsJ2B5OKcRm2jFtJ5G4mR8IA0G0dzgPhxnnWBIHmgAOvmhJQqajD6RIQExZ1L5WgGoi4FM0usYBTXxoUTnUmpIqY-zr_iScHthw72VP5oAo
p4352
sVplace_id
p4353
VChIJk2vl5NSGhYARwPGvs_ubIws
p4354
sVurl
p4355
Vhttps://plus.google.com/104270379098812187233/about?hl=en-US
p4356
sVformatted_address
p4357
VPier 15, San Francisco, CA 94111, United States
p4358
sVid
p4359
V9ae214e0b27d97ce2eed7cfd87a119be8820e748
p4360
sVopening_hours
p4361
(dp4362
Vweekday_text
p4363
(lp4364
VMonday: Closed
p4365
aVTuesday: 10:00 am \u2013 5:00 pm
p4366
aVWednesday: 10:00 am \u2013 5:00 pm
p4367
aVThursday: 10:00 am \u2013 5:00 pm
p4368
aVFriday: 10:00 am \u2013 5:00 pm
p4369
aVSaturday: 10:00 am \u2013 5:00 pm
p4370
aVSunday: 10:00 am \u2013 5:00 pm
p4371
asVopen_now
p4372
I00
sVperiods
p4373
(lp4374
(dp4375
Vclose
p4376
(dp4377
Vday
p4378
I0
sVtime
p4379
V1700
p4380
ssVopen
p4381
(dp4382
Vday
p4383
I0
sVtime
p4384
V1000
p4385
ssa(dp4386
Vclose
p4387
(dp4388
Vday
p4389
I2
sVtime
p4390
V1700
p4391
ssVopen
p4392
(dp4393
Vday
p4394
I2
sVtime
p4395
V1000
p4396
ssa(dp4397
Vclose
p4398
(dp4399
Vday
p4400
I3
sVtime
p4401
V1700
p4402
ssVopen
p4403
(dp4404
Vday
p4405
I3
sVtime
p4406
V1000
p4407
ssa(dp4408
Vclose
p4409
(dp4410
Vday
p4411
I4
sVtime
p4412
V1700
p4413
ssVopen
p4414
(dp4415
Vday
p4416
I4
sVtime
p4417
V1000
p4418
ssa(dp4419
Vclose
p4420
(dp4421
Vday
p4422
I5
sVtime
p4423
V1700
p4424
ssVopen
p4425
(dp4426
Vday
p4427
I5
sVtime
p4428
V1000
p4429
ssa(dp4430
Vclose
p4431
(dp4432
Vday
p4433
I6
sVtime
p4434
V1700
p4435
ssVopen
p4436
(dp4437
Vday
p4438
I6
sVtime
p4439
V1000
p4440
ssassVvicinity
p4441
VPier 15, San Francisco
p4442
sVscope
p4443
VGOOGLE
p4444
sVwebsite
p4445
Vhttp://www.exploratorium.edu/
p4446
sVutc_offset
p4447
I-480
sVuser_ratings_total
p4448
I296
sVphotos
p4449
(lp4450
(dp4451
Vphoto_reference
p4452
VCnRoAAAASI8Rz1l3CkUrf8ER2dMNDV7LtYoJ6sNC6rJ0k1KHvJd4FEvmcHu_WrMW2RA6hyDhDxR8da9URyYJh5jjJ_iqpssOjC0Izf8yqyEfKFYKXEi7L1-RTsMLAkexUWJPBRTWMEevJ-RG-zj2GEpivUu-FhIQl0Xb0sjOgHWfAB44b-tQjxoUx3W1E4uR3dzMGSCacVxVTkDRVoQ
p4453
sVwidth
p4454
I1632
sVhtml_attributions
p4455
(lp4456
V<a href="https://plus.google.com/114317162158984154862">Dave Wong</a>
p4457
asVheight
p4458
I1224
sa(dp4459
Vphoto_reference
p4460
VCnRqAAAAWMpSCOl7rnXp9x42-Ll59KgvUqgDqq4mz_oupDc9RqfsnmxXyBmnNolbfP98to_1v9lkYlIroCdD-o1M6MR5RpiztksBKRzfvZYcmFeE8waBKk3MU1heZ_dHt6nF1Pkc2ZYcReyQTirRUIw982aeSxIQ-plaK-Wi74K_s46O3PH9PBoU1UL85sg-UW8sKx9MtEUXBlW8n7k
p4461
sVwidth
p4462
I800
sVhtml_attributions
p4463
(lp4464
V<a href="https://plus.google.com/104386105875622819823">Adrianna Cai</a>
p4465
asVheight
p4466
I1067
sa(dp4467
Vphoto_reference
p4468
VCnRrAAAAIOGLgChMaKVfxPz3yfxfO6RPZxzcMopoc7KwAs5lm89GPfnpq0iyBXBXRum1QsFrnlnsilhHMXPbAD4nrubc3yIIIO6BAwm1hi2SSEHYjDzg3cuTFb9pCF_M_ZUk5NmrTZFzB2qznRs10PbVFc7xHRIQMBbGCNqCzqFaO3kqAMS1CBoUVT1u4AZ8OCkpSa97iCeN1xF8SYc
p4469
sVwidth
p4470
I960
sVhtml_attributions
p4471
(lp4472
V<a href="https://plus.google.com/115308343643348370972">Tonia Smith</a>
p4473
asVheight
p4474
I1280
sa(dp4475
Vphoto_reference
p4476
VCnRqAAAAHqYwSn8gDKz0Qz2jrBkF3HbnVymK9SoVKgJMIK9zARa_i31rP-ofrKMfdAFQky_k_0YTYuKe9PmwtcLjBaMGrSLC3IdwrEASHP66DajLunVrngxW-T34ZQBYNPCJ_e-8mlbyMfus8GRaYgYTwhmpKxIQs0wnUIx7-DP0-oSx3HoClRoUX5fyrVlno3g0bDsE4GQQvHWbmMw
p4477
sVwidth
p4478
I800
sVhtml_attributions
p4479
(lp4480
V<a href="https://plus.google.com/104386105875622819823">Adrianna Cai</a>
p4481
asVheight
p4482
I600
sa(dp4483
Vphoto_reference
p4484
VCnRoAAAAB0CnmiY0rSaexYduSrJka63rDJ79HTSpflHwslwLXSJZ9gvrQFo8D6sfa5Vr9K2uwCpMEEgTYP9oOGAl-_3kJEmtbKWsTlcZ2NeLYWweVVqtiLAmOqHi_LdIOo7I56YsiTFM82RHHIUZqUPqgdagthIQl6um8TpnVftNpmSGx--clBoUYnmXtvFIY9FA3zVcnfPSNHMigZc
p4485
sVwidth
p4486
I960
sVhtml_attributions
p4487
(lp4488
V<a href="https://plus.google.com/104757709404454136276">Farzad Sharif</a>
p4489
asVheight
p4490
I720
sa(dp4491
Vphoto_reference
p4492
VCnRqAAAA6czDarqdegWnWOFUQaT6Kyz4gHSKxtgd9wbGie8YOYfdnDf30QTyjea9A7ExDbEE6oul9RC7FE6XcVlkz-vvUG-uprBwLUP3mqKwdlmld8dmRiCwXODjje6zseufVGjD5pOIlGd5iYvY56YNHLXmfRIQZErK0VrnsrJIp9CUNJ8IOhoUdtlxHl4DQ_4OHObyTw3yXs8Yd88
p4493
sVwidth
p4494
I800
sVhtml_attributions
p4495
(lp4496
V<a href="https://plus.google.com/104386105875622819823">Adrianna Cai</a>
p4497
asVheight
p4498
I1067
sa(dp4499
Vphoto_reference
p4500
VCnRqAAAAjD2-aW7A9TWQ_AK05BukLHnfSSsp0_vdbBqGXKuxDqIgIatGqpI6olLjfJf3RIFAoJ15meEfDEdUSQCqayG2fgyyHr48g3DXHBsvBgxF-f4phqCIMt7TLDooFDzLL8YSWQxNsNoooD44NWdR0TWsKhIQ-s44KwlYLVWWHBx9_EHi1BoURayzq7EU_AOYs3mqfr8G5nhtGjM
p4501
sVwidth
p4502
I1600
sVhtml_attributions
p4503
(lp4504
V<a href="https://plus.google.com/110644604173805326173">Leslie Castelan</a>
p4505
asVheight
p4506
I1200
sa(dp4507
Vphoto_reference
p4508
VCnRoAAAADMAUwnm1MSAQ2ncaCkU2-7pdVJNzjDtIiO4WHyErZFFYmTAAgNfsRSFDhLhYcbze-E2REinFsev5HZlVhqw2SrCwFppEDhUtH6eJmYiehV0zaYuGQxkNkqYf1VZ5lXVLChX8S5nhP6DJhejQ2TH3dBIQUQ90FXSj7KTm4uI_h8o65hoUauYrS_2redNUu8RLXGyjpMMurTU
p4509
sVwidth
p4510
I648
sVhtml_attributions
p4511
(lp4512
V<a href="https://plus.google.com/111544651031607014823">Kelvin Ho</a>
p4513
asVheight
p4514
I486
sa(dp4515
Vphoto_reference
p4516
VCnRoAAAAEU7-y5hl5lu-6gY3fW7ERJ9y6s0oe58yuz7uYmRrr2yfdXtj6PBJbgaleF3IRAZxy8vFrTmiKkMKPTeR1Ksu1cvyYo1o2zEdC0CduACtt_PDzoHypNcmQ7vabvfsvFQo7WPlzaA2mV3rGOnYwww3wRIQME4IrVtFRWnghIaT3del-xoUAwJOUd8MD9azKl-5jKWdyYQKzzY
p4517
sVwidth
p4518
I816
sVhtml_attributions
p4519
(lp4520
V<a href="https://plus.google.com/113034897145842763564">MARANDA FAMILY</a>
p4521
asVheight
p4522
I612
sa(dp4523
Vphoto_reference
p4524
VCnRoAAAAUINFY7HzbzD3RdGGSrQ3Gegra-AQ4wD-CtxHzmXAWYjTR8uT6EKd4zWTa_J4yVhKTFf11Tjf71gw3x3xNr-bgmVo7-2j5Tl8ACiyFmMP7qZBIX4bUKOMFNSuQ_OUAkiy2fDmYNS_h-rWhsQpd6JjGRIQk_tW6csau-gXqoOeVdmXiRoU7r0hkT6UrC3udPNSEHO8v7sVAbQ
p4525
sVwidth
p4526
I4000
sVhtml_attributions
p4527
(lp4528
V<a href="https://plus.google.com/112149668004267823244">River Yuan</a>
p4529
asVheight
p4530
I5333
sasVtypes
p4531
(lp4532
Vmuseum
p4533
aVestablishment
p4534
asVicon
p4535
Vhttp://maps.gstatic.com/mapfiles/place_api/icons/museum-71.png
p4536
sVname
p4537
VThe Exploratorium
p4538
sVgeometry
p4539
(dp4540
Vlocation
p4541
(dp4542
Vlat
p4543
F37.800856
sVlng
p4544
F-122.398635
sssVadr_address
p4545
VPier 15, <span class="locality">San Francisco</span>, <span class="region">CA</span> <span class="postal-code">94111</span>, <span class="country-name">United States</span>
p4546
sVinternational_phone_number
p4547
V+1 415-528-4444
p4548
sVreviews
p4549
(lp4550
(dp4551
Vrating
p4552
I5
sVaspects
p4553
(lp4554
(dp4555
Vrating
p4556
I3
sVtype
p4557
Voverall
p4558
sasVlanguage
p4559
Ven
p4560
sVtext
p4561
VThe Exploratorium in its new location is great, for people of all ages. I've been to the new location for the "after dark" 21+ events (which I strongly recommend, despite the crowds), and certainly was not disappointed. I saw all my favorites experiments as well as new ones, and the new location is really huge and very well laid out. If you like science (and even if you don't) it's worth a trip since the place is so fun to see. It's all hands-on which is something I really like, but contrary to little kids, I also like to read the labels/signs to know what physical phenomenon I'm looking at instead of blindly pushing a button...
p4562
sVauthor_name
p4563
VJulian Fessard
p4564
sVauthor_url
p4565
Vhttps://plus.google.com/112118270664425522168
p4566
sVtime
p4567
I1413014702
sa(dp4568
Vrating
p4569
I5
sVaspects
p4570
(lp4571
(dp4572
Vrating
p4573
I3
sVtype
p4574
Voverall
p4575
sasVlanguage
p4576
Ven
p4577
sVtext
p4578
VI decided to check out the Exploritorium during free Mother's day admission. As a grown adult with no child supervision, I thought I would stroll around just to know if this was a worthy place to recommend to visiting guests with kids. In a matter of seconds I was sucked into all of the amazing science experiments, hands on gadgets, interactive experiences and fun facts. It's got something for every age group and you could get lost in the magic of it all for days. I feel like I left having a great time, learning a lot and seeing some really interesting stuff that made me go 'huh'. I really recommend checking it out!
p4579
sVauthor_name
p4580
VJulia Zasyatkina
p4581
sVauthor_url
p4582
Vhttps://plus.google.com/117435530388223357664
p4583
sVtime
p4584
I1404881261
sa(dp4585
Vrating
p4586
I5
sVaspects
p4587
(lp4588
(dp4589
Vrating
p4590
I3
sVtype
p4591
Voverall
p4592
sasVlanguage
p4593
Ven
p4594
sVtext
p4595
VI want to say it's the most amazing museum I have ever been to but, it's more than that.  I wouldn't even call it a science museum at all.  It's more of an experience based on physics and such.  This is a hands on experience that can consume your entire day easily.  I have been multiple times and on each visit there are new exhibits that have swapped out others.  The new location on the pier is beautiful and the staff are wonderful.  Just go and become a kid again.  It's a full blown tinkering overload.  If you love to push buttons to see what they will do, roll, bounce and swing stuff then this is where you belong.  Some things to know before you go.  If you want to experience the Tactile Dome, be sure to get tickets when you purchase your main tickets.  Also, they have a huge "spyrograph" swinging table and you can have one made but, you have to get your name on the list.  Do that early if you want one to take home.  
p4596
sVauthor_name
p4597
VCarl Cordell
p4598
sVauthor_url
p4599
Vhttps://plus.google.com/105619768905307646583
p4600
sVtime
p4601
I1411581848
sa(dp4602
Vrating
p4603
I5
sVaspects
p4604
(lp4605
(dp4606
Vrating
p4607
I3
sVtype
p4608
Voverall
p4609
sasVlanguage
p4610
Ven
p4611
sVtext
p4612
VGreat place for a (nerdy) date, esp one of their 1st Thu of the Month night-time "After Dark" events (adults only, alcohol is available) events. Just be sure to check out that month's After Dark theme because they change all the time.\u000a\u000aAwesome new building on Embarcadero about 10 min walk from BART (much easier to get to than the old place near the Palace of Fine Arts). \u000a\u000aThe Seaglass restaurant is surprisingly good, with a rotating menu that can go from Indian curries to upscale tacos to sushi (~$10-$20/person).\u000a\u000aDon't forget to walk around outside and out back - nice views of the water though it can get a bit windy/chilly.
p4613
sVauthor_name
p4614
VVirginia Wang
p4615
sVauthor_url
p4616
Vhttps://plus.google.com/104535995742247851850
p4617
sVtime
p4618
I1413922552
sa(dp4619
Vrating
p4620
I5
sVaspects
p4621
(lp4622
(dp4623
Vrating
p4624
I3
sVtype
p4625
Voverall
p4626
sasVlanguage
p4627
Ven
p4628
sVtext
p4629
VI was sad to see the Exploratorium move from the Palace of Fine Arts to the Embarcadero, but I can see why they did: more space and awesome views.\u000a\u000aI recently went to After Dark, one of the museum's Thursday night events.  For $15, you can explore the museum free of children from 6-10pm. Don't get me wrong, I like kids, but it's nice to not have that chaos that sometimes ensues when they're around.\u000a\u000aIt's overwhelming if it's your first time. There's so many exhibits and demonstrations, but if you pace yourself, you can get through most of the museum in one night.  I went to After Dark to attend a lecture from a wine detective, which I thought was interesting.\u000a\u000aWhat I also like about the night events is the price.  It's cheaper to go to these events than during the day, so you get your money's worth.  Spending 4 hours is a good amount of time without getting overwhelmed.  Plus, there's a great vantage point of the Bay Lights in the observatory.\u000a\u000aThe only complaint I have is the food and the price of alcohol.  But if you pre-game, it won't be an issue.\u000a\u000aOtherwise, if you plan to visit during the day, make sure to buy tickets online so you don't have to wait in line.  San Francisco residents get a discount.  And check their website for their free days!
p4630
sVauthor_name
p4631
VVictoria Pons
p4632
sVauthor_url
p4633
Vhttps://plus.google.com/103514085620352453266
p4634
sVtime
p4635
I1414019763
sasVformatted_phone_number
p4636
V(415) 528-4444
p4637
sVaddress_components
p4638
(lp4639
(dp4640
Vlong_name
p4641
VSan Francisco
p4642
sVtypes
p4643
(lp4644
Vlocality
p4645
aVpolitical
p4646
asVshort_name
p4647
VSF
p4648
sa(dp4649
Vlong_name
p4650
VCalifornia
p4651
sVtypes
p4652
(lp4653
Vadministrative_area_level_1
p4654
aVpolitical
p4655
asVshort_name
p4656
VCA
p4657
sa(dp4658
Vlong_name
p4659
VUnited States
p4660
sVtypes
p4661
(lp4662
Vcountry
p4663
aVpolitical
p4664
asVshort_name
p4665
VUS
p4666
sa(dp4667
Vlong_name
p4668
V94111
p4669
sVtypes
p4670
(lp4671
Vpostal_code
p4672
asVshort_name
p4673
V94111
p4674
sassba(ispot
Spot
p4675
(dp4676
g3
Nsg4
(dp4677
Vwebsite
p4678
Vhttp://www.apeconcerts.com/
p4679
sVrating
p4680
F3.6
sVutc_offset
p4681
I-480
sVuser_ratings_total
p4682
I39
sVname
p4683
VBill Graham Civic Auditorium
p4684
sVreference
p4685
VCoQBdgAAAKOc_kacTfwY0vzYZtZcvZE7cfuSR_xqppD8X5C8cHYOgp6cKjsJlB56ja7PkIGu-xOahD-JS0kpPw6BjxNVgk55Hpj_hjoFo_HMo8eUi5owW13NTXxUppi8bC01pvaZ-y_N5ZdndDDdIs9GrMmh0NWnIGiZbnMupvJrbWud-64yEhAllm4H4pSJq8bllrN4Cxl9GhRfKkf-kSYtDgnGJChBQ3mrTsbK0Q
p4686
sVphotos
p4687
(lp4688
(dp4689
Vphoto_reference
p4690
VCnRoAAAA7FJMkZUVUg5tKZvYFCl0v430BnJQ0aSsoFQXnOnrBHn5WoZ-nQPA5l8t0PLEskCZj93TjwTbPRhGrkpDuy7x-aGzsCwWxyUEHNHt583MqwmOGnl6llQe-4vEKQWKRMc5KSpMVwTqmiOhLGhwWVI9fBIQXNIgJ3LUbytsmMyuWgjwmRoUDM7y0fePQIIw90BLH5ZoQGq84fI
p4691
sVwidth
p4692
I1296
sVhtml_attributions
p4693
(lp4694
V<a href="https://plus.google.com/107552387286560569649">Walkerone SFO</a>
p4695
asVheight
p4696
I972
sasVgeometry
p4697
(dp4698
Vlocation
p4699
(dp4700
Vlat
p4701
F37.778077
sVlng
p4702
F-122.417403
sssVadr_address
p4703
V<span class="street-address">99 Grove St</span>, <span class="locality">San Francisco</span>, <span class="region">CA</span> <span class="postal-code">94102</span>, <span class="country-name">United States</span>
p4704
sVplace_id
p4705
VChIJNwYP6ZuAhYARi-mJBD79f-I
p4706
sVinternational_phone_number
p4707
V+1 415-624-8900
p4708
sVvicinity
p4709
V99 Grove St, San Francisco
p4710
sVreviews
p4711
(lp4712
(dp4713
Vrating
p4714
I5
sVaspects
p4715
(lp4716
(dp4717
Vrating
p4718
I3
sVtype
p4719
Voverall
p4720
sasVlanguage
p4721
Ven
p4722
sVtext
p4723
VLove this venue for concerts.  There's no assigned seating making everything first come first serve.  The main floor area gets kind of crazy, but if you want to dance like crazy, that will be your preferred location.  The balcony area has some great views, so if you want to be an old grandma like me and sit to enjoy a performer like Macklemore, definitely grab a spot up there.  \u000a\u000a
p4724
sVauthor_name
p4725
VAlyx Barranger
p4726
sVauthor_url
p4727
Vhttps://plus.google.com/106226941420364887072
p4728
sVtime
p4729
I1402430735
sa(dp4730
Vrating
p4731
I4
sVaspects
p4732
(lp4733
(dp4734
Vrating
p4735
I2
sVtype
p4736
Voverall
p4737
sasVlanguage
p4738
Ven
p4739
sVtext
p4740
VNice intimate atmosphere, decent sound quality
p4741
sVauthor_name
p4742
VChristopher Wren
p4743
sVauthor_url
p4744
Vhttps://plus.google.com/113525443008306473512
p4745
sVtime
p4746
I1412467647
sa(dp4747
Vrating
p4748
I1
sVaspects
p4749
(lp4750
(dp4751
Vrating
p4752
I0
sVtype
p4753
Voverall
p4754
sasVlanguage
p4755
Ven
p4756
sVtext
p4757
VWill never ever see any show there again. Terrible acoustics! A slap in the face to the memory of Bill Graham, who's probably rolling in his grave knowing they named it after him. Best show ever seen there was the then San Francisco Warriors where acoustics hardly matter.
p4758
sVauthor_name
p4759
VRaymond Alvarez
p4760
sVauthor_url
p4761
Vhttps://plus.google.com/113755175842025386880
p4762
sVtime
p4763
I1404245811
sa(dp4764
Vrating
p4765
I4
sVaspects
p4766
(lp4767
(dp4768
Vrating
p4769
I2
sVtype
p4770
Vappeal
p4771
sa(dp4772
Vrating
p4773
I2
sVtype
p4774
Vfacilities
p4775
sa(dp4776
Vrating
p4777
I2
sVtype
p4778
Vservice
p4779
sasVlanguage
p4780
Ven
p4781
sVtext
p4782
VMy girlfriend and I came here for the Matt & Kim/Passion Pit/Icona Pop concert a few weeks back, and it was an experience I will never forget. The facility itself was HUGE, and we got lost several times looking for the bathroom. But we made it out okay (thank god), and we enjoyed the concert. I would definitely hit up another concert here. 
p4783
sVauthor_name
p4784
VAaron Ho
p4785
sVauthor_url
p4786
Vhttps://plus.google.com/107917359086116635238
p4787
sVtime
p4788
I1364436036
sa(dp4789
Vrating
p4790
I3
sVaspects
p4791
(lp4792
(dp4793
Vrating
p4794
I1
sVtype
p4795
Voverall
p4796
sasVlanguage
p4797
Ven
p4798
sVtext
p4799
VWhile its a fun venue and host decent bands, not loving how small the inside actually appears... for me Great American Music hall does it much better... 
p4800
sVauthor_name
p4801
VJordan Crary
p4802
sVauthor_url
p4803
Vhttps://plus.google.com/105554329177148576672
p4804
sVtime
p4805
I1379810089
sasVformatted_phone_number
p4806
V(415) 624-8900
p4807
sVurl
p4808
Vhttps://plus.google.com/112983588439759014729/about?hl=en-US
p4809
sVscope
p4810
VGOOGLE
p4811
sVaddress_components
p4812
(lp4813
(dp4814
Vlong_name
p4815
V99
p4816
sVtypes
p4817
(lp4818
Vstreet_number
p4819
asVshort_name
p4820
V99
p4821
sa(dp4822
Vlong_name
p4823
VGrove St
p4824
sVtypes
p4825
(lp4826
Vroute
p4827
asVshort_name
p4828
VGrove St
p4829
sa(dp4830
Vlong_name
p4831
VSan Francisco
p4832
sVtypes
p4833
(lp4834
Vlocality
p4835
aVpolitical
p4836
asVshort_name
p4837
VSF
p4838
sa(dp4839
Vlong_name
p4840
VCalifornia
p4841
sVtypes
p4842
(lp4843
Vadministrative_area_level_1
p4844
aVpolitical
p4845
asVshort_name
p4846
VCA
p4847
sa(dp4848
Vlong_name
p4849
VUnited States
p4850
sVtypes
p4851
(lp4852
Vcountry
p4853
aVpolitical
p4854
asVshort_name
p4855
VUS
p4856
sa(dp4857
Vlong_name
p4858
V94102
p4859
sVtypes
p4860
(lp4861
Vpostal_code
p4862
asVshort_name
p4863
V94102
p4864
sasVformatted_address
p4865
V99 Grove St, San Francisco, CA 94102, United States
p4866
sVid
p4867
V15a0f86c363cb1211712bfc6780ed314878db7f7
p4868
sVtypes
p4869
(lp4870
Vestablishment
p4871
asVicon
p4872
Vhttp://maps.gstatic.com/mapfiles/place_api/icons/generic_business-71.png
p4873
ssba(ispot
Spot
p4874
(dp4875
g3
Nsg4
(dp4876
Vrating
p4877
I4
sVreference
p4878
VCoQBgAAAAA2i9aFjzNIVlBJYPJ_f2yJgSOpzN3Oyp_OWZDA9jPgmPDo6GqKrlxcpqpRFHRNRLxMr1ey6fx_mGKDkNZ9b7HSqiJtSMT3vaWUxKY1acAYoIfUeI4ZGBjkq5l9H76EAnEMdUxnGhy_lNUSnWpL8h56A8AYilGOjDvzn8WVPybz4EhByv6JnxyK5QbXJmwz9bodbGhSsgT4FIFemzWg_NjiKqZpU4kLLpg
p4879
sVplace_id
p4880
VChIJIbjkBuOAhYAR3OzY8Djb7Kc
p4881
sVurl
p4882
Vhttps://plus.google.com/109444163259271298287/about?hl=en-US
p4883
sVformatted_address
p4884
V47 Pier #2, San Francisco, CA 94133, United States
p4885
sVid
p4886
Vbd3b669b926cc6867951344f50962df8779d371f
p4887
sVopening_hours
p4888
(dp4889
Vweekday_text
p4890
(lp4891
VMonday: 10:00 am \u2013 6:00 pm
p4892
aVTuesday: 10:00 am \u2013 6:00 pm
p4893
aVWednesday: 10:00 am \u2013 6:00 pm
p4894
aVThursday: 10:00 am \u2013 6:00 pm
p4895
aVFriday: 10:00 am \u2013 6:00 pm
p4896
aVSaturday: Closed
p4897
aVSunday: Closed
p4898
asVopen_now
p4899
I00
sVperiods
p4900
(lp4901
(dp4902
Vclose
p4903
(dp4904
Vday
p4905
I1
sVtime
p4906
V1800
p4907
ssVopen
p4908
(dp4909
Vday
p4910
I1
sVtime
p4911
V1000
p4912
ssa(dp4913
Vclose
p4914
(dp4915
Vday
p4916
I2
sVtime
p4917
V1800
p4918
ssVopen
p4919
(dp4920
Vday
p4921
I2
sVtime
p4922
V1000
p4923
ssa(dp4924
Vclose
p4925
(dp4926
Vday
p4927
I3
sVtime
p4928
V1800
p4929
ssVopen
p4930
(dp4931
Vday
p4932
I3
sVtime
p4933
V1000
p4934
ssa(dp4935
Vclose
p4936
(dp4937
Vday
p4938
I4
sVtime
p4939
V1800
p4940
ssVopen
p4941
(dp4942
Vday
p4943
I4
sVtime
p4944
V1000
p4945
ssa(dp4946
Vclose
p4947
(dp4948
Vday
p4949
I5
sVtime
p4950
V1800
p4951
ssVopen
p4952
(dp4953
Vday
p4954
I5
sVtime
p4955
V1000
p4956
ssassVvicinity
p4957
V47 Pier #2, San Francisco
p4958
sVscope
p4959
VGOOGLE
p4960
sVwebsite
p4961
Vhttp://www.fishermanswharf.org/
p4962
sVutc_offset
p4963
I-480
sVuser_ratings_total
p4964
I143
sVphotos
p4965
(lp4966
(dp4967
Vphoto_reference
p4968
VCnRoAAAAl4ggU6I15QR7fC5DXqvreMu0_1NoH7q4csuWRn6UNiNN4ew4M39XKO2FveLhshngA2zqhS0tOZZue_NCTWQVP3g3IhHpUMej9_4EDoY2Q_iaNJKyu1Mtgiy9i7GnOd-EcdoU3buZAftJLbU7l2hNAhIQ8IF9u0Ft3nDgqvov3Hi0NRoUoS5uX622D0jewsB_41OcS9FGfr8
p4969
sVwidth
p4970
I1265
sVhtml_attributions
p4971
(lp4972
V<a href="https://plus.google.com/116961417085332279422">Justus Hachmann</a>
p4973
asVheight
p4974
I949
sa(dp4975
Vphoto_reference
p4976
VCnRqAAAA25nYusD73bowuEBMhZlFCJA8dugjPD05hUfGkjlwvr08N-NEBMuwlqCLYxR5PR36WTJ2UD1s2CnxD_16HFIw2nS71uJ8X-0OzqgOqk11LsFnIQDch7jAVEJcnRAYaDWiJeTWZYWKJ22E9AZWWfw3ohIQ3unjSZK4KJTKfWtD7AlpfxoUC6kJCLS4vmWWxVgWJrSCFCS7OP4
p4977
sVwidth
p4978
I2048
sVhtml_attributions
p4979
(lp4980
V<a href="https://plus.google.com/113173931251785215708">Henning Nielsen</a>
p4981
asVheight
p4982
I1151
sa(dp4983
Vphoto_reference
p4984
VCnRoAAAAne3g1JpsriUc_zObUbWuHONxEvH-KHtWsMLXQxQ2t9lvF4NjbfXG3gxOlhPHSMpF5eprCEUqntA961p_7xlXTxHzTVsZnhLORDx66A5ChTiOmsfrXxaApVtG9KixefZimSqUXKyL0aNNQOtEO3YQoRIQkfDFK-PywwOszmVHCRyCXhoU5MtP0qLPmn0Gcm1u01-dWNqGB2w
p4985
sVwidth
p4986
I1632
sVhtml_attributions
p4987
(lp4988
V<a href="https://plus.google.com/100241671182590128413">\u9673\u5929\u5065</a>
p4989
asVheight
p4990
I1224
sa(dp4991
Vphoto_reference
p4992
VCoQBegAAAERB3BNJetg6ilKdHNtL_AyvpSoiMmKSrdvC3kirYV-6VyQDzA1na5jdxPZZnoTVU3zV3mfhpiM0YF5ELvDwK6ElCdRqrhmiSfxbOZhAgZ5LJu4t7zgFR1AT71n2NWZv5cDUJzVu0FizYXBIoeqaqPhSREJ0Me-mzWsScPKvdRJLEhCALaNhDtXwHxxYucCkxkH_GhQEOXOIgozM7_aCHha9-PWeicsxSA
p4993
sVwidth
p4994
I1440
sVhtml_attributions
p4995
(lp4996
V<a href="https://plus.google.com/113186450052791933529">Joseph D&#39;Angelo</a>
p4997
asVheight
p4998
I1440
sa(dp4999
Vphoto_reference
p5000
VCnRqAAAAst6Qziop6dRRoJ3Qp4uLf3W2FxH4DgPyDOZK-09Ywpb-ySigmV-GEYLajFQ4VLjcswNbyRJWq2c-GfK1iJQM-NjFgKVJus-g_4wKgM0_wY7z7G_Nxtbesb7hPrfIT6OfLcWPuDpjIRv7QR4UszMsoxIQ-uqMLD8cpDAWM_38B0CueRoUciqiB0RpuwJmQqiaSyDClL-aBEg
p5001
sVwidth
p5002
I2048
sVhtml_attributions
p5003
(lp5004
V<a href="https://plus.google.com/113173931251785215708">Henning Nielsen</a>
p5005
asVheight
p5006
I1151
sa(dp5007
Vphoto_reference
p5008
VCnRqAAAAOQtFARCBuuCmYypUAdxah25zfgE3z5ATQPXnefKqaGOifFupUYSKDKgzdgAyJ393jD3RBr_AHPmJyqxEfSn4v-QH8J2x3d2-CBw4NA-7HVVyrBFRIR8TDT6T4T082VBIix8F4qv2zX_LuUYypKNbuhIQ9BAXYT0AmkwAQ1iXsOw2BBoUFcalZz1sbHlxEzOmbA1d9Yozm7Y
p5009
sVwidth
p5010
I2048
sVhtml_attributions
p5011
(lp5012
V<a href="https://plus.google.com/113173931251785215708">Henning Nielsen</a>
p5013
asVheight
p5014
I1151
sa(dp5015
Vphoto_reference
p5016
VCnRoAAAAS8dGIUG8bRvREzgfpktkB04EQTeJxaSc7oE29-ShSgN6tVTekWriuZQTUWpdDF46J-oCC9QL2WQzrUX7-zwahLa-lf918ePHP08jaegVdgPDu1zpdKM4AbyYKKvgUQWp8obZkTpRYk2nqffVPum5hxIQtOnZcDYn-jnUyQGaTUjnbxoU1MNxmJbIwBWaPszO7FsP274uNHE
p5017
sVwidth
p5018
I1344
sVhtml_attributions
p5019
(lp5020
V<a href="https://plus.google.com/111187500888664100438">Mauro Conti</a>
p5021
asVheight
p5022
I894
sasVtypes
p5023
(lp5024
Vestablishment
p5025
asVicon
p5026
Vhttp://maps.gstatic.com/mapfiles/place_api/icons/generic_business-71.png
p5027
sVname
p5028
VFishermans Wharf Merchants Association
p5029
sVgeometry
p5030
(dp5031
Vlocation
p5032
(dp5033
Vlat
p5034
F37.808521
sVlng
p5035
F-122.414994
sssVadr_address
p5036
V<span class="street-address">47 Pier #2</span>, <span class="locality">San Francisco</span>, <span class="region">CA</span> <span class="postal-code">94133</span>, <span class="country-name">United States</span>
p5037
sVinternational_phone_number
p5038
V+1 415-674-7503
p5039
sVreviews
p5040
(lp5041
(dp5042
Vrating
p5043
I5
sVaspects
p5044
(lp5045
(dp5046
Vrating
p5047
I3
sVtype
p5048
Voverall
p5049
sasVlanguage
p5050
Ven
p5051
sVtext
p5052
VThe fisherman's warf can be a lot of fun if you've never been. There are some cool sea lions, street performers and decent food. It's always fun to people watch here.
p5053
sVauthor_name
p5054
VDarius Emrani
p5055
sVauthor_url
p5056
Vhttps://plus.google.com/108956134437636094004
p5057
sVtime
p5058
I1402303571
sa(dp5059
Vrating
p5060
I3
sVaspects
p5061
(lp5062
(dp5063
Vrating
p5064
I1
sVtype
p5065
Voverall
p5066
sasVlanguage
p5067
Ven
p5068
sVtext
p5069
VGood for tourists. A nightmare for locals. Go to see the sea lions. Avoid if you don't like crowds.
p5070
sVauthor_name
p5071
VJenny Gossett
p5072
sVauthor_url
p5073
Vhttps://plus.google.com/101040699501346495649
p5074
sVtime
p5075
I1401829584
sa(dp5076
Vrating
p5077
I5
sVaspects
p5078
(lp5079
(dp5080
Vrating
p5081
I3
sVtype
p5082
Vappeal
p5083
sa(dp5084
Vrating
p5085
I3
sVtype
p5086
Vfacilities
p5087
sa(dp5088
Vrating
p5089
I3
sVtype
p5090
Vservice
p5091
sasVlanguage
p5092
Ven
p5093
sVtext
p5094
VOne of the top spots to visit when your visiting SF. Fresh, delicious tasty food here. I like to get a bread bowl of clam chowder to snack on. Walk around and enjoy the view (if it is a sunny and relatively warm day, hard to come by sometimes in SF). There are a lot of great shops to look at too.
p5095
sVauthor_name
p5096
VPatrick Zhou
p5097
sVauthor_url
p5098
Vhttps://plus.google.com/114316762263467370524
p5099
sVtime
p5100
I1371424772
sa(dp5101
Vrating
p5102
I5
sVaspects
p5103
(lp5104
(dp5105
Vrating
p5106
I3
sVtype
p5107
Voverall
p5108
sasVlanguage
p5109
Ven
p5110
sVtext
p5111
VMust to see place in San Francisco. Sea Lions like this place, also. They have so intense social structure there that only the toughest sea lion can stay on a floating wharf. You must see it! It is authentic natural harmony in an urban atmosphere. 
p5112
sVauthor_name
p5113
VJuho Kastemaa
p5114
sVauthor_url
p5115
Vhttps://plus.google.com/113075632442410102250
p5116
sVtime
p5117
I1378862344
sa(dp5118
Vrating
p5119
I5
sVaspects
p5120
(lp5121
(dp5122
Vrating
p5123
I3
sVtype
p5124
Voverall
p5125
sasVlanguage
p5126
Ven
p5127
sVtext
p5128
VPoetic place. It was great to listen to the musicians who came there to share a bit of their music.
p5129
sVauthor_name
p5130
VRaza Haq Qazi
p5131
sVauthor_url
p5132
Vhttps://plus.google.com/100164752876721345906
p5133
sVtime
p5134
I1397294138
sasVformatted_phone_number
p5135
V(415) 674-7503
p5136
sVaddress_components
p5137
(lp5138
(dp5139
Vlong_name
p5140
V2
p5141
sVtypes
p5142
(lp5143
Vsubpremise
p5144
asVshort_name
p5145
V2
p5146
sa(dp5147
Vlong_name
p5148
V47
p5149
sVtypes
p5150
(lp5151
Vstreet_number
p5152
asVshort_name
p5153
V47
p5154
sa(dp5155
Vlong_name
p5156
VPier
p5157
sVtypes
p5158
(lp5159
Vroute
p5160
asVshort_name
p5161
VPier
p5162
sa(dp5163
Vlong_name
p5164
VSan Francisco
p5165
sVtypes
p5166
(lp5167
Vlocality
p5168
aVpolitical
p5169
asVshort_name
p5170
VSF
p5171
sa(dp5172
Vlong_name
p5173
VCalifornia
p5174
sVtypes
p5175
(lp5176
Vadministrative_area_level_1
p5177
aVpolitical
p5178
asVshort_name
p5179
VCA
p5180
sa(dp5181
Vlong_name
p5182
VUnited States
p5183
sVtypes
p5184
(lp5185
Vcountry
p5186
aVpolitical
p5187
asVshort_name
p5188
VUS
p5189
sa(dp5190
Vlong_name
p5191
V94133
p5192
sVtypes
p5193
(lp5194
Vpostal_code
p5195
asVshort_name
p5196
V94133
p5197
sa(dp5198
Vlong_name
p5199
V1004
p5200
sVtypes
p5201
(lp5202
Vpostal_code_suffix
p5203
asVshort_name
p5204
V1004
p5205
sassba(ispot
Spot
p5206
(dp5207
g3
Nsg4
(dp5208
Vrating
p5209
F4.2
sVreference
p5210
VCoQBeAAAAHLz_Sxxz1UDlvDFYNR65lUUiJrSfQ6zz9u8DJYBkXU65UA0MIbJv94O1RNKQuYD3WZ_LDdp9ddQvHunDhxwdemy-qFK82ukBgnsOTxf70e2wQmtvmMR0c6c2LPbWTMHk61q3-2Wx8bfE3U_VcAmC3f2o3A4RtyDUyw3fyOjW4xmEhAGC3NsO2pSshYZKFftdA-vGhQRGmF-YwTN0hRiGi_TDNsCXMKnFA
p5211
sVprice_level
p5212
I4
sVplace_id
p5213
VChIJF1lX2oaAhYARuyWPqjE12Oo
p5214
sVurl
p5215
Vhttps://plus.google.com/114517205173353967430/about?hl=en-US
p5216
sVformatted_address
p5217
V888 Howard St, San Francisco, CA 94103, United States
p5218
sVid
p5219
Vfbbcc1bcbf1916a9743f8f85cb98e561ae75c701
p5220
sVopening_hours
p5221
(dp5222
Vweekday_text
p5223
(lp5224
VMonday: Open 24 hours
p5225
aVTuesday: Open 24 hours
p5226
aVWednesday: Open 24 hours
p5227
aVThursday: Open 24 hours
p5228
aVFriday: Open 24 hours
p5229
aVSaturday: Open 24 hours
p5230
aVSunday: Open 24 hours
p5231
asVopen_now
p5232
I01
sVperiods
p5233
(lp5234
(dp5235
Vopen
p5236
(dp5237
Vday
p5238
I0
sVtime
p5239
V0000
p5240
ssassVvicinity
p5241
V888 Howard St, San Francisco
p5242
sVscope
p5243
VGOOGLE
p5244
sVwebsite
p5245
Vhttp://www.intercontinentalsanfrancisco.com/?utm_source=google&utm_medium=places&utm_campaign=google_places_ms
p5246
sVutc_offset
p5247
I-480
sVuser_ratings_total
p5248
I149
sVphotos
p5249
(lp5250
(dp5251
Vphoto_reference
p5252
VCpQBgwAAAPHvvN3uGPbUWjiN3G2jBAUKvVeqlmbKcQ5MdBcXHUXwzq_vkENgbwe-ObYDJ2_F2Pno9bbbhQI7IkZjrTMFJ9ccBHVOMwWI5tWMrJm8mkTsvQY4C6XHzmtItxs1wrnY7gdZP4WtFHn60Jaef4AgdAaURkry4mQgTBCX3g9OFU8wmSvmoK-PXWlgKiuBX1gexRIQx4Vw-c0ZMqG9KFmrCONeFBoU_nYceXN5KMMCgBlrXd3-Z9epoIc
p5253
sVwidth
p5254
I305
sVhtml_attributions
p5255
(lp5256
sVheight
p5257
I500
sa(dp5258
Vphoto_reference
p5259
VCnRnAAAA7L2wQi6pVHWm9EnvBUclkb8KfRJnbh1VMcfI6uhBK1GoQSsDEsWYqgqWrncYQtNsmzR96LvOpAO9GVYebDCQuT8MO6KRSp9_ND9fo347hbK_XjMo_GrAfimRDFV0P1vNQHo65GAYm_roG6LiVlbB5xIQNzSUpnM6WA1miUUXhOyuxRoUrZvLEOuYI0A2td2Ve1XhZkWEQ6c
p5260
sVwidth
p5261
I500
sVhtml_attributions
p5262
(lp5263
sVheight
p5264
I383
sa(dp5265
Vphoto_reference
p5266
VCnRnAAAAb_6YeebiEIYf3aXbfhusZoMf-luGUU3cLLbeqHiB-74knFNXgYN5LWj6sIPrALUdv19lzuex7QP_OmMMWXqHUejeMtzZ5UhhGbF5MZLJc8PG4nhE-9cBkLToRkZeRbeXoUygSW56O53UE1EIAvyt2BIQgo8_Z2wAdWhWGPMOzcV3VRoUilbrnnQdun1SsiEizpqigVLo8LQ
p5267
sVwidth
p5268
I273
sVhtml_attributions
p5269
(lp5270
sVheight
p5271
I500
sa(dp5272
Vphoto_reference
p5273
VCnRnAAAAqY1GFnVpgH6SYqvIOmPoqlJ6u1VnpbDvs18lWt332Xt-jLPNoqautzxu_83sVzLPEwXAir7NBWsLcKMSJwEMnfVoAIC2zbvt8zFXgpW5B7Zx5UTJRRkQKUGive-pyx9kDE0UkVeXeOcfZhEV7e2oaxIQtaNt1R_11GfMSUvNCPgiIRoU7CF4L-TPLVk3i-4UbjdnFhtpjAg
p5274
sVwidth
p5275
I500
sVhtml_attributions
p5276
(lp5277
sVheight
p5278
I319
sa(dp5279
Vphoto_reference
p5280
VCnRnAAAA4BtUn7Bc6tGU0xq8hbOpRqOqIGrp1QANh0cC182cmvQCU6Y-wpVVZFPHhzW3jB3_rGcPYW4oYBW9WMAPrSOL5LDmbSLdXGEvWizlmJ_zxsjBDcc174_bDIdCygma-lhDpPdhUuwXe470Vdwz_jgLJhIQ6XmMWnFYHhfybKD3vpDMYBoUXHYB-0v7K7BEcNlRWzWv-G-sIDc
p5281
sVwidth
p5282
I343
sVhtml_attributions
p5283
(lp5284
sVheight
p5285
I500
sa(dp5286
Vphoto_reference
p5287
VCnRqAAAAOrLvx2Mw1xBf6RiUAwRuxyLDJyI8nb6hXi1D2mhdEsGfGpCZdcfkcy3mSQChSYT_RJyeFSjrF7-PUohoIure9lagfnl4ifVQbU080VfKSxqq-BQK7uk3bPaGcV7_ucKURp1fokLW6P2_mdxFOEg23BIQJEY1C8OM4ofxotKJo13XqRoUFT9Txpkhb1tW8aPz8-A1Al5R5Kk
p5288
sVwidth
p5289
I500
sVhtml_attributions
p5290
(lp5291
sVheight
p5292
I266
sa(dp5293
Vphoto_reference
p5294
VCnRqAAAAYT3A5FPUP9Uje6I5fXmLXbeam7uC_TY0qjERQCZEW0_NAiEvKQL55sYAO8Yujg6UD1WW6WLOHpNfEbjVAi-5V19m45epJP4DgvqWGU-KMZvH5Zs80UoiKSp2bALgRYnyca1K4Z_kU4jzH1qjZ9Q3_hIQTWBeCmAoSke7s4_iDbq3CxoUSkvoKET0CSSFIzCOJ_1UWh04h5o
p5295
sVwidth
p5296
I500
sVhtml_attributions
p5297
(lp5298
sVheight
p5299
I377
sa(dp5300
Vphoto_reference
p5301
VCpQBgwAAAF_Te9o3S3TXpaJlf-nA8fHwQObL86F6jrzjw-MqxHIFWKr4N3sxOgyOxmD0X4tHwM2d8-uJPaKncrLJDpLemqVQFi5lFa5g_V3DH9_2lBOsKPY7H8kj5EQ1BFopzV_7hB_xmYpUXtnhno0YjISrjgQh7LN2fva2mnLeWn-kRZ0RdEN8OFVlkLrnjb0FM_EIThIQkBo-DttrE2gZEQ-rbTNiRxoUinwnjeYE8PjWQdNHZaF9X1IOMeE
p5302
sVwidth
p5303
I500
sVhtml_attributions
p5304
(lp5305
sVheight
p5306
I346
sa(dp5307
Vphoto_reference
p5308
VCoQBgAAAAOR8GPAjNSlMgvGDOl9bXitMmbI39qosNMcStcQ_2quc4Cr68tWglKYasdT5lV0euKcEvUV_kjS3tCMp_FqfX9A6qxtJ8dMZ0tF7mCKmRe3XybL-KTaq9cbykEteD7S04C-EvNGR3fCBChSjJnN25Q2pB_grZQd1ob8cRA2fGKLTEhAAB58r29_puCEWLGj1GsOOGhShOjpJIst7UVhQ4pPs82TCt6PWwQ
p5309
sVwidth
p5310
I1632
sVhtml_attributions
p5311
(lp5312
V<a href="https://plus.google.com/114071400109114769965">Hing Ip Chung</a>
p5313
asVheight
p5314
I918
sa(dp5315
Vphoto_reference
p5316
VCnRoAAAA35naDS4pt32Cg8CXcM5mhKnLL7Lvc_Tnnrg1tx2unyaTgM6PMN0Dt-P3lDwId1QLqV1QDgpeYAma7uwtgrnbFWt09G3lG7XWkBWMsJ08m83SbuXC2v8DTPO7YFhDe4JRRbY1xXqu2b-RXjxf5n0QxBIQ15ogyjFGT1Td9-mfRTyhsRoUsuJkWnWgYbp8YDyYLCT5ooE_o60
p5317
sVwidth
p5318
I918
sVhtml_attributions
p5319
(lp5320
V<a href="https://plus.google.com/110317664286306889078">Jackye Clayton</a>
p5321
asVheight
p5322
I1632
sasVtypes
p5323
(lp5324
Vnight_club
p5325
aVbar
p5326
aVlodging
p5327
aVestablishment
p5328
asVicon
p5329
Vhttp://maps.gstatic.com/mapfiles/place_api/icons/bar-71.png
p5330
sVname
p5331
VInterContinental San Francisco
p5332
sVgeometry
p5333
(dp5334
Vlocation
p5335
(dp5336
Vlat
p5337
F37.782113
sVlng
p5338
F-122.404476
sssVadr_address
p5339
V<span class="street-address">888 Howard St</span>, <span class="locality">San Francisco</span>, <span class="region">CA</span> <span class="postal-code">94103</span>, <span class="country-name">United States</span>
p5340
sVinternational_phone_number
p5341
V+1 415-616-6500
p5342
sVreviews
p5343
(lp5344
(dp5345
Vrating
p5346
I5
sVaspects
p5347
(lp5348
(dp5349
Vrating
p5350
I3
sVtype
p5351
Voverall
p5352
sasVlanguage
p5353
Ven
p5354
sVtext
p5355
VExcellent Hotel, service oriented staff with customers mindset. The room is spacious with excellent view, worth to get Club Lounge access at additional fees. Hotel concierge staff has an excellent knowledge about San Francisco attractions and provide very good guidance on how to enjoy your day, they recommend Big Bus Tour and it was an excellent and enjoyable day to explore the city. 
p5356
sVauthor_name
p5357
VAbdulrhman Matar
p5358
sVauthor_url
p5359
Vhttps://plus.google.com/104380978768120100107
p5360
sVtime
p5361
I1408129655
sa(dp5362
Vrating
p5363
I5
sVaspects
p5364
(lp5365
(dp5366
Vrating
p5367
I3
sVtype
p5368
Voverall
p5369
sasVlanguage
p5370
Ven
p5371
sVtext
p5372
VI loved it!  Excellent service, beautiful hotel, and the in-room-serveice  food was also  of fantastic quality. ( try their white bean soup!    unbelievable taste) And the spa is beautiful ... I had a deep tissue massage that was thoughtful and intelligently applied... my neck is better than ever.  Thank you all for a great week. Carol and Kevin
p5373
sVauthor_name
p5374
VKevin Spence
p5375
sVauthor_url
p5376
Vhttps://plus.google.com/112347045807630227756
p5377
sVtime
p5378
I1410129249
sa(dp5379
Vrating
p5380
I4
sVaspects
p5381
(lp5382
(dp5383
Vrating
p5384
I2
sVtype
p5385
Voverall
p5386
sasVlanguage
p5387
Ven
p5388
sVtext
p5389
VI did not stay over at the hotel but visited for two spa treatments.  It is nice but definitely not the best spa out there.  The pool and hot tub are indoor and small and it is disjointed from the spa entrance.  The lay out of the spa itself is neither intuitive nor spacious. That being said the decor is nice and I had a very good massage from Gardner.  The facial was nice but I wouldn't return for another one.  \u000a\u000aThe reason for my visit with my boyfriend (who enjoyed the above treatments too!) was because a coupon offering both services for $140.  \u000aTypically each treatment costs around $130 individually.\u000aDefinitely a deal.  Go find it!
p5390
sVauthor_name
p5391
VLauren Pinheiro
p5392
sVauthor_url
p5393
Vhttps://plus.google.com/106990768782331898857
p5394
sVtime
p5395
I1407460843
sa(dp5396
Vrating
p5397
I5
sVaspects
p5398
(lp5399
(dp5400
Vrating
p5401
I3
sVtype
p5402
Voverall
p5403
sasVlanguage
p5404
Ven
p5405
sVtext
p5406
VWe recently stayed there during a tech conference and our experience at the hotel was simply outstanding. We were reaching SFO very early (around 9am), and in spite of being so early, they actually kept a room ready because we had a toddler with us. On top of that they arranged a lot of play toys and a nice kiddie tub ready. We did not even ask for it, so it was a wonderful surprise. My daughter had so much fun that I think they have us as customers for life. Bill & Leigh with concierge services were of great help.
p5407
sVauthor_name
p5408
VRavi Darbhamulla
p5409
sVauthor_url
p5410
Vhttps://plus.google.com/114791378232243357953
p5411
sVtime
p5412
I1405086189
sa(dp5413
Vrating
p5414
I5
sVaspects
p5415
(lp5416
(dp5417
Vrating
p5418
I3
sVtype
p5419
Voverall
p5420
sasVlanguage
p5421
Ven
p5422
sVtext
p5423
VThis place is my go to when I go to the city. Which is about a dozen times a year. Hotel Nikko sucks, Intercontinental is farrrrrr better! I left my charger at home and they had an extra they let me use. Fun place and Ill be back soon :)
p5424
sVauthor_name
p5425
VKristin Weger
p5426
sVauthor_url
p5427
Vhttps://plus.google.com/110512166286878695449
p5428
sVtime
p5429
I1408316828
sasVformatted_phone_number
p5430
V(415) 616-6500
p5431
sVaddress_components
p5432
(lp5433
(dp5434
Vlong_name
p5435
V888
p5436
sVtypes
p5437
(lp5438
Vstreet_number
p5439
asVshort_name
p5440
V888
p5441
sa(dp5442
Vlong_name
p5443
VHoward St
p5444
sVtypes
p5445
(lp5446
Vroute
p5447
asVshort_name
p5448
VHoward St
p5449
sa(dp5450
Vlong_name
p5451
VSouth of Market
p5452
sVtypes
p5453
(lp5454
Vneighborhood
p5455
aVpolitical
p5456
asVshort_name
p5457
VSouth of Market
p5458
sa(dp5459
Vlong_name
p5460
VSan Francisco
p5461
sVtypes
p5462
(lp5463
Vlocality
p5464
aVpolitical
p5465
asVshort_name
p5466
VSF
p5467
sa(dp5468
Vlong_name
p5469
VSan Francisco County
p5470
sVtypes
p5471
(lp5472
Vadministrative_area_level_2
p5473
aVpolitical
p5474
asVshort_name
p5475
VSan Francisco County
p5476
sa(dp5477
Vlong_name
p5478
VCalifornia
p5479
sVtypes
p5480
(lp5481
Vadministrative_area_level_1
p5482
aVpolitical
p5483
asVshort_name
p5484
VCA
p5485
sa(dp5486
Vlong_name
p5487
VUnited States
p5488
sVtypes
p5489
(lp5490
Vcountry
p5491
aVpolitical
p5492
asVshort_name
p5493
VUS
p5494
sa(dp5495
Vlong_name
p5496
V94103
p5497
sVtypes
p5498
(lp5499
Vpostal_code
p5500
asVshort_name
p5501
V94103
p5502
sassba(ispot
Spot
p5503
(dp5504
g3
Nsg4
(dp5505
Vname
p5506
VSan Francisco
p5507
sVreference
p5508
VCoQBeQAAAJSlIM8d8Luj9Je_nCIEQFLLz4PSLd1n_el3IWNuIQQD_uV9wLFLJY0LX3s8ZLnt1NQYyCy-1eEoT3EEvLCSjWKgrHWqU6I0OSrnHbX75h0EL16FlfgsSR-0jNm8zekKG-wmeTVxR0u2iW2AMrRg1FeIvvvkqLOnN3bzTAqD1ayEEhBwTaVr-PriNUpKDUfQ3HxsGhTTNqzDk0g4q_z6sU5JDmE0Qd6dkA
p5509
sVgeometry
p5510
(dp5511
Vlocation
p5512
(dp5513
Vlat
p5514
F37.7749295
sVlng
p5515
F-122.4194155
ssVviewport
p5516
(dp5517
Vnortheast
p5518
(dp5519
Vlat
p5520
F37.812
sVlng
p5521
F-122.3482
ssVsouthwest
p5522
(dp5523
Vlat
p5524
F37.70339999999999
sVlng
p5525
F-122.527
ssssVadr_address
p5526
V<span class="locality">San Francisco</span>, <span class="region">CA</span>, <span class="country-name">USA</span>
p5527
sVplace_id
p5528
VChIJIQBpAG2ahYAR_6128GcTUEo
p5529
sVvicinity
p5530
VSan Francisco
p5531
sVurl
p5532
Vhttps://maps.google.com/maps/place?q=San+Francisco,+CA,+USA&ftid=0x80859a6d00690021:0x4a501367f076adff
p5533
sVscope
p5534
VGOOGLE
p5535
sVaddress_components
p5536
(lp5537
(dp5538
Vlong_name
p5539
VSan Francisco
p5540
sVtypes
p5541
(lp5542
Vlocality
p5543
aVpolitical
p5544
asVshort_name
p5545
VSF
p5546
sa(dp5547
Vlong_name
p5548
VSan Francisco County
p5549
sVtypes
p5550
(lp5551
Vadministrative_area_level_2
p5552
aVpolitical
p5553
asVshort_name
p5554
VSan Francisco County
p5555
sa(dp5556
Vlong_name
p5557
VCalifornia
p5558
sVtypes
p5559
(lp5560
Vadministrative_area_level_1
p5561
aVpolitical
p5562
asVshort_name
p5563
VCA
p5564
sa(dp5565
Vlong_name
p5566
VUnited States
p5567
sVtypes
p5568
(lp5569
Vcountry
p5570
aVpolitical
p5571
asVshort_name
p5572
VUS
p5573
sasVformatted_address
p5574
VSan Francisco, CA, USA
p5575
sVid
p5576
V1b9ea3c094d3ac23c9a3afa8cd4d8a41f05de50a
p5577
sVtypes
p5578
(lp5579
Vlocality
p5580
aVpolitical
p5581
asVicon
p5582
Vhttp://maps.gstatic.com/mapfiles/place_api/icons/geocode-71.png
p5583
ssba.