(lp0
(ispot
Spot
p1
(dp2
S'duration'
p3
I0
sS'travel_time'
p4
(dp5
VAnchor Brewing Company
p6
F0.2824
sVCoit Tower
p7
F0.452
sVWestfield San Francisco Centre
p8
F0.2704
sVThe Walt Disney Family Museum
p9
F0.7816
sVUnion Square
p10
F0.3064
sVCalifornia Academy of Sciences
p11
F0.7224
sVde Young Museum
p12
F0.7704
sVSan Francisco Public Library
p13
F0.3304
sVThe Exploratorium
p14
F0.2184
ssS'data'
p15
(dp16
Vwebsite
p17
Vhttp://sanfrancisco.giants.mlb.com/sf/ballpark/
p18
sVrating
p19
F4.7
sVutc_offset
p20
I-480
sVplace_id
p21
VChIJ_T25cNd_j4ARehGmHe0pT84
p22
sVname
p23
VAT&T Park
p24
sVreference
p25
VCnRjAAAAQXknqqEMuhT1CbmGi5XaBAY97YwkDoR0uSsbfgi4ONXAzwhUhjwfEcuK0U3fByw94u8wFapDdKaXsW9itgxEU8T6n7izaQTqaYpgOe1Rd1QEzCqLt57NTSgcx3mc-AKp0Foh4RGF01aK6kUGqI-ERxIQrpK8c3T145kpdzaYojMESBoUN7ARYNtTYH0pUaIF2Kok8oxCdvU
p26
sVformatted_phone_number
p27
V(415) 972-2000
p28
sVgeometry
p29
(dp30
Vlocation
p31
(dp32
Vlat
p33
F37.778595
sVlng
p34
F-122.38927
sssVadr_address
p35
V<span class="street-address">24 Willie Mays Plaza</span>, <span class="locality">San Francisco</span>, <span class="region">CA</span> <span class="postal-code">94107</span>, <span class="country-name">United States</span>
p36
sVuser_ratings_total
p37
I520
sVinternational_phone_number
p38
V+1 415-972-2000
p39
sVvicinity
p40
V24 Willie Mays Plaza, San Francisco
p41
sVreviews
p42
(lp43
(dp44
Vrating
p45
I5
sVaspects
p46
(lp47
(dp48
Vrating
p49
I3
sVtype
p50
Voverall
p51
sasVlanguage
p52
Ven
p53
sVtext
p54
VI've been here for Giants baseball game,  concerts, and corporate events. The place is very clean and easy to walk through. During games there's TVs all around the stadium near the the food stands and bathrooms so you don't miss any action. The lines for food may be long, and there's so many so it's not too bad! If you are lucky if you go the Virgin America club level you're treating to a great view of the field and even better access to food and drinks! The club level has so much space including a bowling ball alley, galleries of old baseball bats, etc. Try to take a tour of the place if you can! The garden in the back is a welcome addition.
p55
sVauthor_name
p56
VAprille Espinueva
p57
sVauthor_url
p58
Vhttps://plus.google.com/100822860986184584169
p59
sVtime
p60
I1413043156
sa(dp61
Vrating
p62
I5
sVaspects
p63
(lp64
(dp65
Vrating
p66
I3
sVtype
p67
Voverall
p68
sasVlanguage
p69
Ven
p70
sVtext
p71
VGreat stadium - and in the middle of SOMA as well!  The parking can be a bit annoying though as an FYI.\u000a\u000aThe stadium itself is great - I've only come for Giants games, and I've sat usually in the Virgin Airlines area (there's a separate escalator for this).  I really enjoy the food here - I love the garlic fries and I love how clean this stadium is even though it's been open for some time!  \u000a\u000aIt can get very cold here - most people don't realize how cold San Francisco can get at night without the sun, so definitely bring a jacket!  The wine can be really pricey as well so watch out for that. 
p72
sVauthor_name
p73
VSally Zhao
p74
sVauthor_url
p75
Vhttps://plus.google.com/112631984024381153921
p76
sVtime
p77
I1412978141
sa(dp78
Vrating
p79
I5
sVaspects
p80
(lp81
(dp82
Vrating
p83
I3
sVtype
p84
Voverall
p85
sasVlanguage
p86
Ven
p87
sVtext
p88
VBeautiful park, awesome time! We went to the Giants vs. Dodgers game, we're Dodger fans, and people were actually pretty civil, considering how big of a game it was. People were telling me before I went, "try the garlic fries," NASTY!! I only took 6 bites or so, and that's only because they were $8!! I tossed them. And I like garlic. But overall, it was a great experience, pricey, just like any other professional game, but worth it.
p89
sVauthor_name
p90
VAmy Blaisdell
p91
sVauthor_url
p92
Vhttps://plus.google.com/100327111590932161816
p93
sVtime
p94
I1410903632
sa(dp95
Vrating
p96
I5
sVaspects
p97
(lp98
(dp99
Vrating
p100
I3
sVtype
p101
Voverall
p102
sasVlanguage
p103
Ven
p104
sVtext
p105
VWhat can I say about AT&T park?! Anywhere you sit or stand is awesome!!! Entertainment galore! I love their crab cake sandwiches and of course, their garlic fries. The best thing about AT&T Park - The San Francisco Giants!!!!
p106
sVauthor_name
p107
VSharon Bee
p108
sVauthor_url
p109
Vhttps://plus.google.com/112933525571389870098
p110
sVtime
p111
I1413243471
sa(dp112
Vrating
p113
I5
sVaspects
p114
(lp115
(dp116
Vrating
p117
I3
sVtype
p118
Voverall
p119
sasVlanguage
p120
Ven
p121
sVtext
p122
VMy favorite place in San Francisco. Such a beautiful ballpark with amazing energy. Tons of delicious and unique food options. So much to see and do, you will never be bored. Depending on time of the year you can get tickets for pretty inexpensive. Try the garlic fries!
p123
sVauthor_name
p124
VBrendon Nemeth
p125
sVauthor_url
p126
Vhttps://plus.google.com/105213255561655655900
p127
sVtime
p128
I1413257141
sasVphotos
p129
(lp130
(dp131
Vwidth
p132
I1632
sVheight
p133
I1224
sVhtml_attributions
p134
(lp135
VFrom a Google User
p136
asVphoto_reference
p137
VCnRtAAAAVeZZSOjY5SaADYI8oM3yiiQl4XLxbS1k_bYqQ7caEuLnmbYiwYrLml7tK5wT-AkXkVbN3DpS8w3dxT_rdulOqGmKZD_iIa5hleZWLLxakpVgasxx2hO82I4V6tv8aWFMU7MUpHlTlsnYbIqfAyvvLBIQBNI3S9wl3QzKiL411DvRVxoUwQNzUuucanqKO26lzKu3JCeCmXo
p138
sa(dp139
Vwidth
p140
I2048
sVheight
p141
I1536
sVhtml_attributions
p142
(lp143
V<a href="https://plus.google.com/106170335079428053302">Corrie Davidson</a>
p144
asVphoto_reference
p145
VCpQBhgAAAKbxuu3B5ilid-y5lEoMqbzv8cZouChgSGQ9KhLOQ86ojjNY5MVZBipt1BQIc44_wTmQZ3ll6TPctPTpnS1ZdgjigNKHd_VVMEomllYs1zvDyCinFmCbJqyVI3sx6OtVxa1IFzYR0K71ReysnW0cEFCtGuKoPoBDeLhmzkDfeOMHSgrUPn7wvB7-kOYxlMJkOhIQYXoA2ceM9AnUfb3k4GHU8BoUOmh3MvcFMIakUD-XwqfVU538Sjc
p146
sa(dp147
Vwidth
p148
I1024
sVheight
p149
I768
sVhtml_attributions
p150
(lp151
VFrom a Google User
p152
asVphoto_reference
p153
VCoQBdgAAAP_4SZ9tCv9VABvBoe7xfU6VvlaRJ19yjf87i0kJKak09iZrQZwynnt_cbfYx9Let7FJIBpn9qr_DGoqIq6ZiNI1gjswZu3xTsrRTSI3PIG4DNSMvi4Pyruwln2q8gyY_BmIyUMsRVvUzudlo4mefrXriWNrKVnP9vPbMrIOrjcgEhAyJGOO2egCwhV7S-FtiGCTGhTB6W1GGShuDzweiht3WM7RvmibuA
p154
sa(dp155
Vwidth
p156
I2048
sVheight
p157
I1536
sVhtml_attributions
p158
(lp159
V<a href="https://plus.google.com/112095627515954870302">Garrett Messer</a>
p160
asVphoto_reference
p161
VCoQBcQAAAIz-h51vclgRrs163l-kVeUnrJdWojcNUy9HlQ2W3vBrBLUcQKAS42yEkXbERyB9F1G8jbBbVG7xW8Z44o3M1OfAbu-RVbZfn6YSVUK3ju34eRIXEHGG4yN3tN9rVKIeHjKwCjYAo3ZgBkP2FHjFoDyyBrS8aU7tAedXiTCWWJ1uEhA2iZb6wsbZoIE8w_Uj5rm2GhSTUKODardHle_aGGam8JU6bNR0Wg
p162
sa(dp163
Vwidth
p164
I1280
sVheight
p165
I960
sVhtml_attributions
p166
(lp167
V<a href="https://plus.google.com/108152127945250235563">Michael Villalobos Gomez</a>
p168
asVphoto_reference
p169
VCnRoAAAAQaJz3o911Y78iC-H_UqI5_eAfHvo6yBmypjDibiiXdg8baAnwR5Og2XZTvYCYNKgvycI8S8vsp8Q-lsLKVKtdGRY-bRo4xaHVeUxgT9YcQ6xz6BGkL8ccvb7M53rvXw021RhzVAf9D3EmcXJMYqrnxIQoBVt0rg8lAKEUyGLgEzx7xoUxia9tn2i1KDYZZNm4eZCYLUDJcc
p170
sa(dp171
Vwidth
p172
I500
sVheight
p173
I332
sVhtml_attributions
p174
(lp175
V<a href="https://plus.google.com/117701647401983318963">Piero Fusco</a>
p176
asVphoto_reference
p177
VCnRtAAAALESpyAysuzRO8BFwooPtrAtOrXHA8VfFOyP6yUkCJ7Tk0QJBQftZ8anT1eDgmDFlAczCz1UVa_vhWSwK0w4oIsf_VML9OekyGIo4kQXn5icGpSzN3msPAirZRjgwiWLa6v-lN55-exkk3VbpAOQTPBIQc-CcLDijMc9ooslIS3H18hoUA2IxAzq3NFRxk5aVLcVvuNiVzlE
p178
sa(dp179
Vwidth
p180
I394
sVheight
p181
I314
sVhtml_attributions
p182
(lp183
VFrom a Google User
p184
asVphoto_reference
p185
VCnRtAAAAIpY5T9ljHjIdKi_g-wWi-F24qwXRRlTAuJpjBgth489P2UzLv8GNx9-Ox_BRruEHh5DTaPWf5F4RpLcwr-6EA7DDzWTXAUED0L3mLLwKl1Uls5ZWShXKRXl0t0BV-2RrpVLJpfKzq98257oPGZeSURIQfs16T1M-DD8-AzCmpXr-EhoUuAjo2Cei7sRfLzk85dvA9xFCgj4
p186
sa(dp187
Vwidth
p188
I2048
sVheight
p189
I1536
sVhtml_attributions
p190
(lp191
V<a href="https://plus.google.com/106170335079428053302">Corrie Davidson</a>
p192
asVphoto_reference
p193
VCpQBhgAAAH3_MogAluYh3jNxIuS1Umwel4sdu6b4vDPuCfV5dDw0ph4kAZLDWySBOwwLVGyIHszSW8PJbJKCV3bBF7iu6PwyVG2kXEKOhE76rP0kzq3w_zF-1fYsZOGGbhE2FcbS31LSNCOoxEmXG2PXOBPwwuWkW-CeAk4k18-_M6DMQP69m8CnAMULLBQPeyxVT8xMQRIQKhBJ9mkQoh_XO-0wgzr1EhoUFsLfmv_3wTA0wP07xCGeeIHU7H4
p194
sa(dp195
Vwidth
p196
I2448
sVheight
p197
I3264
sVhtml_attributions
p198
(lp199
V<a href="https://plus.google.com/114499818319322887155">Tyler Inocencio</a>
p200
asVphoto_reference
p201
VCnRoAAAAhd1Vfa2A7kNYF2vXYYXRTfDhnBsB86CrcKzYY1fLOSEcV_h0oNdFWVeQ3eE1FWyiPWcKO8L3OGnVc25trBnXDajNJWZywi4AVoZqVW_aw0f2tGvymMxCcxT5BXv1XnUZoDqsA3MRhRFU3VmGLcqRVRIQklLp3Sd51oXKVYtsV2LWORoU2sp3kLFkf1loS_7xx2ZbKE8mX0w
p202
sa(dp203
Vwidth
p204
I1296
sVheight
p205
I972
sVhtml_attributions
p206
(lp207
V<a href="https://plus.google.com/117454953906757170811">George Fosselius</a>
p208
asVphoto_reference
p209
VCnRtAAAABJm5UhczAxm2yk78GOrTHMQa1emElduY036ful83pc9TNcAgRfoIaxc2PJZgLaC4zPtpa55KTeLof8cNIqcVUHyy4ugmmUcPnCYrbEVHExyG8lO58wTkKr2h52U1EJnEPX6ESTXFzZ1OY6l6D0VgaRIQfv8JsK5C4h1Xm0Hjliz88RoUD2fim0ZkD6UVxnOJFiqQWxFEUng
p210
sasVurl
p211
Vhttps://plus.google.com/114995991922311473611/about?hl=en-US
p212
sVaddress_components
p213
(lp214
(dp215
Vlong_name
p216
V24
p217
sVshort_name
p218
V24
p219
sVtypes
p220
(lp221
Vstreet_number
p222
asa(dp223
Vlong_name
p224
VWillie Mays Plaza
p225
sVshort_name
p226
VWillie Mays Plaza
p227
sVtypes
p228
(lp229
Vroute
p230
asa(dp231
Vlong_name
p232
VSan Francisco
p233
sVshort_name
p234
VSF
p235
sVtypes
p236
(lp237
Vlocality
p238
aVpolitical
p239
asa(dp240
Vlong_name
p241
VCalifornia
p242
sVshort_name
p243
VCA
p244
sVtypes
p245
(lp246
Vadministrative_area_level_1
p247
aVpolitical
p248
asa(dp249
Vlong_name
p250
VUnited States
p251
sVshort_name
p252
VUS
p253
sVtypes
p254
(lp255
Vcountry
p256
aVpolitical
p257
asa(dp258
Vlong_name
p259
V94107
p260
sVshort_name
p261
V94107
p262
sVtypes
p263
(lp264
Vpostal_code
p265
asasVscope
p266
VGOOGLE
p267
sVformatted_address
p268
V24 Willie Mays Plaza, San Francisco, CA 94107, United States
p269
sVid
p270
V2fabca457541277971b0bc91a40bbad02ecbb5ba
p271
sVtypes
p272
(lp273
Vstadium
p274
aVestablishment
p275
asVicon
p276
Vhttp://maps.gstatic.com/mapfiles/place_api/icons/stadium-71.png
p277
ssba(ispot
Spot
p278
(dp279
g3
I50
sg4
(dp280
g6
F0.7104
sg7
F0.952
sg8
F0.7064
sg9
F0.6136
sg10
F0.6952
sg11
F0.0424
sg24
F0.74
sg13
F0.5392
sg14
F0.8648
ssg15
(dp281
Vrating
p282
F4.3
sVreference
p283
VCnRoAAAAr2CwUf3YCgJdKAFq0gmjN74EJ9VnUhWqA8V3rSklVz5Dj_i51ZMP-UgLVqjONBSletoMxgQPUbuQXmCogffcTiXp8vy14vLzPFY4920zFBcIWQVSBzxOXDQ_bz6l3eZLbg8Jjcl4iLMcINpiFnepzBIQ78mY7cJGO5BKCmevd2F3JhoUFhf90bkFsu4B8yGpLwDc0W3GN-o
p284
sVplace_id
p285
VChIJI7NivpmAhYARSuRPlbbn_2w
p286
sVgeometry
p287
(dp288
Vlocation
p289
(dp290
Vlat
p291
F37.771517
sVlng
p292
F-122.468733
sssVformatted_address
p293
V50 Hagiwara Tea Garden Dr, San Francisco, CA 94118, United States
p294
sVid
p295
V2a7464f9faa0b872fcc3132045a4b29e7661f83c
p296
sVopening_hours
p297
(dp298
Vweekday_text
p299
(lp300
VMonday: Closed
p301
aVTuesday: 9:30 am \u2013 5:15 pm
p302
aVWednesday: 9:30 am \u2013 5:15 pm
p303
aVThursday: 9:30 am \u2013 5:15 pm
p304
aVFriday: 9:30 am \u2013 8:45 pm
p305
aVSaturday: 9:30 am \u2013 5:15 pm
p306
aVSunday: 9:30 am \u2013 5:15 pm
p307
asVopen_now
p308
I00
sVperiods
p309
(lp310
(dp311
Vclose
p312
(dp313
Vday
p314
I0
sVtime
p315
V1715
p316
ssVopen
p317
(dp318
Vday
p319
I0
sVtime
p320
V0930
p321
ssa(dp322
Vclose
p323
(dp324
Vday
p325
I2
sVtime
p326
V1715
p327
ssVopen
p328
(dp329
Vday
p330
I2
sVtime
p331
V0930
p332
ssa(dp333
Vclose
p334
(dp335
Vday
p336
I3
sVtime
p337
V1715
p338
ssVopen
p339
(dp340
Vday
p341
I3
sVtime
p342
V0930
p343
ssa(dp344
Vclose
p345
(dp346
Vday
p347
I4
sVtime
p348
V1715
p349
ssVopen
p350
(dp351
Vday
p352
I4
sVtime
p353
V0930
p354
ssa(dp355
Vclose
p356
(dp357
Vday
p358
I5
sVtime
p359
V2045
p360
ssVopen
p361
(dp362
Vday
p363
I5
sVtime
p364
V0930
p365
ssa(dp366
Vclose
p367
(dp368
Vday
p369
I6
sVtime
p370
V1715
p371
ssVopen
p372
(dp373
Vday
p374
I6
sVtime
p375
V0930
p376
ssassVvicinity
p377
V50 Hagiwara Tea Garden Dr, San Francisco
p378
sVscope
p379
VGOOGLE
p380
sVwebsite
p381
Vhttp://deyoung.famsf.org/
p382
sVutc_offset
p383
I-480
sVuser_ratings_total
p384
I121
sVphotos
p385
(lp386
(dp387
Vwidth
p388
I953
sVheight
p389
I953
sVhtml_attributions
p390
(lp391
sVphoto_reference
p392
VCnRwAAAAJU2X4pHAzF6-U77_bttuiTX8ivDa2tczCTOtltHeN-btRxU5ZQqDQZCIp0YZlGtACHDqtT0y1Z1hzB3mRZ2jF941QK2fcE_FzIyrQVac4bAMJYxTwoafcubdg6QC61CMWCOAJdxA89p34rEjRXhwjRIQUQtav31J_ZtPI6wylY8FMxoUEl2MbdZS3N9PB_Ui-XU3MuFZvRw
p393
sa(dp394
Vwidth
p395
I2048
sVheight
p396
I1361
sVhtml_attributions
p397
(lp398
V<a href="https://plus.google.com/107703067300113514526">Cornelius O&#39;Leary Jr</a>
p399
asVphoto_reference
p400
VCnRqAAAAaGHGY4PdiEI4uppjLNwSpOCrQed9hOu1-06rVmJGkU6KEp41r0briDq6hD8zgaPMOGg0GkIfOGLUbuxrvFFg3opFu8J8fJFdJRGDHYYbM4Zaxv8h07zzyhzMMXPrcpWPsqpjUFVgf080bg_B569n8BIQ2dvEijuuNO24sP2LqX7-URoUcm0K2FN43ULT6pAbNWh-siWs4eI
p401
sa(dp402
Vwidth
p403
I1984
sVheight
p404
I1488
sVhtml_attributions
p405
(lp406
V<a href="https://plus.google.com/113173931251785215708">Henning Nielsen</a>
p407
asVphoto_reference
p408
VCnRqAAAA2lfLyqumOOs6-kFgzr5xZtrO2XSInFIuJGI6-my-xOX_mLei-4FTglG6i9iPbEUG4XPQ1qYuw-vMesjYeghZ_joJAp6jAIVIMqG4pI-xC5JgsX8fXWAtXMzuA_lkkPBzMnuY2zpN3vJ-TQmIbvEiQRIQvT_ZINT5GsQxVx5l-40SthoUYgG72EiRhIAIpBioadKVvGrhW-Q
p409
sa(dp410
Vwidth
p411
I380
sVheight
p412
I276
sVhtml_attributions
p413
(lp414
V<a href="https://plus.google.com/100146962083959904819">Sarah White</a>
p415
asVphoto_reference
p416
VCnRqAAAAEScnzsVkQbIBTTbQzs8yNh0E3NcGnI-G3jXHnOFaAxilqn6sGZxgnRRn_eXJljnMTuJ_RKxMl-TF0QfJwrdd11FqnZBw15AI5xZr1LofsXaQKvp5pmjuPlnT5W5WEsOqOQfMPjCidLULrd-kJ3MmZRIQDmE3Kgh5OO8uZQCOrXA1yxoU_UoxPbfvxs6dlS0uTPJEP_HesEs
p417
sa(dp418
Vwidth
p419
I2048
sVheight
p420
I1361
sVhtml_attributions
p421
(lp422
V<a href="https://plus.google.com/107703067300113514526">Cornelius O&#39;Leary Jr</a>
p423
asVphoto_reference
p424
VCnRqAAAAjMbygFO-QRnH_Xa_GCPqz6mHJmSloYkmyyNeh_8OUaHL6AbOKa-gd9m8ojkTaofrZLNJlHeJ09mTG_KPmbkiFTZ0zZTitXepEn99RVwX2bc52kgR7EHM9vNiWb1vO-bZxfPT0qheMUzzvgJZAonAzBIQB1kOnxPmT4amhBOMGHqeVhoUB50KZg1sQI1Laup7EJdVHqIzhxc
p425
sa(dp426
Vwidth
p427
I2048
sVheight
p428
I1361
sVhtml_attributions
p429
(lp430
V<a href="https://plus.google.com/107703067300113514526">Cornelius O&#39;Leary Jr</a>
p431
asVphoto_reference
p432
VCnRqAAAAExwL-tu1oUqr4wD9vagYUA1wlmLjjoYpC8n40jG5wvhZwghOKzb7z_TG1eU52qVYs8blsbOlgcJ51HbiUyOLP6whlxs1YNaJBeUxYWzWhXkjN8s_TlzjFqZIj_kk8XxIeF2KPmjw9wHf9dSHB0u61RIQzONcVLdX3-aNW8Hd9XxF2RoUuw2bvU2dD4iRJxifiwosD-3ZSwM
p433
sa(dp434
Vwidth
p435
I2048
sVheight
p436
I1361
sVhtml_attributions
p437
(lp438
V<a href="https://plus.google.com/107703067300113514526">Cornelius O&#39;Leary Jr</a>
p439
asVphoto_reference
p440
VCnRqAAAAtPL5pIc3PHDjhMpfryEph80OlnWzq6icJFzvhI7VxJZxs9zogRQlq0a2D7mOWxmLbUmVwPWzzBiPSLBXoa8rhAGYUFZQz9WNdxmW3WhcrlrNSRd5cF5GmQ_2Fyzf3sPk0_iSI0pafcyOuGnKRoxOABIQEZv1HqGNkPeGkjkZn81AQRoU40i7boD64HSfroqKJTUrF_Zwngk
p441
sa(dp442
Vwidth
p443
I2048
sVheight
p444
I1361
sVhtml_attributions
p445
(lp446
V<a href="https://plus.google.com/107703067300113514526">Cornelius O&#39;Leary Jr</a>
p447
asVphoto_reference
p448
VCnRqAAAAB17WlSY-KvHsqb3hS5eAShs4ehchU8sLcM3qxiRk0OgJnZvBX15Ej2ZShQ1Ej4FEa7o7Bg9prMNhIIcRka0i1YsytHqzsUBVowQQifnRms_eNIh5WF3MAkW72JNJo5H60hizd9jUR7fcGwBQZCW9cRIQAYiRf30ztn-0XkMqWR1KKRoUlXu737hgM2mWCntsMAg4-2Vw_F4
p449
sa(dp450
Vwidth
p451
I2048
sVheight
p452
I1361
sVhtml_attributions
p453
(lp454
V<a href="https://plus.google.com/107703067300113514526">Cornelius O&#39;Leary Jr</a>
p455
asVphoto_reference
p456
VCnRqAAAAU2PLdr7CTs0iBgrdCTDhaI8INglos552l7pC3HPrq-oJ16MSEUly7Pvd9u8YEy6uOGgl0mJFBl288OSq7IPPuSP-WlrcfzyJmzsOzCUYVsyIG_KEypIJlYisM55Vheri6_WNWot1cttgN3xata7HmhIQqIuDiYa2jBwmcN2GFSuT0xoU4H-o9sSPGk1mTrHrNnJ7xVyVzlM
p457
sa(dp458
Vwidth
p459
I2048
sVheight
p460
I1361
sVhtml_attributions
p461
(lp462
V<a href="https://plus.google.com/107703067300113514526">Cornelius O&#39;Leary Jr</a>
p463
asVphoto_reference
p464
VCnRqAAAAF9uzZizhW0iYhJQ3CQfDOA_j2idvihhy6wwvc0lpn6SM6r17opdc7kgPeD9osBP_7hZIpX512jioD8PhnRvV1GcdGjICnhdqSaW5PvoMlQg7YFTdfKzp5StqjntCe_YUvoWOfx0e-lf9eGG2ZbIKnBIQ6Y1dTCepuqBUNY-gQw07yRoUJSo1lhfSVGI8SUcClcL0tHlFR5A
p465
sasVtypes
p466
(lp467
Vmuseum
p468
aVestablishment
p469
asVicon
p470
Vhttp://maps.gstatic.com/mapfiles/place_api/icons/museum-71.png
p471
sVname
p472
g12
sVurl
p473
Vhttps://plus.google.com/104010277220168946324/about?hl=en-US
p474
sVadr_address
p475
V<span class="street-address">50 Hagiwara Tea Garden Dr</span>, <span class="locality">San Francisco</span>, <span class="region">CA</span> <span class="postal-code">94118</span>, <span class="country-name">United States</span>
p476
sVinternational_phone_number
p477
V+1 415-750-3600
p478
sVreviews
p479
(lp480
(dp481
Vrating
p482
I5
sVaspects
p483
(lp484
(dp485
Vrating
p486
I3
sVtype
p487
Voverall
p488
sasVlanguage
p489
Ven
p490
sVtext
p491
VGreat collection of American Art, fantastic location and fun place to visit.  Shows change regularly, the permanent collection of glass, silver and furniture on the second floor is not to be missed. You can take the elevator to the top floor tower and see a 360 degree view of Golden Gate Park, The GG Bridge and all the neighborhoods surrounding the park.  Wonderful gardens around the museum too.  The cafe is super, lots of choices and fast, friendly service; dine inside or take your food to the lovely outdoor tables.  
p492
sVauthor_name
p493
VYoni Mayeri
p494
sVauthor_url
p495
Vhttps://plus.google.com/105820450885180571966
p496
sVtime
p497
I1412362196
sa(dp498
Vrating
p499
I5
sVaspects
p500
(lp501
(dp502
Vrating
p503
I3
sVtype
p504
Voverall
p505
sasVlanguage
p506
Ven
p507
sVtext
p508
VI have been to a few major exhibits at this museum and I have to say that it is probably my favorite art museum in San Francisco. The staff here does a great job of presenting their classic collection along with an incredible mixture of popular exhibits and temporary installations that very confidently speak to the zeitgeist of the city. This is an amazing accomplishment. Consider how difficult this must be in a city as cool in San Francisco. But with things like the Warhol exhibit and the Jean Paul Gaultier design timeline tour, the DeYoung maintains its place at the pinnacle of the hyper-cool. Having met the people that work there I can also say that they are truly passionate about translating the method, practice, value, and study of art to their community. This is visible in the balance of fun to academic observation and analysis they have in every showing. There is something here for everyone and it's very presentation and curation is art of an incredible caliber. I could go on.....
p509
sVauthor_name
p510
VMisha Metrikin
p511
sVauthor_url
p512
Vhttps://plus.google.com/114890117672430115819
p513
sVtime
p514
I1413260271
sa(dp515
Vrating
p516
I4
sVaspects
p517
(lp518
(dp519
Vrating
p520
I2
sVtype
p521
Voverall
p522
sasVlanguage
p523
Ven
p524
sVtext
p525
VWas lucky enough to visit the O'Keefe exhibit earlier this year and this is museum going at its finest (helped by the fact that the SF MoMa is closed for the next two years so options are currently slim).\u000aOnly giving it four stars since at $25 a pop for admission, this place isn't exactly a bargain. \u000aMake time to visit the Japanese Tea Garden next door and also be sure to go up to the viewing floor for unmatched views of the Presidio and Golden Gate Park.
p526
sVauthor_name
p527
VElmer Ayala
p528
sVauthor_url
p529
Vhttps://plus.google.com/103969904087092883134
p530
sVtime
p531
I1413179353
sa(dp532
Vrating
p533
I5
sVaspects
p534
(lp535
(dp536
Vrating
p537
I3
sVtype
p538
Voverall
p539
sasVlanguage
p540
Ven
p541
sVtext
p542
VThe de Young is a beautiful and modern museum. Highly recommended; houses a full collection of African art, Native American textiles, modernism, and more. The tower in the de Young also offers access to an expansive view of both Golden Gate Park and the city.
p543
sVauthor_name
p544
VJoyce Tang
p545
sVauthor_url
p546
Vhttps://plus.google.com/101092365012450853182
p547
sVtime
p548
I1414996654
sa(dp549
Vrating
p550
I4
sVaspects
p551
(lp552
(dp553
Vrating
p554
I2
sVtype
p555
Voverall
p556
sasVlanguage
p557
Ven
p558
sVtext
p559
VThis museum has great architecture.   There is a 360 degree overlook in the tower, that is free to access.    The views of the park and bay area are spectacular, but of course dependant on the weather. There are also a sculpture court and maze garden that are free.
p560
sVauthor_name
p561
VAnna Hautzinger
p562
sVauthor_url
p563
Vhttps://plus.google.com/116136613716129316971
p564
sVtime
p565
I1415130977
sasVformatted_phone_number
p566
V(415) 750-3600
p567
sVaddress_components
p568
(lp569
(dp570
Vlong_name
p571
V50
p572
sVshort_name
p573
V50
p574
sVtypes
p575
(lp576
Vstreet_number
p577
asa(dp578
Vlong_name
p579
VHagiwara Tea Garden Dr
p580
sVshort_name
p581
VHagiwara Tea Garden Dr
p582
sVtypes
p583
(lp584
Vroute
p585
asa(dp586
Vlong_name
p587
VSan Francisco
p588
sVshort_name
p589
VSF
p590
sVtypes
p591
(lp592
Vlocality
p593
aVpolitical
p594
asa(dp595
Vlong_name
p596
VCalifornia
p597
sVshort_name
p598
VCA
p599
sVtypes
p600
(lp601
Vadministrative_area_level_1
p602
aVpolitical
p603
asa(dp604
Vlong_name
p605
VUnited States
p606
sVshort_name
p607
VUS
p608
sVtypes
p609
(lp610
Vcountry
p611
aVpolitical
p612
asa(dp613
Vlong_name
p614
V94118
p615
sVshort_name
p616
V94118
p617
sVtypes
p618
(lp619
Vpostal_code
p620
asassba(ispot
Spot
p621
(dp622
g3
I100
sg4
(dp623
g6
F0.708
sg8
F0.4176
sg9
F0.5824
sg10
F0.3496
sg11
F0.904
sg12
F0.952
sg24
F0.5336
sg13
F0.46
sg14
F0.2512
ssg15
(dp624
Vwebsite
p625
Vhttp://sfrecpark.org/destination/telegraph-hill-pioneer-park/coit-tower/
p626
sVrating
p627
F4.1
sVutc_offset
p628
I-480
sVplace_id
p629
VChIJAQAAQIyAhYARRN3yIQG4hd4
p630
sVname
p631
g7
sVreference
p632
VCnRkAAAAJiSypCAbWWsDrsKNUvyXJePgfT3zKpazrOP0S0Xbu7_xUAcLB8C_Qg43k1vpMm3xw9wbkfi3ozsk2x33UeObVKaIxaANUcYvqVDCvxnkRd0_1wvlJCVLEEL0bgg0N71jp5WKnTs_T6G6FUQfqOG6FRIQCYS_pJh03fAEZI2F39ouGxoUVTH8kPJoEvNigQspC8EnzJc12B4
p633
sVgeometry
p634
(dp635
Vlocation
p636
(dp637
Vlat
p638
F37.802395
sVlng
p639
F-122.405822
sssVadr_address
p640
V<span class="street-address">1 Telegraph Hill Blvd</span>, <span class="locality">San Francisco</span>, <span class="region">CA</span> <span class="postal-code">94133</span>, <span class="country-name">United States</span>
p641
sVuser_ratings_total
p642
I441
sVvicinity
p643
V1 Telegraph Hill Blvd, San Francisco
p644
sVreviews
p645
(lp646
(dp647
Vrating
p648
I4
sVaspects
p649
(lp650
(dp651
Vrating
p652
I2
sVtype
p653
Voverall
p654
sasVlanguage
p655
Ven
p656
sVtext
p657
VCoit tower has recently undergone some renovations.  (Thanks National Trust for Historic Preservation)   The WPA murals on the ground floor are freshly cleaned, and present interesting visions of life in the 1930's SF.   The stairs are out of commission, so you have to take the small elevator up.   The views are spectacular, particularly on a clear day.  The view from the ground level parking area is also not bad.   On the way down,  try the steps toward the Embarcadero,  very great insights into lush backyards.
p658
sVauthor_name
p659
VAnna Hautzinger
p660
sVauthor_url
p661
Vhttps://plus.google.com/116136613716129316971
p662
sVtime
p663
I1415218790
sa(dp664
Vrating
p665
I4
sVaspects
p666
(lp667
(dp668
Vrating
p669
I2
sVtype
p670
Voverall
p671
sasVlanguage
p672
Ven
p673
sVtext
p674
VAn understated icon of San Francisco. Perched on a rocky hill in the middle of the city's core, this art deco styled tower has impressive views from both it's base and it's viewing platform. Well worth the hike up the hill. Parking anywhere nearby is not going to happen, so take that into account.
p675
sVauthor_name
p676
VTyler Harding
p677
sVauthor_url
p678
Vhttps://plus.google.com/110357160824479158301
p679
sVtime
p680
I1412053153
sa(dp681
Vrating
p682
I4
sVaspects
p683
(lp684
(dp685
Vrating
p686
I2
sVtype
p687
Voverall
p688
sasVlanguage
p689
Ven
p690
sVtext
p691
VAlthough no amazing heights, it's worth a trip if visiting SF.  Tickets are inexpensive and usually a short wait for the elevator ride up.  The inside at the bottom of the tower has beautifully painted murals and the gift shop has all the typical touristy stuff (mugs, maps, shirts, etc).  Depending on your journey to the tower, you can walk to the steep hill from North Beach for added exercise.  \u000aAnd the view from the top is nice, provided it's a clear day!  Pretty small, so be prepared to share windows to look out.
p692
sVauthor_name
p693
VLauren Pinheiro
p694
sVauthor_url
p695
Vhttps://plus.google.com/106990768782331898857
p696
sVtime
p697
I1400785941
sa(dp698
Vrating
p699
I5
sVaspects
p700
(lp701
(dp702
Vrating
p703
I3
sVtype
p704
Voverall
p705
sasVlanguage
p706
Ven
p707
sVtext
p708
VToughed it up the stairs. Enjoyed the view from the base and the stiff breeze. Didn't bother to go to the top. 
p709
sVauthor_name
p710
VYvette Skinner
p711
sVauthor_url
p712
Vhttps://plus.google.com/116618204309104641755
p713
sVtime
p714
I1414728878
sa(dp715
Vrating
p716
I5
sVaspects
p717
(lp718
(dp719
Vrating
p720
I3
sVtype
p721
Voverall
p722
sasVlanguage
p723
Ven
p724
sVtext
p725
VOne of, if not best view of city skyline along with both bridges(if no fog, of course) saw one of last full moon eclipses there years ago. Magical it lasted so long. Got a good contact high, too. No rag-weed, for sure.
p726
sVauthor_name
p727
VRaymond Alvarez
p728
sVauthor_url
p729
Vhttps://plus.google.com/113755175842025386880
p730
sVtime
p731
I1405827204
sasVphotos
p732
(lp733
(dp734
Vwidth
p735
I1268
sVheight
p736
I947
sVhtml_attributions
p737
(lp738
V<a href="https://plus.google.com/116596226154549124014">Kee Wook Lee</a>
p739
asVphoto_reference
p740
VCnRoAAAAyEUXWWKNFAiEVAaMAEnCJgEztEIIgPoVtHgUdOTDAkgT2PmWw2pFQypNz9GkJ1WRxbl_iUIf69JlDSuqQJ6ELeK6gNQXuYAZYUqcBV5At49FM294CPNP9lNMeQKoGAsFqTbRTGWC-Sat_RttgqOMxhIQLsOgkxtfvuAk1BdJgWSCSBoUlH5_H64KWNR1Li21qudqqalLyI4
p741
sa(dp742
Vwidth
p743
I768
sVheight
p744
I1024
sVhtml_attributions
p745
(lp746
VFrom a Google User
p747
asVphoto_reference
p748
VCnRqAAAAaO3arztnOuQIPENgqm8oAH8mkl75UgnWruoq3ozTtsIvVyCDHSqAPBDWEgLcgN54zzUYMR7rzJkfbfQXd5R50yMDw-AX2YwLkzRHeRJE0NXG8mZv8FniVnCqU4vgRfAEB2ejtTw6qllKS4pS_u6TrxIQ6EIG6SEYZdCUt_OfSxv7rhoUQjmb1KoCDvQ-nz0qiNLnbCND1os
p749
sa(dp750
Vwidth
p751
I4608
sVheight
p752
I3456
sVhtml_attributions
p753
(lp754
V<a href="https://plus.google.com/113186450052791933529">Joseph D&#39;Angelo</a>
p755
asVphoto_reference
p756
VCnRlAAAAkibYBIjaH4cPs_SNauYdH4MPdNLJObitgya_arxjCvBjEGc_dyfvoYaR5a1IhrHNxEouiE-ZI0RIlakgfa1xh0Cwv3wBfGD2AIvRYrKV1foAlMu1rh-Asy7bVmOdMaVSaCBGyXpRaa678EOHPeSTBRIQ4aZlXz-rSnoMjD_cETUPohoUz2Kw1oQDJj2YhP3VKNn3xf6mYYM
p757
sa(dp758
Vwidth
p759
I1296
sVheight
p760
I776
sVhtml_attributions
p761
(lp762
V<a href="https://plus.google.com/114529464953149651619">Kim Nath</a>
p763
asVphoto_reference
p764
VCnRqAAAAvzSKKtr6e4rP-5VIRwVmgpuCinCiUbRHPcEbifbi_O8sOtR9qtbMdTtXI8S9lK9STOpo9DY077kwp-13cwW-xiRi6NrH7-_iPJsE0wvt71cZJBOTObpzT67pZ0AyEs3hCxlCBvq4vs_pkPBctuNQXhIQaA7MrCaDUomQ56hONeXF7BoUrw5Uu0YC5Ld-wysilXYdYCqBNkc
p765
sa(dp766
Vwidth
p767
I2048
sVheight
p768
I1362
sVhtml_attributions
p769
(lp770
V<a href="https://plus.google.com/102156534886423108007">Peter Rehberg</a>
p771
asVphoto_reference
p772
VCpQBigAAAMTcZD9BWr0hWrbYgl3rhj08nBWGhlkSeh83CwXuJXDMOxzbc1LXpcnEelKvq3oiOIqSv9COMpGvIlXEp8DGSR3WicFH9cCZOkDt2bQEVtEaJWn015xcTI1wt9n8BBcs1ylHYCP8vZi5oG0oQjGZNxFVb4GI3SmnQGGs5Ux-67AN1h54V8VO71A5I1QFN6AsDBIQwY1Jx9P8qN1GVs4PamplPBoU8x4ZODSGJoF-WPqyPl65EQdTma4
p773
sa(dp774
Vwidth
p775
I768
sVheight
p776
I1024
sVhtml_attributions
p777
(lp778
V<a href="https://plus.google.com/108274069435520984069">cesar maldonado</a>
p779
asVphoto_reference
p780
VCnRqAAAAl4r3tVfV2asPYc2fX-q3qMHT0D1yLBf2jlVMBfLVSoedkePm7g_TtXzNgzZCNmRZD5xcvtCXePbxT_6mwW7AjldHA7Jj0UuLLxorBVmJHnl8Cmt20ykXIkpA8mmV8lcvxZiD0ke82azPh_t8YZ8itRIQOMWMcIQ2s03OkEWVJ2W0whoUvkcgRFDuVxqpsOP7gaAzRAXzApY
p781
sa(dp782
Vwidth
p783
I1866
sVheight
p784
I2048
sVhtml_attributions
p785
(lp786
V<a href="https://plus.google.com/113837235805581391057">P Kusserow</a>
p787
asVphoto_reference
p788
VCuQB1wAAALyqsL-oSMnEtm9DEIti04p3t1ysMSXyCC3QZ1xBU13Clz82QXLTfqykW6z5rcQlNDY_ev95aAm0yznpPqNoURYJG5CFIAQqxUgxMcyCp1ilO-iNlyfUwQ0-BGb60_QIb2afFVaVXoEFViz7Oj4wLpWdpzCYhRp2aGrzeDe9czOOtN3WKSxb6FqGnPZKQDvDPL2f5MxkFvuFqXiL3ZUcTYUt8zslEsZOB2TikuYx2SZbP2ZXOZdXiBmgvROuhZyO09bhSOgmAqu4aGyCC16mrgo7Xx6zfCB1DMNmKV0g_hSWEhBa1TRVVpB7mHOsiq6BVNwbGhSl435J1tPil1HCZ_TkV5HpQPBxMA
p789
sa(dp790
Vwidth
p791
I949
sVheight
p792
I1265
sVhtml_attributions
p793
(lp794
V<a href="https://plus.google.com/108568994711421183759">Harish S</a>
p795
asVphoto_reference
p796
VCnRoAAAAWIUVYPJOihF-fbnyYsVfr1gN6XwsJeUI_sGq_yqNiO8LiaxMNfvxGc5sliNyL_tqt5_8q8M_QzTENkoY7qpPH7XgOFxlBZ5kmj3ijH1JWvu96BJ1wqsM-RYwJqE59_OTFOsIC5znSmbm8_B9f38jHRIQ6pdL_8y6NGGv_JOgrzLU1BoUcGCg7ijzRPuhrES13EwdgZEbTp0
p797
sa(dp798
Vwidth
p799
I2048
sVheight
p800
I1468
sVhtml_attributions
p801
(lp802
V<a href="https://plus.google.com/104908431756212890221">Jay E. Jenkins</a>
p803
asVphoto_reference
p804
VCrQBowAAAO0In2vPBwxRYq1IkXN_sipkI8YQL00btqjjJCSjHseWVxdPAuw23oW6KIOkflu8NnsUlzublJtRY0Auf6ycbqXUvTH006jzUq7kvW5D86DwaBEmhjFyBA1Cx1u-ZSe_ZuDzEke0n5tpL3bUabHEPNBX9BFmA-dg84KJjmFrYRQ4FvjOLTkpG31admg9JDcf5avWeoVTXpNtW2DjeWmTar_r6-H5DW2eROMyxIu3_a-9EhD8UmwKzHPrPutbSjjG3AfJGhQ0WNMncRDSjSYV7ZOKYF9FPn5uHA
p805
sa(dp806
Vwidth
p807
I512
sVheight
p808
I768
sVhtml_attributions
p809
(lp810
V<a href="https://plus.google.com/106558039864076309587">Fototaker Sf</a>
p811
asVphoto_reference
p812
VCnRsAAAAum9QBpWubgakN4nQa90FFzVRGVDnrLhuNS_DE1ENHlwZX9PEZzkEVs1Mo2i9pxVj_tBh7IiCEiYjc9_6BATB6Z_hvt5KUqZW2_FcIZ_8g1JO6nvh7uG0rK9585fdM9GGEDMMu6NxLamfU7dyf91m6hIQdiPkki7KYkeJLvjKzzxm3RoUOHpYGeg8THSLXE1W0qZQSpV5LPM
p813
sasVurl
p814
Vhttps://plus.google.com/101183959756635433266/about?hl=en-US
p815
sVaddress_components
p816
(lp817
(dp818
Vlong_name
p819
V1
p820
sVshort_name
p821
V1
p822
sVtypes
p823
(lp824
Vstreet_number
p825
asa(dp826
Vlong_name
p827
VTelegraph Hill Blvd
p828
sVshort_name
p829
VTelegraph Hill Blvd
p830
sVtypes
p831
(lp832
Vroute
p833
asa(dp834
Vlong_name
p835
VSan Francisco
p836
sVshort_name
p837
VSF
p838
sVtypes
p839
(lp840
Vlocality
p841
aVpolitical
p842
asa(dp843
Vlong_name
p844
VCalifornia
p845
sVshort_name
p846
VCA
p847
sVtypes
p848
(lp849
Vadministrative_area_level_1
p850
aVpolitical
p851
asa(dp852
Vlong_name
p853
VUnited States
p854
sVshort_name
p855
VUS
p856
sVtypes
p857
(lp858
Vcountry
p859
aVpolitical
p860
asa(dp861
Vlong_name
p862
V94133
p863
sVshort_name
p864
V94133
p865
sVtypes
p866
(lp867
Vpostal_code
p868
asasVscope
p869
VGOOGLE
p870
sVformatted_address
p871
V1 Telegraph Hill Blvd, San Francisco, CA 94133, United States
p872
sVid
p873
Vb29bfcfc1c01d4fb92de2cb3e5bc1c18fc3fb446
p874
sVtypes
p875
(lp876
Vestablishment
p877
asVicon
p878
Vhttp://maps.gstatic.com/mapfiles/place_api/icons/generic_business-71.png
p879
ssba(ispot
Spot
p880
(dp881
g3
I150
sg4
(dp882
g6
F0.7592
sg7
F1.0
sg8
F0.7544
sg9
F0.6624
sg10
F0.7432
sg12
F0.0
sg24
F0.7888
sg13
F0.588
sg14
F0.9136
ssg15
(dp883
Vrating
p884
F4.4
sVreference
p885
VCoQBdwAAAEjzGOQP9yhtB0E7ocOnOQ17wbaVdG_CAq4eL-MjpKa9kRvxwnPOjSxBq2-nIEsRtLFbDvOgLJC3dZEXBLE4fjmTEGe70x-uNGH_3D4IIP8y0SGUkO3oshpr_VYCO66ZTDHXFLicMmHQnXgLc5W1wYZyM8FkUyn7zC5WzUV7PLvkEhApUZCwKGYix60APd0hTg9pGhRipRcw63RUh5RNGZltS3_-OOn4Ww
p886
sVprice_level
p887
I3
sVplace_id
p888
VChIJIUT7rEOHhYARucp3wM-HhBs
p889
sVformatted_address
p890
V55 Music Concourse Dr, San Francisco, CA 94118, United States
p891
sVid
p892
Vd920c64674d4af2f684358adccbdf3f04eb70002
p893
sVformatted_phone_number
p894
V(415) 379-8000
p895
sVopening_hours
p896
(dp897
Vweekday_text
p898
(lp899
VMonday: 9:30 am \u2013 5:00 pm
p900
aVTuesday: 9:30 am \u2013 5:00 pm
p901
aVWednesday: 9:30 am \u2013 5:00 pm
p902
aVThursday: 9:30 am \u2013 5:00 pm
p903
aVFriday: 9:30 am \u2013 5:00 pm
p904
aVSaturday: 9:30 am \u2013 5:00 pm
p905
aVSunday: 11:00 am \u2013 5:00 pm
p906
asVopen_now
p907
I00
sVperiods
p908
(lp909
(dp910
Vclose
p911
(dp912
Vday
p913
I0
sVtime
p914
V1700
p915
ssVopen
p916
(dp917
Vday
p918
I0
sVtime
p919
V1100
p920
ssa(dp921
Vclose
p922
(dp923
Vday
p924
I1
sVtime
p925
V1700
p926
ssVopen
p927
(dp928
Vday
p929
I1
sVtime
p930
V0930
p931
ssa(dp932
Vclose
p933
(dp934
Vday
p935
I2
sVtime
p936
V1700
p937
ssVopen
p938
(dp939
Vday
p940
I2
sVtime
p941
V0930
p942
ssa(dp943
Vclose
p944
(dp945
Vday
p946
I3
sVtime
p947
V1700
p948
ssVopen
p949
(dp950
Vday
p951
I3
sVtime
p952
V0930
p953
ssa(dp954
Vclose
p955
(dp956
Vday
p957
I4
sVtime
p958
V1700
p959
ssVopen
p960
(dp961
Vday
p962
I4
sVtime
p963
V0930
p964
ssa(dp965
Vclose
p966
(dp967
Vday
p968
I5
sVtime
p969
V1700
p970
ssVopen
p971
(dp972
Vday
p973
I5
sVtime
p974
V0930
p975
ssa(dp976
Vclose
p977
(dp978
Vday
p979
I6
sVtime
p980
V1700
p981
ssVopen
p982
(dp983
Vday
p984
I6
sVtime
p985
V0930
p986
ssassVvicinity
p987
V55 Music Concourse Dr, San Francisco
p988
sVscope
p989
VGOOGLE
p990
sVwebsite
p991
Vhttp://www.calacademy.org/
p992
sVutc_offset
p993
I-480
sVuser_ratings_total
p994
I629
sVphotos
p995
(lp996
(dp997
Vwidth
p998
I640
sVheight
p999
I427
sVhtml_attributions
p1000
(lp1001
sVphoto_reference
p1002
VCnRnAAAAxfRX0WjH81p58TYMRmKtX8hwxbHwYjLSFtae3yJqOLvLIE5dUhCppg7mRAwOZgQc63Jaf3L-6s9iRsC-jAIMgTUBz8BxoiCasz2NBvDuyK-ZcWkAovsVvBfcVt1f_kgUq6tpAwLnjgo_XZy-ImF00xIQYV7stvvjcbHGQPy2gguINRoU5i8iXLT0Ehzx465gGf-0uOAOVJQ
p1003
sa(dp1004
Vwidth
p1005
I482
sVheight
p1006
I640
sVhtml_attributions
p1007
(lp1008
sVphoto_reference
p1009
VCnRnAAAAa7yhagliGsTi3gz57yIcRZyryU762CpCoZrhe68eQ7O2BQhOGjiVJEe9c5s90LdEjG9iCu_tNnsmYfUign9xVY90itGcNDV9hugeWV0ZwuTSPPIveWjteheAX8nPVOx0Vd5o7VjlUO7h4ffWVtOPJhIQwS9E05dEbIIVGd-r-TlHQRoUArrBoyG6ZPzc56A50OSXEq4gunk
p1010
sa(dp1011
Vwidth
p1012
I640
sVheight
p1013
I427
sVhtml_attributions
p1014
(lp1015
sVphoto_reference
p1016
VCnRnAAAAolJJoKEz2jLakdQmoN0qjsNcPD9emsNet5xuhDBq-nIHTW7HGalMcOUxz5kHMoDhKjnRvECeLld2S0pYmYIIq2mB3NIc53seEO3GIfeYCgPmUpSRss5YhdGv1v9eP9GZAkJEFe9tMAf2ZK33wg0JNBIQHM-Sr7DRuX9qrK18dVG4jhoULARpROyWjkkBMZB-0vqoVjETsBo
p1017
sa(dp1018
Vwidth
p1019
I640
sVheight
p1020
I427
sVhtml_attributions
p1021
(lp1022
sVphoto_reference
p1023
VCnRnAAAANTjnJYjxSMMnZHnaibSn4oX9UOURYibyneB-muv8XDg0duvGk3ylr9XANmSXPjtIqBNPc29UX9kHFjH-0Fe7AFNDEvzngFEVPy7w0a9qviZxzpxt9EnAnhhSZM0UvWr_lPDsIsJZwM2t7yAbt4OwoBIQuB-nznnkmbSJvz4KHuzyJBoUmm8Iv_OSqIrACvl7oyZS0MdTqdc
p1024
sa(dp1025
Vwidth
p1026
I640
sVheight
p1027
I457
sVhtml_attributions
p1028
(lp1029
sVphoto_reference
p1030
VCnRnAAAAZy8k2_KxWXs2lkRUdyazhV99aRunJUq5Zby4Eim8gNK5VZYK-faGOfZ2pzcx-6YiFahBWJ1cmhoeobZ8f9WEBh_DWR8NDwKEIiUQI4EaThHaMUcQUQ1WNue7HdHemYhiq63PxyPvHvL5KGezHjolShIQIQClnGy3PjnI0eakbU9y0RoUpLx_OJmZ6YxnBk_PSJtzyPyXcIA
p1031
sa(dp1032
Vwidth
p1033
I640
sVheight
p1034
I480
sVhtml_attributions
p1035
(lp1036
sVphoto_reference
p1037
VCnRnAAAAgcd5hu0FNe_898H0tfunim0u_47Pe9qMRNek8OrTpJku-7YAglE-14WEissAKGi1J19rHjadSgXmQXiull8nXnGZSIR3zp-XqDW5q_syUUVeWqmo-heBStJa-PxuTkOS3qShixE6D5NeYEDTka_ArRIQmpemxuwKe0mQ4ty8UoqbFBoUjDqzMX37T3TtyGwqQvUn5efmanw
p1038
sa(dp1039
Vwidth
p1040
I562
sVheight
p1041
I640
sVhtml_attributions
p1042
(lp1043
sVphoto_reference
p1044
VCnRnAAAAAsKHMga2T32GaSP6DNrGrayaqHZ23raI3ab2sv8smRkichkoxquMK1fu7ft6WsgO5EWaVWAApHRUf7KBO2PHQugHhYKnpTl5M7Zut0jPvGjbtgQMBpoChQOyW4etpqiPapg9V-I7l0xRN4LLch7sjRIQ-n5KRCiB0leSswQc-Pn7bBoUAK9BGvhxmCJVffHpotoZam80mdM
p1045
sa(dp1046
Vwidth
p1047
I640
sVheight
p1048
I443
sVhtml_attributions
p1049
(lp1050
sVphoto_reference
p1051
VCnRnAAAApQmiLT-DzlBQGYX4AnSSd1LGCsKtYgnUM__zU2kb96itoFrfmwt79HmkhKNZyEmkf48Ohv6VmO4fPtn6qndiRi0rhMLy9wqu6dZNR0bTVXnHxTF4oydpm5bcs4yYOQBExYtTdHFq36i78BeJlyrhoRIQS44544GL89hjKRNHdQTRzBoUHstRqrQiJ1-C9RkpfAYC1WdgT8E
p1052
sa(dp1053
Vwidth
p1054
I2048
sVheight
p1055
I1536
sVhtml_attributions
p1056
(lp1057
V<a href="https://plus.google.com/104847770319584345133">Shiraz Siddiqui</a>
p1058
asVphoto_reference
p1059
VCnRqAAAAxV5ilFGG4FgiNZdQ2gd6K0ysXC7J-EJDtjimVnz4guSn-USkZrbcSPw2ZlAI2_6v_ibIUndowVm9t4-6NGWBRwaL_jxrd_Y2sL_Sct60UN1cKFuXAxVA2Jpitav-flFP7t_A-NkfG_crwBSBXtkqLRIQmRwOV1gOYAFeVsFiNW5UCRoU_DPwsJ7s6efJKk5sXFcX7jFTP-M
p1060
sa(dp1061
Vwidth
p1062
I533
sVheight
p1063
I400
sVhtml_attributions
p1064
(lp1065
V<a href="https://plus.google.com/116600105708585783882">Edwin Ragadio</a>
p1066
asVphoto_reference
p1067
VCnRmAAAAMGqvZo--RRSEw-pkWFMpTg-B6ovgl0uJNgc3fWQI4XcD_jVmhdWgdE57S1pyLC1X8MJocM3slJWoqDcXnaDKqCA52XhetrAFkKUVyYEGyMv8Q3oSOeFfzosTDr9VbTB9DOYE8AIzE7ewulvwmESNfRIQdM-sw44L2hxao9hJsBMtIRoUWADAZBnKkkbmvwUhbNerLa9Fo4M
p1068
sasVtypes
p1069
(lp1070
Vaquarium
p1071
aVmuseum
p1072
aVestablishment
p1073
asVicon
p1074
Vhttp://maps.gstatic.com/mapfiles/place_api/icons/aquarium-71.png
p1075
sVname
p1076
g11
sVgeometry
p1077
(dp1078
Vlocation
p1079
(dp1080
Vlat
p1081
F37.769865
sVlng
p1082
F-122.466095
sssVadr_address
p1083
V<span class="street-address">55 Music Concourse Dr</span>, <span class="locality">San Francisco</span>, <span class="region">CA</span> <span class="postal-code">94118</span>, <span class="country-name">United States</span>
p1084
sVinternational_phone_number
p1085
V+1 415-379-8000
p1086
sVreviews
p1087
(lp1088
(dp1089
Vrating
p1090
I5
sVaspects
p1091
(lp1092
(dp1093
Vrating
p1094
I3
sVtype
p1095
Voverall
p1096
sasVlanguage
p1097
Ven
p1098
sVtext
p1099
VThis is one of the best experiences and values in the city.  This has great night time programs for young adults with music and drinks.  During the daytime this museum showcases the diversity of the whole Bay Area.  You get to explore ecology through the wonderful ECO-dome (biosphere).  The planetarium is fabulous and you get to see the pendulum.  Overall great experience and wonderful for both kids and adults.  Buy the year long membership for your best value.
p1100
sVauthor_name
p1101
Vrobert leung
p1102
sVauthor_url
p1103
Vhttps://plus.google.com/115943204529468844278
p1104
sVtime
p1105
I1416256114
sa(dp1106
Vrating
p1107
I4
sVaspects
p1108
(lp1109
(dp1110
Vrating
p1111
I2
sVtype
p1112
Voverall
p1113
sasVlanguage
p1114
Ven
p1115
sVtext
p1116
VThe Academy of sciences has an amazing aquarium complex that takes a long time to explore and see completely. The layout can be a bit confusing at first, but the high quality exhibits and the signage help. I really like their super small mini aquarium showcasing one tiny type of shrimp or crab, they are very detailed and neat.\u000aTheir biosphere/dome is really cool too, it has a lot to see and spend time in. It's a one way trip: when you get in, you look at things, walk to the top, and take an elevator to exit into the aquarium.\u000aI expected more hands-on things but I guess that's for the Exploratorium.\u000aTheir planetarium, while limited in seats (get a pass as soon as you arrive!) is cool. \u000aI went for the 21+ Thursday night events, which are great, and with a theme, but get very very crowded.
p1117
sVauthor_name
p1118
VJulian Fessard
p1119
sVauthor_url
p1120
Vhttps://plus.google.com/112118270664425522168
p1121
sVtime
p1122
I1412989932
sa(dp1123
Vrating
p1124
I5
sVaspects
p1125
(lp1126
(dp1127
Vrating
p1128
I3
sVtype
p1129
Voverall
p1130
sasVlanguage
p1131
Ven
p1132
sVtext
p1133
VUPDATING TO 5 stars!!!\u000aGot to go here for a city experts event... it was amazing! We got to listen to the tank diver talk about the awesome reef tank, and the older lady docent was awesome about telling us about all the fish and the alligators. Now that I'm expecting I can't wait to take my daughter here to watch all the fish swim by in the tanks, then travel to african savanna and see the zebras\u000a\u000aPrevious:\u000aOk so we all go here on field trips as kids and that's a memory that we hold dear. So you can imagine my surprise as an adult when I came here for one of their nightlife events and the whole inside was changed. It was really disorienting, but I do have to say they new design was still really awesome.\u000a\u000aHOWEVER, once I got acclimated to the changes, I actually had a pretty good time. I took glass with me and my favorite part was the tide pools. The staff were awesome and let me record them talking about the starfish. It made my night really special!!\u000a\u000aDefinitely checkout the nightlife events!!! Fish,dancing, & fun how can you go wrong???
p1134
sVauthor_name
p1135
VShauna Mork
p1136
sVauthor_url
p1137
Vhttps://plus.google.com/110513218467589779477
p1138
sVtime
p1139
I1411720448
sa(dp1140
Vrating
p1141
I5
sVaspects
p1142
(lp1143
(dp1144
Vrating
p1145
I3
sVtype
p1146
Voverall
p1147
sasVlanguage
p1148
Ven
p1149
sVtext
p1150
VI dined there last night for the first time and were very happy with the food and the service! He loved the Cioppino with lots of Maine lobster / shrimp / mussels / clams / fish calamari / scallops and shellfish vegetable broth! I loved my Chilean Sea Bass and we both love our Field Greens Salad! We'll be back!
p1151
sVauthor_name
p1152
VElinor Newell
p1153
sVauthor_url
p1154
Vhttps://plus.google.com/106242117275472828307
p1155
sVtime
p1156
I1416251545
sa(dp1157
Vrating
p1158
I5
sVaspects
p1159
(lp1160
(dp1161
Vrating
p1162
I3
sVtype
p1163
Voverall
p1164
sasVlanguage
p1165
Ven
p1166
sVtext
p1167
VThis place is amazing and one of the most impressive places to take a brainy date to. They have these Night-Life events that take place every Thursday and the theme is basically, science meets pop culture, meets a ginger tonic. It is incredibly fun and very hipster approved in my opinion. The drinks are not cheap of course, but the entrance tickets are at only $12 per person. They even have live-ostrich babies! If you can't win date of the year here then you're standing in the wrong museum. OH! and check out the starlight from the living roof exhibit, and get there early to catch the planetarium as it fills up in an instant.
p1168
sVauthor_name
p1169
VMisha Metrikin
p1170
sVauthor_url
p1171
Vhttps://plus.google.com/114890117672430115819
p1172
sVtime
p1173
I1413259773
sasVurl
p1174
Vhttps://plus.google.com/116851551368109810342/about?hl=en-US
p1175
sVaddress_components
p1176
(lp1177
(dp1178
Vlong_name
p1179
V55
p1180
sVshort_name
p1181
V55
p1182
sVtypes
p1183
(lp1184
Vstreet_number
p1185
asa(dp1186
Vlong_name
p1187
VMusic Concourse Dr
p1188
sVshort_name
p1189
VMusic Concourse Dr
p1190
sVtypes
p1191
(lp1192
Vroute
p1193
asa(dp1194
Vlong_name
p1195
VSan Francisco
p1196
sVshort_name
p1197
VSF
p1198
sVtypes
p1199
(lp1200
Vlocality
p1201
aVpolitical
p1202
asa(dp1203
Vlong_name
p1204
VCalifornia
p1205
sVshort_name
p1206
VCA
p1207
sVtypes
p1208
(lp1209
Vadministrative_area_level_1
p1210
aVpolitical
p1211
asa(dp1212
Vlong_name
p1213
VUnited States
p1214
sVshort_name
p1215
VUS
p1216
sVtypes
p1217
(lp1218
Vcountry
p1219
aVpolitical
p1220
asa(dp1221
Vlong_name
p1222
V94118
p1223
sVshort_name
p1224
V94118
p1225
sVtypes
p1226
(lp1227
Vpostal_code
p1228
asassba(ispot
Spot
p1229
(dp1230
g3
I200
sg4
(dp1231
g6
F0.824
sg7
F0.6304
sg8
F0.6992
sg10
F0.5808
sg11
F0.572
sg12
F0.62
sg24
F0.8808
sg13
F0.6
sg14
F0.592
ssg15
(dp1232
Vrating
p1233
F4.3
sVreference
p1234
VCoQBdgAAAHtCy7wHb9FTrPRkDgVXB1Ar0qFFNio0G_aDOKJL-PM2ZkjDiPetnN-pbTNNXgutjxkLEeEOf96d58Fb5vgqn5-Ru4Z_OjCSrGAki4i2skMDFj3lEZxeswDiTiivADjov5wr_eQ4asc85VB2UdbYJT_GAtQb-vx1HWez7Gi9aarxEhCXcifyZVRiYQ4j_PSkK45IGhTIZKUDZvYW-JGRFU7SC82kWFS06Q
p1235
sVplace_id
p1236
VChIJ5f7ZKtiGhYAR9WaYFS6bH1U
p1237
sVgeometry
p1238
(dp1239
Vlocation
p1240
(dp1241
Vlat
p1242
F37.801406
sVlng
p1243
F-122.458725
sssVformatted_address
p1244
V104 Montgomery St, San Francisco, CA 94129, United States
p1245
sVid
p1246
Vb1467bcc46fa06becac3805afdfcbe5e26806199
p1247
sVopening_hours
p1248
(dp1249
Vweekday_text
p1250
(lp1251
VMonday: 10:00 am \u2013 6:00 pm
p1252
aVTuesday: Closed
p1253
aVWednesday: 10:00 am \u2013 6:00 pm
p1254
aVThursday: 10:00 am \u2013 6:00 pm
p1255
aVFriday: 10:00 am \u2013 6:00 pm
p1256
aVSaturday: 10:00 am \u2013 6:00 pm
p1257
aVSunday: 10:00 am \u2013 6:00 pm
p1258
asVopen_now
p1259
I00
sVperiods
p1260
(lp1261
(dp1262
Vclose
p1263
(dp1264
Vday
p1265
I0
sVtime
p1266
V1800
p1267
ssVopen
p1268
(dp1269
Vday
p1270
I0
sVtime
p1271
V1000
p1272
ssa(dp1273
Vclose
p1274
(dp1275
Vday
p1276
I1
sVtime
p1277
V1800
p1278
ssVopen
p1279
(dp1280
Vday
p1281
I1
sVtime
p1282
V1000
p1283
ssa(dp1284
Vclose
p1285
(dp1286
Vday
p1287
I3
sVtime
p1288
V1800
p1289
ssVopen
p1290
(dp1291
Vday
p1292
I3
sVtime
p1293
V1000
p1294
ssa(dp1295
Vclose
p1296
(dp1297
Vday
p1298
I4
sVtime
p1299
V1800
p1300
ssVopen
p1301
(dp1302
Vday
p1303
I4
sVtime
p1304
V1000
p1305
ssa(dp1306
Vclose
p1307
(dp1308
Vday
p1309
I5
sVtime
p1310
V1800
p1311
ssVopen
p1312
(dp1313
Vday
p1314
I5
sVtime
p1315
V1000
p1316
ssa(dp1317
Vclose
p1318
(dp1319
Vday
p1320
I6
sVtime
p1321
V1800
p1322
ssVopen
p1323
(dp1324
Vday
p1325
I6
sVtime
p1326
V1000
p1327
ssassVvicinity
p1328
V104 Montgomery St, San Francisco
p1329
sVscope
p1330
VGOOGLE
p1331
sVwebsite
p1332
Vhttp://waltdisney.org/
p1333
sVutc_offset
p1334
I-480
sVuser_ratings_total
p1335
I64
sVphotos
p1336
(lp1337
(dp1338
Vwidth
p1339
I1344
sVheight
p1340
I760
sVhtml_attributions
p1341
(lp1342
V<a href="https://plus.google.com/104418807524866039109">Rhonda Irmen</a>
p1343
asVphoto_reference
p1344
VCnRoAAAAZnXCwe3wW841_PqKZGQpav-PtL2L_vMVy1k2_JY4jSaDAklQovR7NeWqh3R_SwuD5-_R0j5n8SjTtzsSrLDbFRjZZGcQ_EBBU0eqbCX_HbDlOXW7QS6v5Q2LA26jg9BdmySZnbT4RJ3stichDQo-NxIQ3iUidWSqmWfmdz8A720AJBoUE5rCjNpdrDQYg1iZf6s4ejEeLEw
p1345
sa(dp1346
Vwidth
p1347
I1344
sVheight
p1348
I760
sVhtml_attributions
p1349
(lp1350
V<a href="https://plus.google.com/104418807524866039109">Rhonda Irmen</a>
p1351
asVphoto_reference
p1352
VCnRoAAAAMXwB4zTnquzx5t1eslyyZeFyvAuQjNS3W1cGtEHiDzrVZ_71HdGXbsiw0wSebTOi9tJc594b5JE38yaKIlqTYGMchvwzz6hCIb32pGM8PluHYXEhGJEROhRyWN-P-xSG9KnZvbXSfTwij9I_Up3QZhIQZRuMhn7CI2sB-8c7yWyTvxoUFUt3oFchO6qjznzq2nqDJ1v3dp8
p1353
sa(dp1354
Vwidth
p1355
I1344
sVheight
p1356
I760
sVhtml_attributions
p1357
(lp1358
V<a href="https://plus.google.com/104418807524866039109">Rhonda Irmen</a>
p1359
asVphoto_reference
p1360
VCnRoAAAAxF1cmnW9-h9bZQ1qqL8kcp6FxQD3w0n9-m4Y1a2jKfCu9DM4Ab77rwLCaNWLq44SQ4IIg-G0OkSkCBeoEVI14D-02cRcKPHp53FpoSX-IiRxke8izUkVqlak_nQBXzBFiGbprhHvR5YlcyjQIKIgdRIQHJXh6wb-X9p_CaWY_X0zxxoUUSVSiuY8bBK5h_zrHuWC58PeNDg
p1361
sa(dp1362
Vwidth
p1363
I658
sVheight
p1364
I1216
sVhtml_attributions
p1365
(lp1366
V<a href="https://plus.google.com/104418807524866039109">Rhonda Irmen</a>
p1367
asVphoto_reference
p1368
VCnRoAAAAGslLVJQbm-1ohWXnU677iMdfoRQUvQI145kwlEKBbQyTW77HUGDMFXiKQAzcB6H4FEzjGy2D6J2ooU8asXrF0fXCZjPLoJq0OO5GqxofyvXL19DTa73p1PI7VULC8V7M2elw36o8AoY4Tle9sOejYxIQQhC5PeIdt01onpboFqZ1JxoUMQpLpLbfI4Pcc0YvEl8kc3iKJHc
p1369
sa(dp1370
Vwidth
p1371
I760
sVheight
p1372
I1344
sVhtml_attributions
p1373
(lp1374
V<a href="https://plus.google.com/104418807524866039109">Rhonda Irmen</a>
p1375
asVphoto_reference
p1376
VCnRoAAAATiVALmlEgg9zvZmkus-6wbiViYbmgGjt6BjdHgNmva9BxcDvKjZ4_meVxl9ool26YtTaxMChImfYBTM46DNJ84wIIIDiSv60s9Q6tKVbHKbr5S_mYFFGhKZyQh-JghwS7o2-11MI_FBXUqKIYIzKTBIQUqxSzg9RJ6nAe7Fqg2vxqxoUeI5eRV4fo9OK2X2wMfp0HrvwOL4
p1377
sa(dp1378
Vwidth
p1379
I3072
sVheight
p1380
I2304
sVhtml_attributions
p1381
(lp1382
VFrom a Google User
p1383
asVphoto_reference
p1384
VCpQBjQAAADc7yp4IN1gZjU7-TdWvENnmoGz2G3lhS7v8JQkJcxVLm5voh2YE8ysZPzSlBBlWbxafdtNQKDChekFyOmukhLGvDHMoAwclncTjkeWLyc7kOqLdsN3UG96BlX1_r8OzbVbNH5wCSvzgIOCPZYORE7nkWDsuPVtD6e9S5gXDzczLPf2BUYzz9XCt0XYf8i9wMhIQkaBnhSP3PpbbSSu0US00wBoU9aPP54_uhB0g8SKHGwspOjCD3Q4
p1385
sa(dp1386
Vwidth
p1387
I3072
sVheight
p1388
I2304
sVhtml_attributions
p1389
(lp1390
VFrom a Google User
p1391
asVphoto_reference
p1392
VCpQBjQAAADVP4mT7cNQ1gGK1mE8VQO6BvjGNpfw77RHgcJ01NXi702SJDsDGTf1cIHPv-upK2_zxX6M4OetE-A2VoP2qPxS6fAbYQGr1owLZbdgUzPvXNXyTzDgUH4OqLLmAg15cqopxSAwq2GMJMQPGCsqFw5iI8WerCKe0Z0ncwvMy89tuXqGEW3wlwV_lUS0F7Lw42xIQZfmvVHmo6Lq39t907GOO7BoUtWTfgiv8pmUkoRj7jeDEOFS1_Dc
p1393
sa(dp1394
Vwidth
p1395
I4752
sVheight
p1396
I3168
sVhtml_attributions
p1397
(lp1398
V<a href="https://plus.google.com/113348736951055038973">Thomas Devaux</a>
p1399
asVphoto_reference
p1400
VCnRqAAAAGV9XM54HV-cErRoo_Io2ku2VOXUqdHGtXIRumm4vecq73Us1cwhTEBd9XrkJUccYetuhEABR4ykBJpeSNCLh6_u4epxXgv3IXXGPKmwOvYkKM2HBlYwmJaIz531LtS7e_3hy7gR0b8k9aSjwQOTfwBIQlGpraNafsQk4uGIx4SgSCBoUF6u81MvcVOt-enNac3m-BFNnWnw
p1401
sasVtypes
p1402
(lp1403
Vmuseum
p1404
aVestablishment
p1405
asVicon
p1406
Vhttp://maps.gstatic.com/mapfiles/place_api/icons/museum-71.png
p1407
sVname
p1408
g9
sVurl
p1409
Vhttps://plus.google.com/105919498584532583013/about?hl=en-US
p1410
sVadr_address
p1411
V<span class="street-address">104 Montgomery St</span>, <span class="locality">San Francisco</span>, <span class="region">CA</span> <span class="postal-code">94129</span>, <span class="country-name">United States</span>
p1412
sVinternational_phone_number
p1413
V+1 415-345-6800
p1414
sVreviews
p1415
(lp1416
(dp1417
Vrating
p1418
I5
sVaspects
p1419
(lp1420
(dp1421
Vrating
p1422
I3
sVtype
p1423
Voverall
p1424
sasVlanguage
p1425
Ven
p1426
sVtext
p1427
VMy Family and I went to Disneyland the year it opened and I've returned many, many times over the past fifty years.  Never having been to Disneyland around Christmas, I'm taking my Sons and their Families this Christmas.  \u000a\u000aI went to the Museum with two other friends.  It took us two and one-half hours to see and absorb all there is to see, ending the tour sitting and reflecting with tears.  I loved every minute of it.  It was so well done.  Not sure if 'youngsters' would appreciate the whole of it.\u000a\u000aSo happy it's close by to me too (Sonoma).\u000a\u000aEnjoy!
p1428
sVauthor_name
p1429
VDiane Litchfield
p1430
sVauthor_url
p1431
Vhttps://plus.google.com/118291852086003731498
p1432
sVtime
p1433
I1413835643
sa(dp1434
Vrating
p1435
I3
sVaspects
p1436
(lp1437
(dp1438
Vrating
p1439
I1
sVtype
p1440
Voverall
p1441
sasVlanguage
p1442
Ven
p1443
sVtext
p1444
VThe most interesting part for me was the exhibit of Mary Blair's designs.  Some of them looked a lot like the movies they eventually led to: The Three Caballeros, Peter Pan, Lady and the Tramp.  But she had a unique way of drawing in a plane, which the animators were never able to master, so that her studies led only to a vague idea of what the characters ended up looking like, and in some cases the overall layout of a scene.  But it was quite educational.\u000a\u000aThe Disney Museum itself was pretty much like the displays that used to be in Disneyland (Anaheim) before it was "modernized" with a bunch of new rides and shops.  So for me there wasn't much new there.  For somebody younger, who has never seen those displays before, it might be more interesting.
p1445
sVauthor_name
p1446
VBarry Gold
p1447
sVauthor_url
p1448
Vhttps://plus.google.com/100495659440714462183
p1449
sVtime
p1450
I1405281106
sa(dp1451
Vrating
p1452
I5
sVaspects
p1453
(lp1454
(dp1455
Vrating
p1456
I3
sVtype
p1457
Voverall
p1458
sasVlanguage
p1459
Ven
p1460
sVtext
p1461
VThe Disney Family Museum is the perfect place for any Disney fanatic.  I came here during one of their night life events and I had a great time visiting the different exhibits.  The theme was tiki and everyone came dressed up in vintage tiki clothes.  They had themed cocktails, arts and crafts and had a food truck outside selling Hawaiian style sliders.  My favorite part of the museum was the Mary Blair exhibit in the second building in the back.  They also had a ukulele player that serenaded guests as they waited in the line to get into the museum.  I would love to go back on a day when it's not so crowded so I could see more of the museum.
p1462
sVauthor_name
p1463
VMandy Irvine
p1464
sVauthor_url
p1465
Vhttps://plus.google.com/104622617500175604392
p1466
sVtime
p1467
I1404172582
sa(dp1468
Vrating
p1469
I4
sVaspects
p1470
(lp1471
(dp1472
Vrating
p1473
I2
sVtype
p1474
Voverall
p1475
sasVlanguage
p1476
Ven
p1477
sVtext
p1478
VDiscount for students. Great hidden gem in the Presidio. A museum geared towards adults and artists, not kid recommended.
p1479
sVauthor_name
p1480
VAaron Babst
p1481
sVauthor_url
p1482
Vhttps://plus.google.com/110946194191781310998
p1483
sVtime
p1484
I1413471375
sa(dp1485
Vrating
p1486
I3
sVaspects
p1487
(lp1488
(dp1489
Vrating
p1490
I1
sVtype
p1491
Voverall
p1492
sasVlanguage
p1493
Ven
p1494
sVtext
p1495
VThe main thing I would like to have done in San Francisco was visiting The Walt Disney Family Museum. But on Wednesday, April 23th, 2014, my husband and I went there, but unfortunately it was closed. I cried a lot, because it was my last day in San Francisco. \u000aI am from Brazil and I will return to San Francisco to visit the museum. I love Disneyland. I love Disneyworld and I love Walt Disney.,\u000a
p1496
sVauthor_name
p1497
VSonia Regina Del Nero Vitullo
p1498
sVauthor_url
p1499
Vhttps://plus.google.com/105192130399562483126
p1500
sVtime
p1501
I1416149824
sasVformatted_phone_number
p1502
V(415) 345-6800
p1503
sVaddress_components
p1504
(lp1505
(dp1506
Vlong_name
p1507
V104
p1508
sVshort_name
p1509
V104
p1510
sVtypes
p1511
(lp1512
Vstreet_number
p1513
asa(dp1514
Vlong_name
p1515
VMontgomery St
p1516
sVshort_name
p1517
VMontgomery St
p1518
sVtypes
p1519
(lp1520
Vroute
p1521
asa(dp1522
Vlong_name
p1523
VSan Francisco
p1524
sVshort_name
p1525
VSF
p1526
sVtypes
p1527
(lp1528
Vlocality
p1529
aVpolitical
p1530
asa(dp1531
Vlong_name
p1532
VCalifornia
p1533
sVshort_name
p1534
VCA
p1535
sVtypes
p1536
(lp1537
Vadministrative_area_level_1
p1538
aVpolitical
p1539
asa(dp1540
Vlong_name
p1541
VUnited States
p1542
sVshort_name
p1543
VUS
p1544
sVtypes
p1545
(lp1546
Vcountry
p1547
aVpolitical
p1548
asa(dp1549
Vlong_name
p1550
V94129
p1551
sVshort_name
p1552
V94129
p1553
sVtypes
p1554
(lp1555
Vpostal_code
p1556
asassba(ispot
Spot
p1557
(dp1558
g3
I250
sg4
(dp1559
g6
F0.232
sg7
F0.4608
sg8
F0.188
sg9
F0.5072
sg10
F0.156
sg11
F0.4976
sg12
F0.5456
sg24
F0.2992
sg14
F0.364
ssg15
(dp1560
Vrating
p1561
F4.2
sVreference
p1562
VCoQBdgAAAP7TLpG-1s2m9-Z3P5-vI2YcYj_T-hz9HOE2KAaFSbCET6L6FGd-BC9ctKhpLUUavCDsRkVwL0oq-XNf4VgB_15LOoxc8qDbcpp9YcOW34Q54eFqs6dj5cjqMJPBPlnz1Kug-B9yVrCvME299IyQUYhI3gaz9uEUMbevlYrDqB5IEhBJuRretLO8DSFsOKBB0hatGhRIcBWLVJKXqfBtzhYqz2bfsFdCuA
p1563
sVplace_id
p1564
VChIJd2spnJuAhYARhkuvhLCp3us
p1565
sVgeometry
p1566
(dp1567
Vlocation
p1568
(dp1569
Vlat
p1570
F37.779282
sVlng
p1571
F-122.415858
sssVformatted_address
p1572
V100 Larkin St, San Francisco, CA 94102, United States
p1573
sVid
p1574
Vb1c83827c82c9fa59ffcdad652d1e8a1b04a4ae8
p1575
sVopening_hours
p1576
(dp1577
Vweekday_text
p1578
(lp1579
VMonday: 10:00 am \u2013 6:00 pm
p1580
aVTuesday: 9:00 am \u2013 8:00 pm
p1581
aVWednesday: 9:00 am \u2013 8:00 pm
p1582
aVThursday: 9:00 am \u2013 8:00 pm
p1583
aVFriday: 12:00 \u2013 6:00 pm
p1584
aVSaturday: 10:00 am \u2013 6:00 pm
p1585
aVSunday: 12:00 \u2013 5:00 pm
p1586
asVopen_now
p1587
I00
sVperiods
p1588
(lp1589
(dp1590
Vclose
p1591
(dp1592
Vday
p1593
I0
sVtime
p1594
V1700
p1595
ssVopen
p1596
(dp1597
Vday
p1598
I0
sVtime
p1599
V1200
p1600
ssa(dp1601
Vclose
p1602
(dp1603
Vday
p1604
I1
sVtime
p1605
V1800
p1606
ssVopen
p1607
(dp1608
Vday
p1609
I1
sVtime
p1610
V1000
p1611
ssa(dp1612
Vclose
p1613
(dp1614
Vday
p1615
I2
sVtime
p1616
V2000
p1617
ssVopen
p1618
(dp1619
Vday
p1620
I2
sVtime
p1621
V0900
p1622
ssa(dp1623
Vclose
p1624
(dp1625
Vday
p1626
I3
sVtime
p1627
V2000
p1628
ssVopen
p1629
(dp1630
Vday
p1631
I3
sVtime
p1632
V0900
p1633
ssa(dp1634
Vclose
p1635
(dp1636
Vday
p1637
I4
sVtime
p1638
V2000
p1639
ssVopen
p1640
(dp1641
Vday
p1642
I4
sVtime
p1643
V0900
p1644
ssa(dp1645
Vclose
p1646
(dp1647
Vday
p1648
I5
sVtime
p1649
V1800
p1650
ssVopen
p1651
(dp1652
Vday
p1653
I5
sVtime
p1654
V1200
p1655
ssa(dp1656
Vclose
p1657
(dp1658
Vday
p1659
I6
sVtime
p1660
V1800
p1661
ssVopen
p1662
(dp1663
Vday
p1664
I6
sVtime
p1665
V1000
p1666
ssassVvicinity
p1667
V100 Larkin St, San Francisco
p1668
sVscope
p1669
VGOOGLE
p1670
sVwebsite
p1671
Vhttp://sfpl.org/index.php?pg=0100000101
p1672
sVutc_offset
p1673
I-480
sVuser_ratings_total
p1674
I87
sVphotos
p1675
(lp1676
(dp1677
Vwidth
p1678
I212
sVheight
p1679
I132
sVhtml_attributions
p1680
(lp1681
sVphoto_reference
p1682
VCnRnAAAARCnV6KzS-uoEMaTJuucoMwPCLBI0ZX2y8If0G7GXsl7AL2ZGeV_iy8VO5KieeKx8_kk78195Nv0AoL9rdZsMIEZFHWYL2a7FY6WfjcqInaESNAYLfkWeUwTFMP6JdVtBj0-zpQx74bCBh31MwO52KRIQCoyLM5YKEkRJt_jTLHj5-BoU-0Ee70Mq1u2LUvT6cYMTmOl7W9M
p1683
sa(dp1684
Vwidth
p1685
I1224
sVheight
p1686
I1632
sVhtml_attributions
p1687
(lp1688
V<a href="https://plus.google.com/110973269841242399688">Leonard Hayes</a>
p1689
asVphoto_reference
p1690
VCnRoAAAAdhxqrbMy2_rsZUpwTpciEg5EzxEG0zK_srMKgSFNYVgB6-6gB_tiqcUJ5pzpE45PTSPeE3Sii_U7T9qN6gvSvq0n1OXGVCZ1xp7alf7iCBIhSJaUVclfnKeI8XRK-r2kDNJvxJPa9Fl7RsRh7Ygy5BIQDv7stDwrWpjeeJLPh8ZBrRoU7lz7CG2Lk5d8LS5RFLUaZ7Z4bOI
p1691
sa(dp1692
Vwidth
p1693
I1296
sVheight
p1694
I972
sVhtml_attributions
p1695
(lp1696
VFrom a Google User
p1697
asVphoto_reference
p1698
VCnRsAAAAlt88Jo5CtX1JrwoJlUAIWoZ0wUOuK47qvRR6A4uxGc1Vsb43LQuYazwZtfwydh57AQVbzU1v4E6_mSa75lWdffJn2I2etSrSmOLjYJIpf_cH14GgRVzWv_1LJ0LNJLHm-a0opWMdowpfB_Spp5hFoRIQD-8amYL51TPaQp75seXplhoUwIy2yjOe_NNkoYP-uwfJo4xpxFY
p1699
sa(dp1700
Vwidth
p1701
I1224
sVheight
p1702
I1632
sVhtml_attributions
p1703
(lp1704
V<a href="https://plus.google.com/110623718662972590701">chad labounty</a>
p1705
asVphoto_reference
p1706
VCnRoAAAAIG94GKUfhi6EPaJB9mYh9Ci-m2SFfEGgaZ_mn3XKaQztEkcCe-M5NoOpT7es7U037uP5S1ul6ZijcW8vbXmhHoSJ_ebM6a9Ws4jUBXDC3x7DMXsLHVVmF4yQL1JQz309bkHzNOEyVZWoiPcutyUbsxIQ7DqVpI64TM3aVIuJaI98jxoUBLSYHmtugQmm9w53rdy1zm60kv4
p1707
sa(dp1708
Vwidth
p1709
I768
sVheight
p1710
I1024
sVhtml_attributions
p1711
(lp1712
V<a href="https://plus.google.com/107358372958769357655">Eric T. Fisher</a>
p1713
asVphoto_reference
p1714
VCoQBgAAAAEJb-Oqbg6ftTksFQdc42F9XwoUHnqEqd6steiMkh1hdyh27zrMUdcvy_VGeVCksyuF4GME5XRdz_GB3tPYN26sdwxJp1W6chfkXA20Jjv9m-QITmlpSGaWzJB3oBjp8BHO2Ba6mYZmHWMVPa0HKdwNPZlYNxMUHY-NuLWnli89kEhBoUDPd7fQ9RktJpJPfdXj2GhQ9sri0fvGKqRPSuM7b1rgvbsUNqw
p1715
sa(dp1716
Vwidth
p1717
I485
sVheight
p1718
I160
sVhtml_attributions
p1719
(lp1720
sVphoto_reference
p1721
VCnRnAAAACWm0rCEPgV-ACYzs0kCTXJcrjClwPNtDXcgas-DEhjVprXKBBQjIpHS0qGr3pMiFzg7TkYlq6S8c1qAOmWaNlpUXgQ0X0evayh6sbkoJVr-Uoy7mZ5VomlyWTzFfNU0w6mz70e3O2NCYl5CTtHMJ4BIQB1QiMuSc618sh6D-PIkaJxoUhzDToX1ykdS95DeQ9c8AtDm8v9M
p1722
sasVtypes
p1723
(lp1724
Vlibrary
p1725
aVestablishment
p1726
asVicon
p1727
Vhttp://maps.gstatic.com/mapfiles/place_api/icons/library-71.png
p1728
sVname
p1729
g13
sVurl
p1730
Vhttps://plus.google.com/101406392128555893967/about?hl=en-US
p1731
sVadr_address
p1732
V<span class="street-address">100 Larkin St</span>, <span class="locality">San Francisco</span>, <span class="region">CA</span> <span class="postal-code">94102</span>, <span class="country-name">United States</span>
p1733
sVinternational_phone_number
p1734
V+1 415-557-4400
p1735
sVreviews
p1736
(lp1737
(dp1738
Vrating
p1739
I4
sVaspects
p1740
(lp1741
(dp1742
Vrating
p1743
I2
sVtype
p1744
Voverall
p1745
sasVlanguage
p1746
Ven
p1747
sVtext
p1748
V Great group studying/discussion on the 2nd floor corridor. Free wifi throughout the library. But if you are camera shy, then head for the reading rooms on the third floor; plenty of tourists stop by the central corridor to sit and pose as if studying/reading or just snap lots of photos. Sometimes with flash since no guards/staff are around this area.
p1749
sVauthor_name
p1750
VJennifer Anderson
p1751
sVauthor_url
p1752
Vhttps://plus.google.com/101668878103716987723
p1753
sVtime
p1754
I1416069549
sa(dp1755
Vrating
p1756
I4
sVaspects
p1757
(lp1758
(dp1759
Vrating
p1760
I2
sVtype
p1761
Voverall
p1762
sasVlanguage
p1763
Ven
p1764
sVtext
p1765
VWhen your friends are outside enjoying the sunshine and you have to study this really isn't a bad place to spend your day. It's absolutely gorgeous! 3rd floor reading room. Bundle up because it's always freezing, but it helps keep you awake. For some reason it has smelled like dirty feet/vinegar lately, but it's not always like that. Maybe it's the tourists?
p1766
sVauthor_name
p1767
VClarence Sasser
p1768
sVauthor_url
p1769
Vhttps://plus.google.com/115415379408402048510
p1770
sVtime
p1771
I1415905219
sa(dp1772
Vrating
p1773
I4
sVaspects
p1774
(lp1775
(dp1776
Vrating
p1777
I2
sVtype
p1778
Voverall
p1779
sasVlanguage
p1780
Ven
p1781
sVtext
p1782
VPretty cool library!  I was here more as a tourist and didn't actually check out any books or anything, but it was neat to walk around and see everything.  The building looks interesting and the park in front of it is a nice place to hang out.\u000a
p1783
sVauthor_name
p1784
VVina Lund
p1785
sVauthor_url
p1786
Vhttps://plus.google.com/105821397683553294140
p1787
sVtime
p1788
I1415473895
sa(dp1789
Vrating
p1790
I4
sVaspects
p1791
(lp1792
(dp1793
Vrating
p1794
I2
sVtype
p1795
Voverall
p1796
sasVlanguage
p1797
Ven
p1798
sVtext
p1799
VI go tot his library when I got to the Civic Center, but my regular branch is the Ortega Branch Library in the Sunset District. The librarians were very friendly, and there was a wide collection of books. I love the returning process and the self-checkout. The 6th Floor history room, was superb. I looked through files and much more. i would recommend this to everyone.
p1800
sVauthor_name
p1801
VJunming Guan
p1802
sVauthor_url
p1803
Vhttps://plus.google.com/116961296874666170914
p1804
sVtime
p1805
I1413590548
sa(dp1806
Vrating
p1807
I5
sVaspects
p1808
(lp1809
(dp1810
Vrating
p1811
I3
sVtype
p1812
Voverall
p1813
sasVlanguage
p1814
Ven
p1815
sVtext
p1816
VBeautiful library - I love the architecture and the chandeliers hanging in the main reading room; very large and expansive in which you get grab a table to study and/or do work.  Not to mention that this was one of the sites used for 'Ghostwriters!'  There is plenty of light from the natural sunlight streaming in from the large windows as well as the additional light from the lamps.  They have an extensive collection of books and it's a beautiful place to just stop by if you're in the area.
p1817
sVauthor_name
p1818
VSenaida Salmon
p1819
sVauthor_url
p1820
Vhttps://plus.google.com/114300096668768848098
p1821
sVtime
p1822
I1415185197
sasVformatted_phone_number
p1823
V(415) 557-4400
p1824
sVaddress_components
p1825
(lp1826
(dp1827
Vlong_name
p1828
V100
p1829
sVshort_name
p1830
V100
p1831
sVtypes
p1832
(lp1833
Vstreet_number
p1834
asa(dp1835
Vlong_name
p1836
VLarkin St
p1837
sVshort_name
p1838
VLarkin St
p1839
sVtypes
p1840
(lp1841
Vroute
p1842
asa(dp1843
Vlong_name
p1844
VCivic Center
p1845
sVshort_name
p1846
VCivic Center
p1847
sVtypes
p1848
(lp1849
Vneighborhood
p1850
aVpolitical
p1851
asa(dp1852
Vlong_name
p1853
VSan Francisco
p1854
sVshort_name
p1855
VSF
p1856
sVtypes
p1857
(lp1858
Vlocality
p1859
aVpolitical
p1860
asa(dp1861
Vlong_name
p1862
VSan Francisco County
p1863
sVshort_name
p1864
VSan Francisco County
p1865
sVtypes
p1866
(lp1867
Vadministrative_area_level_2
p1868
aVpolitical
p1869
asa(dp1870
Vlong_name
p1871
VCalifornia
p1872
sVshort_name
p1873
VCA
p1874
sVtypes
p1875
(lp1876
Vadministrative_area_level_1
p1877
aVpolitical
p1878
asa(dp1879
Vlong_name
p1880
VUnited States
p1881
sVshort_name
p1882
VUS
p1883
sVtypes
p1884
(lp1885
Vcountry
p1886
aVpolitical
p1887
asa(dp1888
Vlong_name
p1889
V94102
p1890
sVshort_name
p1891
V94102
p1892
sVtypes
p1893
(lp1894
Vpostal_code
p1895
asassba(ispot
Spot
p1896
(dp1897
g3
I300
sg4
(dp1898
g7
F0.6384
sg8
F0.3216
sg9
F0.7856
sg10
F0.3888
sg11
F0.7224
sg12
F0.7704
sg24
F0.2288
sg13
F0.2776
sg14
F0.492
ssg15
(dp1899
Vrating
p1900
F4.4
sVreference
p1901
VCnRwAAAAYCJMgQ06vlhmZMGeCC8EXtuxy5hdMSdy4kWLovzmF60uPGP1gGBjIiNBK2rlUAVWed1QRHZ4eMh6cg0y9sHEZfL4rcAwEUbRC3Nx4gCeUdxpDnTlLyZYL4GGBLc-zwyUl1qVoRwpyDV1b9lYav8swxIQsFmW9P3eaonD6pSUoDe7JBoUO6N_fHQVRuEdca2BxWrffus5sLQ
p1902
sVplace_id
p1903
VChIJS5fZqsx_j4ARsnlQbCfuapc
p1904
sVgeometry
p1905
(dp1906
Vlocation
p1907
(dp1908
Vlat
p1909
F37.763222
sVlng
p1910
F-122.400946
sssVformatted_address
p1911
V1705 Mariposa St, San Francisco, CA 94107, United States
p1912
sVid
p1913
Vc1c4eb58d9464534bb426042172104c8745ccac9
p1914
sVopening_hours
p1915
(dp1916
Vweekday_text
p1917
(lp1918
VMonday: 9:00 am \u2013 5:00 pm
p1919
aVTuesday: 9:00 am \u2013 5:00 pm
p1920
aVWednesday: 9:00 am \u2013 5:00 pm
p1921
aVThursday: 9:00 am \u2013 5:00 pm
p1922
aVFriday: 9:00 am \u2013 5:00 pm
p1923
aVSaturday: Closed
p1924
aVSunday: Closed
p1925
asVopen_now
p1926
I00
sVperiods
p1927
(lp1928
(dp1929
Vclose
p1930
(dp1931
Vday
p1932
I1
sVtime
p1933
V1700
p1934
ssVopen
p1935
(dp1936
Vday
p1937
I1
sVtime
p1938
V0900
p1939
ssa(dp1940
Vclose
p1941
(dp1942
Vday
p1943
I2
sVtime
p1944
V1700
p1945
ssVopen
p1946
(dp1947
Vday
p1948
I2
sVtime
p1949
V0900
p1950
ssa(dp1951
Vclose
p1952
(dp1953
Vday
p1954
I3
sVtime
p1955
V1700
p1956
ssVopen
p1957
(dp1958
Vday
p1959
I3
sVtime
p1960
V0900
p1961
ssa(dp1962
Vclose
p1963
(dp1964
Vday
p1965
I4
sVtime
p1966
V1700
p1967
ssVopen
p1968
(dp1969
Vday
p1970
I4
sVtime
p1971
V0900
p1972
ssa(dp1973
Vclose
p1974
(dp1975
Vday
p1976
I5
sVtime
p1977
V1700
p1978
ssVopen
p1979
(dp1980
Vday
p1981
I5
sVtime
p1982
V0900
p1983
ssassVvicinity
p1984
V1705 Mariposa St, San Francisco
p1985
sVscope
p1986
VGOOGLE
p1987
sVwebsite
p1988
Vhttp://www.anchorbrewing.com/
p1989
sVutc_offset
p1990
I-480
sVuser_ratings_total
p1991
I149
sVphotos
p1992
(lp1993
(dp1994
Vwidth
p1995
I1000
sVheight
p1996
I664
sVhtml_attributions
p1997
(lp1998
sVphoto_reference
p1999
VCnRnAAAAIIhYX0yfhmYDlxtQNWW8q1hdcxzQSEfMF4OtowJIOOgfaebI7Sl4ceLhZ87VoenEryaPNpo7JFSal8faPMhiU_mMBJ_Qwq0TZnLqP2LKdYFXYoTg_kJIdrRq7SbDs3uZV8uTUaHW9wVJnpsPhSWDxBIQLZh0xJWTk4O5fT3NbRkT8xoUtaNCQAWR_GEPcFDj1FpnkU0E9Cg
p2000
sa(dp2001
Vwidth
p2002
I1000
sVheight
p2003
I541
sVhtml_attributions
p2004
(lp2005
sVphoto_reference
p2006
VCnRnAAAAavuT_2x1T3E_SlzLJZsSi4mZ_ZPz25QTkEkU1tSCJkYlTWGUdjsmUfl_1iYqgMwgGJSUR3sLaL1AnRljrMzXb53dgUCUnkQbPm4WBrH_Gwesadwy_8a6vuOXibZvAO-cFzEYdYrKAQlFQiqJqGOk-xIQYjt5hp4cAFpffGHlgK3FgxoUgjBLOCDQY5TXoYEEHC-TUQrpUgo
p2007
sa(dp2008
Vwidth
p2009
I1000
sVheight
p2010
I667
sVhtml_attributions
p2011
(lp2012
sVphoto_reference
p2013
VCnRnAAAAdRRaMWHl_6rUS8LGl-cQMhMFLzmOFxfwqcsbWIVkTIzl7mrpoiOfTM-zFiQTvkgxCXrNfvKtsqiG6ofcnVzW4tH1U6catWjkbg1XWngTSz7THDsEH9hflK3V4BpqC0ehfiFNrvqD9emGBtBEXSqOHBIQuV1gbG1eXoCgbRPvmwno6xoUw02PANBD61-2NfZ38T0jlXfq9zw
p2014
sa(dp2015
Vwidth
p2016
I1000
sVheight
p2017
I667
sVhtml_attributions
p2018
(lp2019
sVphoto_reference
p2020
VCnRnAAAA5eKH7hxb3UcxVv2sljTQhU-syDJ65CjMCsD5LU5aA8LF7zxfEBsdDeS23rltOtkb48aRTGkjiRFJY7VNABh5ghyf3S5IFeNX92vDO4Cz4PUSL_l3hc3INxfH5AeDSUg9imEzZuW_Y-dIuLOMDmVQ8RIQsTqlJfGFvKyfMLNQrNunfxoUsKHLl8ZflqTmSuZUJ8i_fM2N7vs
p2021
sa(dp2022
Vwidth
p2023
I600
sVheight
p2024
I600
sVhtml_attributions
p2025
(lp2026
sVphoto_reference
p2027
VCnRnAAAA2AgGnv2pfXd2vaqNmrhhhzk-0j2BCmgi-nk250v1yZq4PiSmFT9G-gghG_o9_EmhaZWB1Uth4-7rOyU4zmPPzVMXQyf5h2Y2pCXxS13wMgQTiZ_1b9NmTUY-TwK4aJryfMZHBE-lp92OEsuWCDfFRRIQqn-zbFHjnrfuUCXrnvbOhRoUuctVffD9SIestopKS1kBKWmYzjI
p2028
sasVtypes
p2029
(lp2030
Vfood
p2031
aVbar
p2032
aVestablishment
p2033
asVicon
p2034
Vhttp://maps.gstatic.com/mapfiles/place_api/icons/bar-71.png
p2035
sVname
p2036
g6
sVurl
p2037
Vhttps://plus.google.com/115958020751040892385/about?hl=en-US
p2038
sVadr_address
p2039
V<span class="street-address">1705 Mariposa St</span>, <span class="locality">San Francisco</span>, <span class="region">CA</span> <span class="postal-code">94107</span>, <span class="country-name">United States</span>
p2040
sVinternational_phone_number
p2041
V+1 415-863-8350
p2042
sVreviews
p2043
(lp2044
(dp2045
Vrating
p2046
I5
sVaspects
p2047
(lp2048
(dp2049
Vrating
p2050
I3
sVtype
p2051
Voverall
p2052
sasVlanguage
p2053
Ven
p2054
sVtext
p2055
VThe tour was amazing. Incredibly informative about this amazing 100+ year old brewery and the history behind their method in making inedible beer. The post type trading is a perfect ending after seeing the incredibly large tanks of beer, made with whole hoops that fills the air with a sweet smell that travels throughout the entire brewery, almost ready to enter the bottle with its hand created label. They even have a small stand displaying products with the anchor label ready to take home as a souvenir. \u000a\u000aThis is honestly one of the greatest experiences you will ever have in San Francisco. It requires a reservation month's in advance however that is a small price to pay for this incredible tour, along with the small price of $15 for the tour. I highly recommend it.
p2056
sVauthor_name
p2057
VOscar Velarde
p2058
sVauthor_url
p2059
Vhttps://plus.google.com/103011030476598492144
p2060
sVtime
p2061
I1411697689
sa(dp2062
Vrating
p2063
I5
sVaspects
p2064
(lp2065
(dp2066
Vrating
p2067
I3
sVtype
p2068
Voverall
p2069
sasVlanguage
p2070
Ven
p2071
sVtext
p2072
VI got a free set of tickets to this amazing brewery tour! They are very knowledgeable and clean! (Apparently that's the best way to make beer.) During the tour we were educated not only about the history of the Anchor Brewing company but also how their beers came about and the entire brewing process. After the tour the group got a tasting of all their beer made year round. The guys who gave the tour were engaging and funny. Well worth the money. I'd gladly pay to do it again!
p2073
sVauthor_name
p2074
VMichelle Rowe
p2075
sVauthor_url
p2076
Vhttps://plus.google.com/108974765489459336063
p2077
sVtime
p2078
I1412298568
sa(dp2079
Vrating
p2080
I5
sVaspects
p2081
(lp2082
(dp2083
Vrating
p2084
I3
sVtype
p2085
Voverall
p2086
sasVlanguage
p2087
Ven
p2088
sVtext
p2089
VOne of my favorite local beers. I would highly recommend giving this place and call and setting up a tour of the place. Learn some local SF history about Anchor. Be sure to ask for Bobby if you get a tour. He's great. 
p2090
sVauthor_name
p2091
VRyan Paredez
p2092
sVauthor_url
p2093
Vhttps://plus.google.com/100569678115145725371
p2094
sVtime
p2095
I1392080780
sa(dp2096
Vrating
p2097
I4
sVaspects
p2098
(lp2099
(dp2100
Vrating
p2101
I2
sVtype
p2102
Voverall
p2103
sasVlanguage
p2104
Ven
p2105
sVtext
p2106
VWe were able to get away on a weekday for a tour. It was a good tour, extensive and informative. You try a lot of beer. The employees are upbeat and friendly. Pretty cool facility. Definitely recommend but book a tour early!
p2107
sVauthor_name
p2108
VJenny Gossett
p2109
sVauthor_url
p2110
Vhttps://plus.google.com/101040699501346495649
p2111
sVtime
p2112
I1401831553
sa(dp2113
Vrating
p2114
I3
sVaspects
p2115
(lp2116
(dp2117
Vrating
p2118
I1
sVtype
p2119
Voverall
p2120
sasVlanguage
p2121
Ven
p2122
sVtext
p2123
VWalked many miles from our San Francisco hostel by Fisherman's Warf. Neat building, but no tasteroom or tap house. 
p2124
sVauthor_name
p2125
VChris Allgood
p2126
sVauthor_url
p2127
Vhttps://plus.google.com/113025981059745273246
p2128
sVtime
p2129
I1394503907
sasVformatted_phone_number
p2130
V(415) 863-8350
p2131
sVaddress_components
p2132
(lp2133
(dp2134
Vlong_name
p2135
V1705
p2136
sVshort_name
p2137
V1705
p2138
sVtypes
p2139
(lp2140
Vstreet_number
p2141
asa(dp2142
Vlong_name
p2143
VMariposa St
p2144
sVshort_name
p2145
VMariposa St
p2146
sVtypes
p2147
(lp2148
Vroute
p2149
asa(dp2150
Vlong_name
p2151
VSan Francisco
p2152
sVshort_name
p2153
VSF
p2154
sVtypes
p2155
(lp2156
Vlocality
p2157
aVpolitical
p2158
asa(dp2159
Vlong_name
p2160
VCalifornia
p2161
sVshort_name
p2162
VCA
p2163
sVtypes
p2164
(lp2165
Vadministrative_area_level_1
p2166
aVpolitical
p2167
asa(dp2168
Vlong_name
p2169
VUnited States
p2170
sVshort_name
p2171
VUS
p2172
sVtypes
p2173
(lp2174
Vcountry
p2175
aVpolitical
p2176
asa(dp2177
Vlong_name
p2178
V94107
p2179
sVshort_name
p2180
V94107
p2181
sVtypes
p2182
(lp2183
Vpostal_code
p2184
asa(dp2185
Vlong_name
p2186
V2334
p2187
sVshort_name
p2188
V2334
p2189
sVtypes
p2190
(lp2191
Vpostal_code_suffix
p2192
asassba(ispot
Spot
p2193
(dp2194
g3
I350
sg4
(dp2195
g6
F0.328
sg7
F0.4032
sg9
F0.5496
sg10
F0.0712
sg11
F0.5608
sg12
F0.6088
sg24
F0.232
sg13
F0.08
sg14
F0.224
ssg15
(dp2196
Vrating
p2197
F3.9
sVreference
p2198
VCoQBdwAAABEH5B-Sd05h6ktvLEl89GEfRZy31Oc6dzbVyCPrDj-mEckIcNsvgTRudJytO0J6pOk516coui7tN2y9IgR7_g9w8EwfS0j0QwrS95owxK6nc4SEnCAuOzkGRudih6iJnCV6qYXbB_nJfs7Rurv97rL07WAv9gH4qQ5DLC5MQVoLEhC1rWr6TaEHqclwMkN7JMxeGhSXf0r2PjMBvXxaYkeY2uHvCTjW1w
p2199
sVplace_id
p2200
VChIJ6zMe3oWAhYARaZ33Z1BAMRo
p2201
sVgeometry
p2202
(dp2203
Vlocation
p2204
(dp2205
Vlat
p2206
F37.784143
sVlng
p2207
F-122.407361
sssVformatted_address
p2208
V865 Market St, San Francisco, CA 94103, United States
p2209
sVid
p2210
V25d4bf0577c1d6e6c1ad6372dca5c4efaa5d74da
p2211
sVopening_hours
p2212
(dp2213
Vweekday_text
p2214
(lp2215
VMonday: 10:00 am \u2013 8:30 pm
p2216
aVTuesday: 10:00 am \u2013 8:30 pm
p2217
aVWednesday: 10:00 am \u2013 8:30 pm
p2218
aVThursday: 10:00 am \u2013 8:30 pm
p2219
aVFriday: 10:00 am \u2013 8:30 pm
p2220
aVSaturday: 10:00 am \u2013 8:30 pm
p2221
aVSunday: 11:00 am \u2013 7:00 pm
p2222
asVopen_now
p2223
I00
sVperiods
p2224
(lp2225
(dp2226
Vclose
p2227
(dp2228
Vday
p2229
I0
sVtime
p2230
V1900
p2231
ssVopen
p2232
(dp2233
Vday
p2234
I0
sVtime
p2235
V1100
p2236
ssa(dp2237
Vclose
p2238
(dp2239
Vday
p2240
I1
sVtime
p2241
V2030
p2242
ssVopen
p2243
(dp2244
Vday
p2245
I1
sVtime
p2246
V1000
p2247
ssa(dp2248
Vclose
p2249
(dp2250
Vday
p2251
I2
sVtime
p2252
V2030
p2253
ssVopen
p2254
(dp2255
Vday
p2256
I2
sVtime
p2257
V1000
p2258
ssa(dp2259
Vclose
p2260
(dp2261
Vday
p2262
I3
sVtime
p2263
V2030
p2264
ssVopen
p2265
(dp2266
Vday
p2267
I3
sVtime
p2268
V1000
p2269
ssa(dp2270
Vclose
p2271
(dp2272
Vday
p2273
I4
sVtime
p2274
V2030
p2275
ssVopen
p2276
(dp2277
Vday
p2278
I4
sVtime
p2279
V1000
p2280
ssa(dp2281
Vclose
p2282
(dp2283
Vday
p2284
I5
sVtime
p2285
V2030
p2286
ssVopen
p2287
(dp2288
Vday
p2289
I5
sVtime
p2290
V1000
p2291
ssa(dp2292
Vclose
p2293
(dp2294
Vday
p2295
I6
sVtime
p2296
V2030
p2297
ssVopen
p2298
(dp2299
Vday
p2300
I6
sVtime
p2301
V1000
p2302
ssassVvicinity
p2303
V865 Market St, San Francisco
p2304
sVscope
p2305
VGOOGLE
p2306
sVwebsite
p2307
Vhttp://www.westfield.com/sanfrancisco
p2308
sVutc_offset
p2309
I-480
sVuser_ratings_total
p2310
I426
sVphotos
p2311
(lp2312
(dp2313
Vwidth
p2314
I336
sVheight
p2315
I448
sVhtml_attributions
p2316
(lp2317
sVphoto_reference
p2318
VCnRqAAAA2T3emMt-AWnH7bpLU-ftEZvLlvcMzY9yljXfWIGRZLYipUNg_vZreU_QthsIO_02Rwk5mZTcW0zkUQscFaVOWFa4M58GONOCSabJz5Ta41AmJCsLvLY8at31FyoSaycRovbTqPZ8LAX5p6b3sVLx5xIQOwFL6gWLNm2SuvXK1Lvm-xoU0uM_O3sUWsw74cLmkebrB-iIQQQ
p2319
sa(dp2320
Vwidth
p2321
I1632
sVheight
p2322
I976
sVhtml_attributions
p2323
(lp2324
VFrom a Google User
p2325
asVphoto_reference
p2326
VCpQBggAAAHkMPQT9yPbyHa0oJ9sOfaHwVV5B8o_b2ont0yconK5ORH6r7PcRkVScTerODmkO5Y97_1zJtccBYuyUfDXm6JJRGITx6Ym3H1lDjj5kIuMHkrwmDQxA-a4-vlReSPLmNUjYfQ5_bqT-3Yq1weEHb827pTflYrtA2ISrv51GGlXwuXogNflx3m7r5qVoCfy_kxIQdPP4ty3lW-e4e_unAZmFhRoUryJHR7Tzr-B4_SNvPU6fDB-gmgs
p2327
sa(dp2328
Vwidth
p2329
I960
sVheight
p2330
I540
sVhtml_attributions
p2331
(lp2332
V<a href="https://plus.google.com/104122760120991086547">Eddy Veras</a>
p2333
asVphoto_reference
p2334
VCpQBggAAAPMWQFY3G51cOvzC6fBsC3lQX01rkA8KNKuFcljN_Fp6PqFD8X_xs5rIzonStXpx5Nzo5cRalzAw_DdfcFwsxfCYoQViRmPDyCOMG2O24GCo_GmGhcQFVkU1fl05CcgYb8Y0mI6dbZ6TtCKICbkVDAdNVWo6zwAlznOve0SjMNnIR6uN1S5ABubPxr8vcTbKkBIQsYmTlu16SzP_1n7nGhBjcBoUln72EogmZq7QSsUW2LIFJzZuOEQ
p2335
sa(dp2336
Vwidth
p2337
I896
sVheight
p2338
I448
sVhtml_attributions
p2339
(lp2340
V<a href="https://plus.google.com/102202411800644964458">Tarek Auel</a>
p2341
asVphoto_reference
p2342
VCnRoAAAAPYePJTTuNiLkG9bw415D-p_laM5g2LGztZz1cnoUbocspOkkhvFhWQBrytULh4dPMJNBROiBTZLVgsfOim2Fpz9RCxBtv-cEw0hRWwKpkRfCKSXBUHl_lC_no0lFqQu11I12gUjOYDTcnURipTEpExIQVNIL8DdoMle55FM9zGtBExoUeyb2s1fH2e1FmbAw3rM_jADgHEg
p2343
sa(dp2344
Vwidth
p2345
I640
sVheight
p2346
I480
sVhtml_attributions
p2347
(lp2348
VFrom a Google User
p2349
asVphoto_reference
p2350
VCpQBggAAAD6Qk42OVwizx0ADKDFriIeNocij-07-oIgq-TrEtBudMYRuuF3AggJB0UteFIlHEWxU_J4-4z4cwiDcfFzCRsDQ4-G5myIKZJddsaYGYkSBrqnTqgtNVpYm0f4Jck8yOVXfzAUP7I9ezn8SKYnDensV14JB9SgJstx_IgHB0bIO0xJIVyJFmBR-pO-YNbDPsxIQ6ZUJ3jGDN0lq4PgPqEpMVxoU-dgktg-2ZOvSLlbPReRo6BWopOI
p2351
sa(dp2352
Vwidth
p2353
I640
sVheight
p2354
I640
sVhtml_attributions
p2355
(lp2356
V<a href="https://plus.google.com/105160613024897619532">Abdullah Al Marshed</a>
p2357
asVphoto_reference
p2358
VCnRoAAAA9UEtZp74NPGVlD71ZtDzq0zDhiCBuGht49YKakUgdk9DCqXRD0VS7RSeSuvjCBuDtBza990HrM7Yt-p-WO_MIOBIdE4vDFpEgPLLmbBm11ikkKi0_77YlTVnaXCyqYFG-1RjE24Qz0fPj71OZZCOthIQxWnNqz5J8Z1Mn55CyXBh8RoUPbZIAjbEHcr4YVPHQqPiTSlkES8
p2359
sa(dp2360
Vwidth
p2361
I1296
sVheight
p2362
I776
sVhtml_attributions
p2363
(lp2364
VFrom a Google User
p2365
asVphoto_reference
p2366
VCpQBggAAAPSt-9CchflxKrHtJO55qOCN_74CqWU1zKvi80j7Kq18yTd7ut2QQ71WBsfkx5BuRSzhr9PDtMKAuHyEzG8TEmjVg_AjOD2Az37hsAVz2WWU3mSO9UTRh8tNNzdRCHEo7dTZDpyMjuOeHm-HiIfTOoXEE008AKBprlWQzgwcGZ5u7SOfXQkMCp9cW8pZyrcbwhIQD-TXo0Jkdv1rPBqvN_ghdhoUa0LfRdVergYtJhavrTIHAPYOZI8
p2367
sa(dp2368
Vwidth
p2369
I448
sVheight
p2370
I156
sVhtml_attributions
p2371
(lp2372
sVphoto_reference
p2373
VCnRqAAAA3j8j1GOgheMTYJEy4i_q3dNgOumloXWlKTFosrhMWgk3aemTqGgvwVkujBbV8k7dSvyy1jKe6q6v4OLoKe8YUfQc-EaG3sxZml32TE3UGqaTYO42fCSwcxjLJZ3t1htnDaj9lTHY456SXVa3FlJNARIQIiSgtds-WqrET1BWEWqPchoUmcthuyqdsS8XjKEnrWwpCnVYwPE
p2374
sasVtypes
p2375
(lp2376
Vshopping_mall
p2377
aVestablishment
p2378
asVicon
p2379
Vhttp://maps.gstatic.com/mapfiles/place_api/icons/generic_business-71.png
p2380
sVname
p2381
g8
sVurl
p2382
Vhttps://plus.google.com/106989872492416375687/about?hl=en-US
p2383
sVadr_address
p2384
V<span class="street-address">865 Market St</span>, <span class="locality">San Francisco</span>, <span class="region">CA</span> <span class="postal-code">94103</span>, <span class="country-name">United States</span>
p2385
sVinternational_phone_number
p2386
V+1 415-495-5656
p2387
sVreviews
p2388
(lp2389
(dp2390
Vrating
p2391
I5
sVaspects
p2392
(lp2393
(dp2394
Vrating
p2395
I3
sVtype
p2396
Voverall
p2397
sasVlanguage
p2398
Ven
p2399
sVtext
p2400
VThis mall offers an all-inclusive customer experience with shops, restaurants, a full service spa, grocery store and theater all under one roof. You can easily spend an entire day browsing, shopping, eating and relaxing with the added convenience of accessing an attached BART station. They offer a good variety of shops and department stores, including one of my favorites, Bloomingdales. Bristol Farms is a very fun gourmet grocery store to peruse and buy, with a wonderful variety of food that even the most discriminating eaters can select from. 
p2401
sVauthor_name
p2402
VLana C
p2403
sVauthor_url
p2404
Vhttps://plus.google.com/104200568677644151902
p2405
sVtime
p2406
I1408153162
sa(dp2407
Vrating
p2408
I5
sVaspects
p2409
(lp2410
(dp2411
Vrating
p2412
I3
sVtype
p2413
Voverall
p2414
sasVlanguage
p2415
Ven
p2416
sVtext
p2417
Vh t t p s : / / t . c o / S e 2 W S e R x Q G 
p2418
sVauthor_name
p2419
VRoyce Rollzae
p2420
sVauthor_url
p2421
Vhttps://plus.google.com/115845183049449381542
p2422
sVtime
p2423
I1408723479
sa(dp2424
Vrating
p2425
I1
sVaspects
p2426
(lp2427
(dp2428
Vrating
p2429
I0
sVtype
p2430
Voverall
p2431
sasVlanguage
p2432
Ven
p2433
sVtext
p2434
VIt was a very bad shopping experience at Westfield, San Francisco Centre. I was eating my  lunch  by Sarku Japan when i saw a black man sat down beside me and suddenly he snatched my phone then ran off. But the securities are very stupid, they can't  run fast to catch up the robber. Just run very slowly, i'm so angry. i cannot believe that my phone was snatched in a big shopping mall. It is a Westfield big shopping mall, not a small place or on the street.  The safety system is very very poor of Westfield San Francisco Centre !!!!
p2435
sVauthor_name
p2436
Vhuijie woo
p2437
sVauthor_url
p2438
Vhttps://plus.google.com/107279968104690970437
p2439
sVtime
p2440
I1398414301
sa(dp2441
Vrating
p2442
I4
sVaspects
p2443
(lp2444
(dp2445
Vrating
p2446
I2
sVtype
p2447
Voverall
p2448
sasVlanguage
p2449
Ven
p2450
sVtext
p2451
VBeautiful, historic architecture inside the mall.  The amount of stores is a bit overwhelming, and it is typically crowded.  You can find almost any store you want in the mall (no See's chocolate though).  The food court has a very large selection of choices.  Parking across the street can get expensive.  I like to take out of town visitors here to take pictures.  The dome is super impressive.
p2452
sVauthor_name
p2453
VLibby Chang
p2454
sVauthor_url
p2455
Vhttps://plus.google.com/105175245829173637529
p2456
sVtime
p2457
I1394606800
sa(dp2458
Vrating
p2459
I4
sVaspects
p2460
(lp2461
(dp2462
Vrating
p2463
I2
sVtype
p2464
Voverall
p2465
sasVlanguage
p2466
Ven
p2467
sVtext
p2468
VI like the architecture of the Westfield. Explore the top level (dome) for some nicer areas to sit and also for the new, upscale restaurants.
p2469
sVauthor_name
p2470
VTye Chait
p2471
sVauthor_url
p2472
Vhttps://plus.google.com/100427141882576084440
p2473
sVtime
p2474
I1407698304
sasVformatted_phone_number
p2475
V(415) 495-5656
p2476
sVaddress_components
p2477
(lp2478
(dp2479
Vlong_name
p2480
V865
p2481
sVshort_name
p2482
V865
p2483
sVtypes
p2484
(lp2485
Vstreet_number
p2486
asa(dp2487
Vlong_name
p2488
VMarket St
p2489
sVshort_name
p2490
VMarket St
p2491
sVtypes
p2492
(lp2493
Vroute
p2494
asa(dp2495
Vlong_name
p2496
VSan Francisco
p2497
sVshort_name
p2498
VSF
p2499
sVtypes
p2500
(lp2501
Vlocality
p2502
aVpolitical
p2503
asa(dp2504
Vlong_name
p2505
VSan Francisco County
p2506
sVshort_name
p2507
VSan Francisco County
p2508
sVtypes
p2509
(lp2510
Vadministrative_area_level_2
p2511
aVpolitical
p2512
asa(dp2513
Vlong_name
p2514
VCalifornia
p2515
sVshort_name
p2516
VCA
p2517
sVtypes
p2518
(lp2519
Vadministrative_area_level_1
p2520
aVpolitical
p2521
asa(dp2522
Vlong_name
p2523
VUnited States
p2524
sVshort_name
p2525
VUS
p2526
sVtypes
p2527
(lp2528
Vcountry
p2529
aVpolitical
p2530
asa(dp2531
Vlong_name
p2532
V94103
p2533
sVshort_name
p2534
V94103
p2535
sVtypes
p2536
(lp2537
Vpostal_code
p2538
asassba(ispot
Spot
p2539
(dp2540
g3
I400
sg4
(dp2541
g6
F0.4184
sg7
F0.2808
sg8
F0.1232
sg9
F0.5472
sg11
F0.6264
sg12
F0.6744
sg24
F0.32
sg13
F0.1704
sg14
F0.2176
ssg15
(dp2542
Vrating
p2543
F3.9
sVreference
p2544
VCnRmAAAAfIq3yYNEx7vWp-6fg8iqmlpo29b1NUlfTpKmyaSKb9JW4rEnQqhbaEZZhRDUCDH4qkqPLILWOPWv4X95Rm6afSKfAOI0jeRl5gBKlbcvfabfoKpqX-3ewkSzC-7cBTsVEg384gpcdpocSJ-ELLWrCBIQT9d_h-iH6mLdmdrWV7ZeaBoUBdHTgq4siqOgJfbUTCgXledlKvo
p2545
sVprice_level
p2546
I0
sVplace_id
p2547
VChIJJ6m71o6AhYARiUxigIz3gLw
p2548
sVformatted_address
p2549
V333 Post St, San Francisco, CA 94108, United States
p2550
sVid
p2551
Vb49a3811f38d6725cd7f95b00b4f03593c62b5de
p2552
sVformatted_phone_number
p2553
V(415) 477-2610
p2554
sVopening_hours
p2555
(dp2556
Vweekday_text
p2557
(lp2558
VMonday: 9:00 am \u2013 12:00 am
p2559
aVTuesday: 9:00 am \u2013 12:00 am
p2560
aVWednesday: 9:00 am \u2013 12:00 am
p2561
aVThursday: 9:00 am \u2013 12:00 am
p2562
aVFriday: 9:00 am \u2013 12:00 am
p2563
aVSaturday: 9:00 am \u2013 12:00 am
p2564
aVSunday: 9:00 am \u2013 12:00 am
p2565
asVopen_now
p2566
I00
sVperiods
p2567
(lp2568
(dp2569
Vclose
p2570
(dp2571
Vday
p2572
I1
sVtime
p2573
V0000
p2574
ssVopen
p2575
(dp2576
Vday
p2577
I0
sVtime
p2578
V0900
p2579
ssa(dp2580
Vclose
p2581
(dp2582
Vday
p2583
I2
sVtime
p2584
V0000
p2585
ssVopen
p2586
(dp2587
Vday
p2588
I1
sVtime
p2589
V0900
p2590
ssa(dp2591
Vclose
p2592
(dp2593
Vday
p2594
I3
sVtime
p2595
V0000
p2596
ssVopen
p2597
(dp2598
Vday
p2599
I2
sVtime
p2600
V0900
p2601
ssa(dp2602
Vclose
p2603
(dp2604
Vday
p2605
I4
sVtime
p2606
V0000
p2607
ssVopen
p2608
(dp2609
Vday
p2610
I3
sVtime
p2611
V0900
p2612
ssa(dp2613
Vclose
p2614
(dp2615
Vday
p2616
I5
sVtime
p2617
V0000
p2618
ssVopen
p2619
(dp2620
Vday
p2621
I4
sVtime
p2622
V0900
p2623
ssa(dp2624
Vclose
p2625
(dp2626
Vday
p2627
I6
sVtime
p2628
V0000
p2629
ssVopen
p2630
(dp2631
Vday
p2632
I5
sVtime
p2633
V0900
p2634
ssa(dp2635
Vclose
p2636
(dp2637
Vday
p2638
I0
sVtime
p2639
V0000
p2640
ssVopen
p2641
(dp2642
Vday
p2643
I6
sVtime
p2644
V0900
p2645
ssassVvicinity
p2646
V333 Post St, San Francisco
p2647
sVscope
p2648
VGOOGLE
p2649
sVwebsite
p2650
Vhttp://www.visitunionsquaresf.com/
p2651
sVutc_offset
p2652
I-480
sVuser_ratings_total
p2653
I266
sVphotos
p2654
(lp2655
(dp2656
Vwidth
p2657
I1944
sVheight
p2658
I2592
sVhtml_attributions
p2659
(lp2660
V<a href="https://plus.google.com/105076373952934230883">andrea mancini</a>
p2661
asVphoto_reference
p2662
VCoQBdQAAAMAMPDN1bV_BkJie3t64Sm6ag5BBCLZDavPbqZwzHMXrWWxt7tpOOn01VATPf0FxL8NzRe5b5hIpMwj9VvY06nRHQdg1YJRGtqrZHKUWuzSx0Ix5WToiaNr2QKdtQ4D-RwcswTIgbpyPkO3IT2F1xsrwncR_5WN8XUzNjCoyB1hpEhAl5lJ2m5BoerveTvDgG2nqGhSwYJFG-p65Acf0PNRVhIYjK7r_zw
p2663
sa(dp2664
Vwidth
p2665
I1296
sVheight
p2666
I776
sVhtml_attributions
p2667
(lp2668
VFrom a Google User
p2669
asVphoto_reference
p2670
VCoQBcwAAAHSeRMtC-WuhCaaAMWR_vcC-ck-5dem-bmYZAorBmIMIYUvNpnseIq6nJXdQzG7ZEYqYHDbY4Ppb672SWbJG6exjqhmDUrGCTmRqXLOn5sT2W6wPPt56bwFgOC4Bp0ac4pI1OO7c7dYCpfGIJI_X95OglqS-enpO2yrzPDCaKnVREhDAXWYZMfIp2ATXnViRPyjvGhQ9n3k3F8R3PNGc8TxI5wN7aTSflg
p2671
sa(dp2672
Vwidth
p2673
I768
sVheight
p2674
I1024
sVhtml_attributions
p2675
(lp2676
VFrom a Google User
p2677
asVphoto_reference
p2678
VCoQBcwAAAJj_-wq9wDGfA86zSQjXezPMq-f3vmRAGCAYZQWehJtC9E9p4-Bt3iKZRaXl64ytt0FXGUUhNbshVv_bSpH434mLSRffMWjk-Pd5xqpjUuR-230KpezpZ8qBrOBjOB5GLT15cm09aiV9p18oYF_ZR_9Sr703V_a3U28I3XACpc4WEhCHAEmro_KZDlzbs8ZwOQISGhQ1K-aaDe1qzDrmpTF2GgnACZ4kXA
p2679
sa(dp2680
Vwidth
p2681
I1296
sVheight
p2682
I972
sVhtml_attributions
p2683
(lp2684
V<a href="https://plus.google.com/111947489942124903382">Farrel Buchinsky</a>
p2685
asVphoto_reference
p2686
VCoQBcwAAAI7IjRwYnYTh9PZs3-W2_fwsMOjFWMAIB2UEQEIThLnh5e-GNXDhQbuYAdokbNZ2V2oyyUuKfTU0-gyIQuoOyBgeXpk_xx3TSoYhCa3eFEH0xlExWXLxkd5N3-tFfv8FaXSZK_dQHwTTZzeFjkQfG4kKHh1Gr0tnHOznHAsg2jgREhBiMeeEmroZtXshz0VV9ID4GhSxcGgdPvPU4nXf3lf4SsvUX12QGg
p2687
sa(dp2688
Vwidth
p2689
I1265
sVheight
p2690
I949
sVhtml_attributions
p2691
(lp2692
V<a href="https://plus.google.com/102690091571148307715">Amy Meyer</a>
p2693
asVphoto_reference
p2694
VCnRoAAAARW2GVMNYbu4NbeDO73t2ruo9VJl56kJalwknlw2KG5JTHKXTN-9O5PsBNdf_WIONs3lKbhuDMmBKL5XO2VnYDUX5UajyOQ4bGwPC8RwM2Wj4COQet5XFmJr4edmloV3btHS-WBIRmJaphUolAZ4fJRIQ1KyTh_q6LOluiQQT3ERslxoUxKIzKj29HUUmpGawYvJxPgdqZ9Q
p2695
sa(dp2696
Vwidth
p2697
I972
sVheight
p2698
I1296
sVhtml_attributions
p2699
(lp2700
VFrom a Google User
p2701
asVphoto_reference
p2702
VCoQBcwAAAGs8QP0BJ61OdsA71SD3yyntJJB-HMKVteUDaXe_DwdUYwZILjXjteHVkquxIaJnH48v_l7qEKwc4kzLH4lttIFh0OXioWvkN2so0TZaA1WcUV3bFkmjruB81_A37bEHZngRsEgXV8F5L31GJ6NbXpz4fqBxtNARlTGky1KqVwYNEhBoKupmiBdLS_ealrO8oUPLGhTxzSWXmgkUStskLLTA2Kj8APLCTQ
p2703
sa(dp2704
Vwidth
p2705
I1224
sVheight
p2706
I1632
sVhtml_attributions
p2707
(lp2708
V<a href="https://plus.google.com/108708262973663947907">Armando Besa</a>
p2709
asVphoto_reference
p2710
VCnRoAAAAmDBSYbYd3fVtPmOi5xDue2cazmx4saKdH07fgpK9htLtbDLJx_b2ZeYemHHkcxC-T2spES-Ti5ZKMN-PO4golQ5402U0N5hvUkMyRNhGBe4ziENPCumbqLGwmh94XM3rgFugRLY84SnbZ0ITzPsNMBIQC3VlU9H0WwbhriHk6CXO8xoUfQ-BoyWCf9E79Wvj3wKGLwBh-hE
p2711
sa(dp2712
Vwidth
p2713
I776
sVheight
p2714
I1296
sVhtml_attributions
p2715
(lp2716
VFrom a Google User
p2717
asVphoto_reference
p2718
VCoQBcwAAAAq2VfcCbsd6UhzroEEKlp71_xOVltVyiRK-Y_ig83PsoOyQAm10YJW4dtBgxDdypdM9kT2Ta72aMOKC7MhuiDLof-sezCej9QNxY71sNvj_w0kRvFnomwgBqE18jl2g6cShiajodQ6zWktxK9AU_YQ263P7Ox1F8Y_sxSbh1XssEhBi8lvRDb_tvM3qKjG9RB_dGhRFBLLgJyeK_AFlmt6sIOSptvxiLg
p2719
sa(dp2720
Vwidth
p2721
I960
sVheight
p2722
I1280
sVhtml_attributions
p2723
(lp2724
V<a href="https://plus.google.com/109673904073317858708">Peter Wood</a>
p2725
asVphoto_reference
p2726
VCoQBcwAAAFlUki2LDHQEacUJRUI8vCQ5FBjg-_EwNLGLil_5syZpWT5WSj52x1yTxT-p5KVayDLLoScVd-nTDYcKtddLVsmBOQ7sp1O3JujmlVHBPO1sOexZan04vNINarXT9cKN5MU-Wa7d50KC7E-LAUFjkLIF2uwtBCvEwnQXlC-xZtybEhAUsez0d6E05tKc6w5JgAecGhSyyfqqMkO8L7kw-IjsCvFkZejqLQ
p2727
sa(dp2728
Vwidth
p2729
I816
sVheight
p2730
I612
sVhtml_attributions
p2731
(lp2732
V<a href="https://plus.google.com/101350698429042644706">Sergio Rodriguez de Guzman</a>
p2733
asVphoto_reference
p2734
VCnRoAAAA5nAZeHpcgQVhqtFZ2p5Oc7cwu5u9K3Ht26aRXUmYE2x8seQ99Bn_btVljaUox_IPebg9RTwceiin3Pf3IKqH10l7KcgQknP9WyWkmeuvosgbMcFKfRDFTZE56ub0Hlq82m6ZmJWevmqgcnYxoNR-qxIQzvC-lPZkrDoBGOsVoO-TKRoUl_pY7-UxxxTI5kyxkHeXxFjrHCw
p2735
sasVtypes
p2736
(lp2737
Vpark
p2738
aVestablishment
p2739
asVicon
p2740
Vhttp://maps.gstatic.com/mapfiles/place_api/icons/generic_business-71.png
p2741
sVname
p2742
g10
sVgeometry
p2743
(dp2744
Vlocation
p2745
(dp2746
Vlat
p2747
F37.787994
sVlng
p2748
F-122.407437
sssVadr_address
p2749
V<span class="street-address">333 Post St</span>, <span class="locality">San Francisco</span>, <span class="region">CA</span> <span class="postal-code">94108</span>, <span class="country-name">United States</span>
p2750
sVinternational_phone_number
p2751
V+1 415-477-2610
p2752
sVreviews
p2753
(lp2754
(dp2755
Vrating
p2756
I4
sVaspects
p2757
(lp2758
(dp2759
Vrating
p2760
I2
sVtype
p2761
Voverall
p2762
sasVlanguage
p2763
Ven
p2764
sVtext
p2765
VUnion Square is a great place for tourists. However, for locals it could be quite a headache driving downtown. There are a lot of activities to do in the area. The most beautiful time of year to go is around Christmas time because they set up amazing light displays as well as decorations and an ice skating rink! A great place to take visitors to take pictures
p2766
sVauthor_name
p2767
VLisa Lai
p2768
sVauthor_url
p2769
Vhttps://plus.google.com/111028865577258308025
p2770
sVtime
p2771
I1415740202
sa(dp2772
Vrating
p2773
I4
sVaspects
p2774
(lp2775
(dp2776
Vrating
p2777
I2
sVtype
p2778
Voverall
p2779
sasVlanguage
p2780
Ven
p2781
sVtext
p2782
VGo to place downtown SF, but in the center of it, something still stumps me.\u000a\u000aThe Dewey Monument: designed by sculptor Robert I. Aitken and architect Newton J. Tharp, it was dedicated by President Theodore Roosevelt on May 14, 1903.\u000aTowering over the square, a bronzed figure of a woman dubbed "Winged Victory" bearing a trident, the symbol of Poseidon and of naval victory, and in the other hand, a laurel wreath, also a symbol of victory.\u000a\u000aI hope the Filipinos will remember the charade the Spanish-American war was! \u000a\u000aA moro-moro of deception aimed at a $20-Million transaction - unknown to Filipinos, through the Treaty of Paris (April 11, 1899), Spain sold the Philippines to the United States, which really, really, really, had no intention of giving them freedom at the time, despite having outlawed slavery within its own borders by 1865.
p2783
sVauthor_name
p2784
VSam Prudente
p2785
sVauthor_url
p2786
Vhttps://plus.google.com/102847070689949264672
p2787
sVtime
p2788
I1416196061
sa(dp2789
Vrating
p2790
I5
sVaspects
p2791
(lp2792
(dp2793
Vrating
p2794
I3
sVtype
p2795
Voverall
p2796
sasVlanguage
p2797
Ven
p2798
sVtext
p2799
VA must see in San Francisco! Like it's name, it's quite literally a square. There is something super special about this place though. Lots of activity, stores, restaurants, etc.... My favorite spots here are: Zara, Uniqlo, Apple Store, and Nike. And of course the higher end stores :P Tip: Try to avoid going on a Sunday since most cafes closes.
p2800
sVauthor_name
p2801
VEarl Friedberg
p2802
sVauthor_url
p2803
Vhttps://plus.google.com/110040772890698655598
p2804
sVtime
p2805
I1415723615
sa(dp2806
Vrating
p2807
I5
sVaspects
p2808
(lp2809
(dp2810
Vrating
p2811
I3
sVtype
p2812
Voverall
p2813
sasVlanguage
p2814
Ven
p2815
sVtext
p2816
VBest place for hanging out and working outside. Has free tables, free wifi and free power outlets. What else do you need?
p2817
sVauthor_name
p2818
VGevorg Madzharyan
p2819
sVauthor_url
p2820
Vhttps://plus.google.com/101851695849425096196
p2821
sVtime
p2822
I1413327706
sa(dp2823
Vrating
p2824
I4
sVaspects
p2825
(lp2826
(dp2827
Vrating
p2828
I2
sVtype
p2829
Voverall
p2830
sasVlanguage
p2831
Ven
p2832
sVtext
p2833
VA must see in San Francisco! As per it's name, it's quite literally a square. But there is something special about this place, morning, noon or night. It's a hub of activity and an entertaining place to rest your legs before exploring the rest of the city. 
p2834
sVauthor_name
p2835
VAmy Meyer
p2836
sVauthor_url
p2837
Vhttps://plus.google.com/102690091571148307715
p2838
sVtime
p2839
I1407809789
sasVurl
p2840
Vhttps://plus.google.com/105424703974286241832/about?hl=en-US
p2841
sVaddress_components
p2842
(lp2843
(dp2844
Vlong_name
p2845
V333
p2846
sVshort_name
p2847
V333
p2848
sVtypes
p2849
(lp2850
Vstreet_number
p2851
asa(dp2852
Vlong_name
p2853
VPost St
p2854
sVshort_name
p2855
VPost St
p2856
sVtypes
p2857
(lp2858
Vroute
p2859
asa(dp2860
Vlong_name
p2861
VSan Francisco
p2862
sVshort_name
p2863
VSF
p2864
sVtypes
p2865
(lp2866
Vlocality
p2867
aVpolitical
p2868
asa(dp2869
Vlong_name
p2870
VCalifornia
p2871
sVshort_name
p2872
VCA
p2873
sVtypes
p2874
(lp2875
Vadministrative_area_level_1
p2876
aVpolitical
p2877
asa(dp2878
Vlong_name
p2879
VUnited States
p2880
sVshort_name
p2881
VUS
p2882
sVtypes
p2883
(lp2884
Vcountry
p2885
aVpolitical
p2886
asa(dp2887
Vlong_name
p2888
V94108
p2889
sVshort_name
p2890
V94108
p2891
sVtypes
p2892
(lp2893
Vpostal_code
p2894
asassba(ispot
Spot
p2895
(dp2896
g3
I450
sg4
(dp2897
g6
F0.4936
sg7
F0.1984
sg8
F0.2192
sg9
F0.572
sg10
F0.2512
sg11
F0.824
sg12
F0.872
sg24
F0.3064
sg13
F0.3432
ssg15
(dp2898
Vrating
p2899
F4.6
sVreference
p2900
VCnRqAAAAG8oTuCHTqhQybYw3dcR5UTn76AHqL-Jy2N8XP3BCtgxNXa-T6IyhLtzvcBMjQFd2ZhvOWLiCIMPlKCSlPlcUP-r_HSk-iTQS8QJRC1ngaEFtBi0guNmIzrsrlqW5NMpywydW1yFYnQXH3Rsl98rhUxIQOjYE1lMPs1-nCuKet9c8ORoUMYJr5zP4NNyENcADlbpzYUMi3O4
p2901
sVplace_id
p2902
VChIJk2vl5NSGhYARwPGvs_ubIws
p2903
sVgeometry
p2904
(dp2905
Vlocation
p2906
(dp2907
Vlat
p2908
F37.800856
sVlng
p2909
F-122.398635
sssVformatted_address
p2910
VPier 15, San Francisco, CA 94111, United States
p2911
sVid
p2912
V9ae214e0b27d97ce2eed7cfd87a119be8820e748
p2913
sVopening_hours
p2914
(dp2915
Vweekday_text
p2916
(lp2917
VMonday: Closed
p2918
aVTuesday: 10:00 am \u2013 5:00 pm
p2919
aVWednesday: 10:00 am \u2013 5:00 pm
p2920
aVThursday: 10:00 am \u2013 5:00 pm
p2921
aVFriday: 10:00 am \u2013 5:00 pm
p2922
aVSaturday: 10:00 am \u2013 5:00 pm
p2923
aVSunday: 10:00 am \u2013 5:00 pm
p2924
asVopen_now
p2925
I00
sVperiods
p2926
(lp2927
(dp2928
Vclose
p2929
(dp2930
Vday
p2931
I0
sVtime
p2932
V1700
p2933
ssVopen
p2934
(dp2935
Vday
p2936
I0
sVtime
p2937
V1000
p2938
ssa(dp2939
Vclose
p2940
(dp2941
Vday
p2942
I2
sVtime
p2943
V1700
p2944
ssVopen
p2945
(dp2946
Vday
p2947
I2
sVtime
p2948
V1000
p2949
ssa(dp2950
Vclose
p2951
(dp2952
Vday
p2953
I3
sVtime
p2954
V1700
p2955
ssVopen
p2956
(dp2957
Vday
p2958
I3
sVtime
p2959
V1000
p2960
ssa(dp2961
Vclose
p2962
(dp2963
Vday
p2964
I4
sVtime
p2965
V1700
p2966
ssVopen
p2967
(dp2968
Vday
p2969
I4
sVtime
p2970
V1000
p2971
ssa(dp2972
Vclose
p2973
(dp2974
Vday
p2975
I5
sVtime
p2976
V1700
p2977
ssVopen
p2978
(dp2979
Vday
p2980
I5
sVtime
p2981
V1000
p2982
ssa(dp2983
Vclose
p2984
(dp2985
Vday
p2986
I6
sVtime
p2987
V1700
p2988
ssVopen
p2989
(dp2990
Vday
p2991
I6
sVtime
p2992
V1000
p2993
ssassVvicinity
p2994
VPier 15, San Francisco
p2995
sVscope
p2996
VGOOGLE
p2997
sVwebsite
p2998
Vhttp://www.exploratorium.edu/
p2999
sVutc_offset
p3000
I-480
sVuser_ratings_total
p3001
I307
sVphotos
p3002
(lp3003
(dp3004
Vwidth
p3005
I1632
sVheight
p3006
I1224
sVhtml_attributions
p3007
(lp3008
V<a href="https://plus.google.com/114317162158984154862">Dave Wong</a>
p3009
asVphoto_reference
p3010
VCnRoAAAAPl-K1dreoW45QSzpxUXszIx74iZPXxHWFAZrpCfQlv0JqXNIGocEIFS9Ig_SN-U6RewoJ3dTmJuUAo40jczVlL1eKc2T3MB_uULAG1Wd1dhu9WDqcmxdmx0lmNCEV780Rh9A7hwEmaK5De43s5Pr-BIQpzxsLvrQ1rqhd-iE12hXcBoU_E13BpsXcZf0zKec8Y32PuftLVQ
p3011
sa(dp3012
Vwidth
p3013
I800
sVheight
p3014
I1067
sVhtml_attributions
p3015
(lp3016
V<a href="https://plus.google.com/104386105875622819823">Adrianna Cai</a>
p3017
asVphoto_reference
p3018
VCnRqAAAALrNFljilPXAyCS2o6DFDKMPEuoHZmcKXbiLUsTarLzTjy0sdR47eoLaLu3WPAzvqy8ly3C4LxYAfdJxlhvLT40Bwiaa7n_JO6q7E9A7K0WqAg6qEx4YZ4I5Gm4EVwABGIhd0rD0hHyg8lA8tOzROBhIQz-4b98tqbEGemLghFBRiRxoUHCRQ9jcYzXtd-Lc6WObZPKc5DV8
p3019
sa(dp3020
Vwidth
p3021
I960
sVheight
p3022
I1280
sVhtml_attributions
p3023
(lp3024
V<a href="https://plus.google.com/115308343643348370972">Tonia Smith</a>
p3025
asVphoto_reference
p3026
VCnRrAAAATPbRJwsmEs5Halli8aVeSbYVO7NqSwwvcxY3YUcUDngtu0e7zUk03ShHU0aerlWv3R61SOlrEpHpysf5-Cbya2J4a8TbOhU0mjFGvNNCOTCnX_QZyyfWJMMTdRB_oM2ha2qlnnKGBVR3KtKypugGTBIQCtVESslxcoSa0GTq1KuHsxoU-7nUiAYn-1Zih1zkLuClv7Y0feM
p3027
sa(dp3028
Vwidth
p3029
I800
sVheight
p3030
I600
sVhtml_attributions
p3031
(lp3032
V<a href="https://plus.google.com/104386105875622819823">Adrianna Cai</a>
p3033
asVphoto_reference
p3034
VCnRqAAAADOL5oa2vUgIhEdJWxojD3s_5t2o2KVL7o-zsW2Llb5N_skTLk-7D4cVzqmZcFKqNz5LxJ0OWMxW_yux5AeV1dB0mrFakE_JSDOWP6tely1R5Nx24RLhoq7T8rupNpUcIqGzxDXRiHigTSFKROAkdPRIQkFGaRejYuFwSq7Ht_FhvqBoUSuh53T8f2_yJxwJKq83MVu7zjuI
p3035
sa(dp3036
Vwidth
p3037
I960
sVheight
p3038
I720
sVhtml_attributions
p3039
(lp3040
V<a href="https://plus.google.com/104757709404454136276">Farzad Sharif</a>
p3041
asVphoto_reference
p3042
VCnRoAAAAYL_W8dyJgVZDgnFXhuoj0M_xr2nwaEuUCpN1pKvzaNqduKP71kY2PTvcO-qv1Tbe2wXcjrU_zDJO2QtXAv8xjJzxwuwr27GTRi7fB1vaQK-wo4z7EOCk5aUgfGSacS6TKe4U-CCpCRb7RvrV5ugNtxIQWBPzUSNsRG2y6v629l1aEhoUDL9oE4i5QfJ_NQ1w8yoNIO8CH2g
p3043
sa(dp3044
Vwidth
p3045
I800
sVheight
p3046
I1067
sVhtml_attributions
p3047
(lp3048
V<a href="https://plus.google.com/104386105875622819823">Adrianna Cai</a>
p3049
asVphoto_reference
p3050
VCnRqAAAAicSNBsvaYKfbMyKLcbV0Y4It__9qKTvXIS-a7A-kUgTXVpMvJhxQQ4d-IXlS8NcYrQj9sP495eD9hO1h5duFcJMQQ2PVQ-MKsVMsfm5CXxxWwXdHmN90hQpzC-3z9PATN2_gkXjfiLERxecL4rmAlRIQc_6iBRGbDljnuLoNCNP4sRoUSAaLm4jwkhLhqKQXoAUNgzVWwkk
p3051
sa(dp3052
Vwidth
p3053
I1600
sVheight
p3054
I1200
sVhtml_attributions
p3055
(lp3056
V<a href="https://plus.google.com/110644604173805326173">Leslie Castelan</a>
p3057
asVphoto_reference
p3058
VCnRqAAAA4LKwnkkiPYng1zcPpCzJBneBCVzPAVqdSyR2QlRikvBq_bxPRtyXzhIh7CaCItxeZPlxduwiUXxcbolga0USp_uvCFFls3anA-ArGRK2_h15pk1YLQiZ8unePOST8u20aY00noh3eIAnBNYjSaT5ThIQNydP8bOS4duX1H9eZ6qi1RoUcFCpmgTZ9e9LmRGIlJAnxG7p9t4
p3059
sa(dp3060
Vwidth
p3061
I648
sVheight
p3062
I486
sVhtml_attributions
p3063
(lp3064
V<a href="https://plus.google.com/111544651031607014823">Kelvin Ho</a>
p3065
asVphoto_reference
p3066
VCnRoAAAAPceLbYYMg6I1nAt1U2SnZELP_cMclIb-6vIsQylfgCm9nwzXTt3MG859H5_kdzXbH60dr8KyGPHr3kYygjGKGiZcsUTkEIhYtNAs08pcoppm9pVZon9OMLHL0rayKmYecZd1u7CUn1gMmaksE7qzTBIQYD7yQJ1sTs8t8-6DIhVwPxoUIUaDgaKCnQfCZqM00mADdZW6XnM
p3067
sa(dp3068
Vwidth
p3069
I816
sVheight
p3070
I612
sVhtml_attributions
p3071
(lp3072
V<a href="https://plus.google.com/113034897145842763564">MARANDA FAMILY</a>
p3073
asVphoto_reference
p3074
VCnRoAAAAX_FyDrlxpLw_SNGrL6ZvGzcPo8uc-xLuPzqTMs4ZUwM8uslXkafaAcLozL7c4gfJcmMJ3eqemo-orHRnvdKBCz7XuhLKszPI2qnsKzegyuHvcbgirXWIFHzr33cidRA1A0u82eS97i-2Vog3r5gaGhIQ45wjNxwLjRb5W59K7A7oJxoUqpjK68tIqocKmPhj50jEbXXP4bk
p3075
sa(dp3076
Vwidth
p3077
I4000
sVheight
p3078
I5333
sVhtml_attributions
p3079
(lp3080
V<a href="https://plus.google.com/112149668004267823244">River Yuan</a>
p3081
asVphoto_reference
p3082
VCnRoAAAAa8V53oetqotmEddCDb1QRak9EXVj87ZSaiq7CBRpOzr4_V9n-JB48zRGOA1F71jWiL8pLKP_xl6HcKo61duq7NUwlk74rFs-N9JMKNdu1K0kGOgDuYJFkLppRrYtlvhQ7CHTbKgZgm_dgQT59vCj4RIQJbVsXGhVPpPOjPC_aWaEIxoUljn7Ee1lsnMO7attAOW8kY5EaCg
p3083
sasVtypes
p3084
(lp3085
Vmuseum
p3086
aVestablishment
p3087
asVicon
p3088
Vhttp://maps.gstatic.com/mapfiles/place_api/icons/museum-71.png
p3089
sVname
p3090
g14
sVurl
p3091
Vhttps://plus.google.com/104270379098812187233/about?hl=en-US
p3092
sVadr_address
p3093
VPier 15, <span class="locality">San Francisco</span>, <span class="region">CA</span> <span class="postal-code">94111</span>, <span class="country-name">United States</span>
p3094
sVinternational_phone_number
p3095
V+1 415-528-4444
p3096
sVreviews
p3097
(lp3098
(dp3099
Vrating
p3100
I5
sVaspects
p3101
(lp3102
(dp3103
Vrating
p3104
I3
sVtype
p3105
Voverall
p3106
sasVlanguage
p3107
Ven
p3108
sVtext
p3109
VWhat a fun way to spend a Thursday evening: Adults only night to run around the exploratorium and explore. Loved all of different interactive exhibits.  Tickets for the Tactile Dome is an extra $10 but totally worth it - its definitely an experience and not for ones that are afraid of the dark and/or claustrophobic. You can get through the course in 10-15 minutes.  Would also recommend going through the course with a group of 4-5 friends.  There is mesh netting to crawl through and slides to go down.. at the very end there's a bean pit for you to land in. Go in with an open mind and just have fun! Adult only nights also mean that alcohol is served, which is always a plus ;)
p3110
sVauthor_name
p3111
VCins Laya
p3112
sVauthor_url
p3113
Vhttps://plus.google.com/101768269232847574282
p3114
sVtime
p3115
I1416595087
sa(dp3116
Vrating
p3117
I4
sVaspects
p3118
(lp3119
(dp3120
Vrating
p3121
I2
sVtype
p3122
Voverall
p3123
sasVlanguage
p3124
Ven
p3125
sVtext
p3126
VThe Exploratorium was the highlight of a recent San Francisco. Another reviewer mentioned the Tactile Dome costing $10, but I was there last week, and the price listed was $15 per adult. Maybe there's been a recent increase? \u000a\u000aI very much appreciated the presence of lockers (only 50 cents to rent one all day), not having to schlep my stuff between exhibits made things a whole lot easier. You can come in and out throughout the day (just be sure to have your hand stamped), and it seems like a lot of the class field trips tend to pack up and go in the early afternoon hours. 
p3127
sVauthor_name
p3128
VNan Carde
p3129
sVauthor_url
p3130
Vhttps://plus.google.com/114777535440994791985
p3131
sVtime
p3132
I1416786777
sa(dp3133
Vrating
p3134
I5
sVaspects
p3135
(lp3136
(dp3137
Vrating
p3138
I3
sVtype
p3139
Voverall
p3140
sasVlanguage
p3141
Ven
p3142
sVtext
p3143
VThe Exploratorium in its new location is great, for people of all ages. I've been to the new location for the "after dark" 21+ events (which I strongly recommend, despite the crowds), and certainly was not disappointed. I saw all my favorites experiments as well as new ones, and the new location is really huge and very well laid out. If you like science (and even if you don't) it's worth a trip since the place is so fun to see. It's all hands-on which is something I really like, but contrary to little kids, I also like to read the labels/signs to know what physical phenomenon I'm looking at instead of blindly pushing a button...
p3144
sVauthor_name
p3145
VJulian Fessard
p3146
sVauthor_url
p3147
Vhttps://plus.google.com/112118270664425522168
p3148
sVtime
p3149
I1413014702
sa(dp3150
Vrating
p3151
I5
sVaspects
p3152
(lp3153
(dp3154
Vrating
p3155
I3
sVtype
p3156
Voverall
p3157
sasVlanguage
p3158
Ven
p3159
sVtext
p3160
VThis is such a creative activity center! My husband and I enjoyed all the educational and interactive, scientific stations. We also experienced the tactile dome which was an extremely unique experience. This is a great place for families with adults and kids of all ages!
p3161
sVauthor_name
p3162
VKristen Colander
p3163
sVauthor_url
p3164
Vhttps://plus.google.com/114658324644137737507
p3165
sVtime
p3166
I1416974707
sa(dp3167
Vrating
p3168
I5
sVaspects
p3169
(lp3170
(dp3171
Vrating
p3172
I3
sVtype
p3173
Voverall
p3174
sasVlanguage
p3175
Ven
p3176
sVtext
p3177
VI want to say it's the most amazing museum I have ever been to but, it's more than that.  I wouldn't even call it a science museum at all.  It's more of an experience based on physics and such.  This is a hands on experience that can consume your entire day easily.  I have been multiple times and on each visit there are new exhibits that have swapped out others.  The new location on the pier is beautiful and the staff are wonderful.  Just go and become a kid again.  It's a full blown tinkering overload.  If you love to push buttons to see what they will do, roll, bounce and swing stuff then this is where you belong.  Some things to know before you go.  If you want to experience the Tactile Dome, be sure to get tickets when you purchase your main tickets.  Also, they have a huge "spyrograph" swinging table and you can have one made but, you have to get your name on the list.  Do that early if you want one to take home.  
p3178
sVauthor_name
p3179
VCarl Cordell
p3180
sVauthor_url
p3181
Vhttps://plus.google.com/105619768905307646583
p3182
sVtime
p3183
I1411581848
sasVformatted_phone_number
p3184
V(415) 528-4444
p3185
sVaddress_components
p3186
(lp3187
(dp3188
Vlong_name
p3189
VSan Francisco
p3190
sVshort_name
p3191
VSF
p3192
sVtypes
p3193
(lp3194
Vlocality
p3195
aVpolitical
p3196
asa(dp3197
Vlong_name
p3198
VCalifornia
p3199
sVshort_name
p3200
VCA
p3201
sVtypes
p3202
(lp3203
Vadministrative_area_level_1
p3204
aVpolitical
p3205
asa(dp3206
Vlong_name
p3207
VUnited States
p3208
sVshort_name
p3209
VUS
p3210
sVtypes
p3211
(lp3212
Vcountry
p3213
aVpolitical
p3214
asa(dp3215
Vlong_name
p3216
V94111
p3217
sVshort_name
p3218
V94111
p3219
sVtypes
p3220
(lp3221
Vpostal_code
p3222
asassba.