(lp0
(ispot
Spot
p1
(dp2
S'duration'
p3
I0
sS'data'
p4
(dp5
Vwebsite
p6
Vhttp://sanfrancisco.giants.mlb.com/sf/ballpark/
p7
sVrating
p8
F4.7
sVutc_offset
p9
I-480
sVplace_id
p10
VChIJ_T25cNd_j4ARehGmHe0pT84
p11
sVname
p12
VAT&T Park
p13
sVreference
p14
VCnRjAAAAQXknqqEMuhT1CbmGi5XaBAY97YwkDoR0uSsbfgi4ONXAzwhUhjwfEcuK0U3fByw94u8wFapDdKaXsW9itgxEU8T6n7izaQTqaYpgOe1Rd1QEzCqLt57NTSgcx3mc-AKp0Foh4RGF01aK6kUGqI-ERxIQrpK8c3T145kpdzaYojMESBoUN7ARYNtTYH0pUaIF2Kok8oxCdvU
p15
sVformatted_phone_number
p16
V(415) 972-2000
p17
sVgeometry
p18
(dp19
Vlocation
p20
(dp21
Vlat
p22
F37.778595
sVlng
p23
F-122.38927
sssVadr_address
p24
V<span class="street-address">24 Willie Mays Plaza</span>, <span class="locality">San Francisco</span>, <span class="region">CA</span> <span class="postal-code">94107</span>, <span class="country-name">United States</span>
p25
sVuser_ratings_total
p26
I520
sVinternational_phone_number
p27
V+1 415-972-2000
p28
sVvicinity
p29
V24 Willie Mays Plaza, San Francisco
p30
sVreviews
p31
(lp32
(dp33
Vrating
p34
I5
sVaspects
p35
(lp36
(dp37
Vrating
p38
I3
sVtype
p39
Voverall
p40
sasVlanguage
p41
Ven
p42
sVtext
p43
VI've been here for Giants baseball game,  concerts, and corporate events. The place is very clean and easy to walk through. During games there's TVs all around the stadium near the the food stands and bathrooms so you don't miss any action. The lines for food may be long, and there's so many so it's not too bad! If you are lucky if you go the Virgin America club level you're treating to a great view of the field and even better access to food and drinks! The club level has so much space including a bowling ball alley, galleries of old baseball bats, etc. Try to take a tour of the place if you can! The garden in the back is a welcome addition.
p44
sVauthor_name
p45
VAprille Espinueva
p46
sVauthor_url
p47
Vhttps://plus.google.com/100822860986184584169
p48
sVtime
p49
I1413043156
sa(dp50
Vrating
p51
I5
sVaspects
p52
(lp53
(dp54
Vrating
p55
I3
sVtype
p56
Voverall
p57
sasVlanguage
p58
Ven
p59
sVtext
p60
VGreat stadium - and in the middle of SOMA as well!  The parking can be a bit annoying though as an FYI.\u000a\u000aThe stadium itself is great - I've only come for Giants games, and I've sat usually in the Virgin Airlines area (there's a separate escalator for this).  I really enjoy the food here - I love the garlic fries and I love how clean this stadium is even though it's been open for some time!  \u000a\u000aIt can get very cold here - most people don't realize how cold San Francisco can get at night without the sun, so definitely bring a jacket!  The wine can be really pricey as well so watch out for that. 
p61
sVauthor_name
p62
VSally Zhao
p63
sVauthor_url
p64
Vhttps://plus.google.com/112631984024381153921
p65
sVtime
p66
I1412978141
sa(dp67
Vrating
p68
I5
sVaspects
p69
(lp70
(dp71
Vrating
p72
I3
sVtype
p73
Voverall
p74
sasVlanguage
p75
Ven
p76
sVtext
p77
VBeautiful park, awesome time! We went to the Giants vs. Dodgers game, we're Dodger fans, and people were actually pretty civil, considering how big of a game it was. People were telling me before I went, "try the garlic fries," NASTY!! I only took 6 bites or so, and that's only because they were $8!! I tossed them. And I like garlic. But overall, it was a great experience, pricey, just like any other professional game, but worth it.
p78
sVauthor_name
p79
VAmy Blaisdell
p80
sVauthor_url
p81
Vhttps://plus.google.com/100327111590932161816
p82
sVtime
p83
I1410903632
sa(dp84
Vrating
p85
I5
sVaspects
p86
(lp87
(dp88
Vrating
p89
I3
sVtype
p90
Voverall
p91
sasVlanguage
p92
Ven
p93
sVtext
p94
VWhat can I say about AT&T park?! Anywhere you sit or stand is awesome!!! Entertainment galore! I love their crab cake sandwiches and of course, their garlic fries. The best thing about AT&T Park - The San Francisco Giants!!!!
p95
sVauthor_name
p96
VSharon Bee
p97
sVauthor_url
p98
Vhttps://plus.google.com/112933525571389870098
p99
sVtime
p100
I1413243471
sa(dp101
Vrating
p102
I5
sVaspects
p103
(lp104
(dp105
Vrating
p106
I3
sVtype
p107
Voverall
p108
sasVlanguage
p109
Ven
p110
sVtext
p111
VMy favorite place in San Francisco. Such a beautiful ballpark with amazing energy. Tons of delicious and unique food options. So much to see and do, you will never be bored. Depending on time of the year you can get tickets for pretty inexpensive. Try the garlic fries!
p112
sVauthor_name
p113
VBrendon Nemeth
p114
sVauthor_url
p115
Vhttps://plus.google.com/105213255561655655900
p116
sVtime
p117
I1413257141
sasVphotos
p118
(lp119
(dp120
Vwidth
p121
I1632
sVheight
p122
I1224
sVphoto_reference
p123
VCnRtAAAAVeZZSOjY5SaADYI8oM3yiiQl4XLxbS1k_bYqQ7caEuLnmbYiwYrLml7tK5wT-AkXkVbN3DpS8w3dxT_rdulOqGmKZD_iIa5hleZWLLxakpVgasxx2hO82I4V6tv8aWFMU7MUpHlTlsnYbIqfAyvvLBIQBNI3S9wl3QzKiL411DvRVxoUwQNzUuucanqKO26lzKu3JCeCmXo
p124
sVhtml_attributions
p125
(lp126
VFrom a Google User
p127
asa(dp128
Vwidth
p129
I2048
sVheight
p130
I1536
sVphoto_reference
p131
VCpQBhgAAAKbxuu3B5ilid-y5lEoMqbzv8cZouChgSGQ9KhLOQ86ojjNY5MVZBipt1BQIc44_wTmQZ3ll6TPctPTpnS1ZdgjigNKHd_VVMEomllYs1zvDyCinFmCbJqyVI3sx6OtVxa1IFzYR0K71ReysnW0cEFCtGuKoPoBDeLhmzkDfeOMHSgrUPn7wvB7-kOYxlMJkOhIQYXoA2ceM9AnUfb3k4GHU8BoUOmh3MvcFMIakUD-XwqfVU538Sjc
p132
sVhtml_attributions
p133
(lp134
V<a href="https://plus.google.com/106170335079428053302">Corrie Davidson</a>
p135
asa(dp136
Vwidth
p137
I1024
sVheight
p138
I768
sVphoto_reference
p139
VCoQBdgAAAP_4SZ9tCv9VABvBoe7xfU6VvlaRJ19yjf87i0kJKak09iZrQZwynnt_cbfYx9Let7FJIBpn9qr_DGoqIq6ZiNI1gjswZu3xTsrRTSI3PIG4DNSMvi4Pyruwln2q8gyY_BmIyUMsRVvUzudlo4mefrXriWNrKVnP9vPbMrIOrjcgEhAyJGOO2egCwhV7S-FtiGCTGhTB6W1GGShuDzweiht3WM7RvmibuA
p140
sVhtml_attributions
p141
(lp142
VFrom a Google User
p143
asa(dp144
Vwidth
p145
I2048
sVheight
p146
I1536
sVphoto_reference
p147
VCoQBcQAAAIz-h51vclgRrs163l-kVeUnrJdWojcNUy9HlQ2W3vBrBLUcQKAS42yEkXbERyB9F1G8jbBbVG7xW8Z44o3M1OfAbu-RVbZfn6YSVUK3ju34eRIXEHGG4yN3tN9rVKIeHjKwCjYAo3ZgBkP2FHjFoDyyBrS8aU7tAedXiTCWWJ1uEhA2iZb6wsbZoIE8w_Uj5rm2GhSTUKODardHle_aGGam8JU6bNR0Wg
p148
sVhtml_attributions
p149
(lp150
V<a href="https://plus.google.com/112095627515954870302">Garrett Messer</a>
p151
asa(dp152
Vwidth
p153
I1280
sVheight
p154
I960
sVphoto_reference
p155
VCnRoAAAAQaJz3o911Y78iC-H_UqI5_eAfHvo6yBmypjDibiiXdg8baAnwR5Og2XZTvYCYNKgvycI8S8vsp8Q-lsLKVKtdGRY-bRo4xaHVeUxgT9YcQ6xz6BGkL8ccvb7M53rvXw021RhzVAf9D3EmcXJMYqrnxIQoBVt0rg8lAKEUyGLgEzx7xoUxia9tn2i1KDYZZNm4eZCYLUDJcc
p156
sVhtml_attributions
p157
(lp158
V<a href="https://plus.google.com/108152127945250235563">Michael Villalobos Gomez</a>
p159
asa(dp160
Vwidth
p161
I500
sVheight
p162
I332
sVphoto_reference
p163
VCnRtAAAALESpyAysuzRO8BFwooPtrAtOrXHA8VfFOyP6yUkCJ7Tk0QJBQftZ8anT1eDgmDFlAczCz1UVa_vhWSwK0w4oIsf_VML9OekyGIo4kQXn5icGpSzN3msPAirZRjgwiWLa6v-lN55-exkk3VbpAOQTPBIQc-CcLDijMc9ooslIS3H18hoUA2IxAzq3NFRxk5aVLcVvuNiVzlE
p164
sVhtml_attributions
p165
(lp166
V<a href="https://plus.google.com/117701647401983318963">Piero Fusco</a>
p167
asa(dp168
Vwidth
p169
I394
sVheight
p170
I314
sVphoto_reference
p171
VCnRtAAAAIpY5T9ljHjIdKi_g-wWi-F24qwXRRlTAuJpjBgth489P2UzLv8GNx9-Ox_BRruEHh5DTaPWf5F4RpLcwr-6EA7DDzWTXAUED0L3mLLwKl1Uls5ZWShXKRXl0t0BV-2RrpVLJpfKzq98257oPGZeSURIQfs16T1M-DD8-AzCmpXr-EhoUuAjo2Cei7sRfLzk85dvA9xFCgj4
p172
sVhtml_attributions
p173
(lp174
VFrom a Google User
p175
asa(dp176
Vwidth
p177
I2048
sVheight
p178
I1536
sVphoto_reference
p179
VCpQBhgAAAH3_MogAluYh3jNxIuS1Umwel4sdu6b4vDPuCfV5dDw0ph4kAZLDWySBOwwLVGyIHszSW8PJbJKCV3bBF7iu6PwyVG2kXEKOhE76rP0kzq3w_zF-1fYsZOGGbhE2FcbS31LSNCOoxEmXG2PXOBPwwuWkW-CeAk4k18-_M6DMQP69m8CnAMULLBQPeyxVT8xMQRIQKhBJ9mkQoh_XO-0wgzr1EhoUFsLfmv_3wTA0wP07xCGeeIHU7H4
p180
sVhtml_attributions
p181
(lp182
V<a href="https://plus.google.com/106170335079428053302">Corrie Davidson</a>
p183
asa(dp184
Vwidth
p185
I2448
sVheight
p186
I3264
sVphoto_reference
p187
VCnRoAAAAhd1Vfa2A7kNYF2vXYYXRTfDhnBsB86CrcKzYY1fLOSEcV_h0oNdFWVeQ3eE1FWyiPWcKO8L3OGnVc25trBnXDajNJWZywi4AVoZqVW_aw0f2tGvymMxCcxT5BXv1XnUZoDqsA3MRhRFU3VmGLcqRVRIQklLp3Sd51oXKVYtsV2LWORoU2sp3kLFkf1loS_7xx2ZbKE8mX0w
p188
sVhtml_attributions
p189
(lp190
V<a href="https://plus.google.com/114499818319322887155">Tyler Inocencio</a>
p191
asa(dp192
Vwidth
p193
I1296
sVheight
p194
I972
sVphoto_reference
p195
VCnRtAAAABJm5UhczAxm2yk78GOrTHMQa1emElduY036ful83pc9TNcAgRfoIaxc2PJZgLaC4zPtpa55KTeLof8cNIqcVUHyy4ugmmUcPnCYrbEVHExyG8lO58wTkKr2h52U1EJnEPX6ESTXFzZ1OY6l6D0VgaRIQfv8JsK5C4h1Xm0Hjliz88RoUD2fim0ZkD6UVxnOJFiqQWxFEUng
p196
sVhtml_attributions
p197
(lp198
V<a href="https://plus.google.com/117454953906757170811">George Fosselius</a>
p199
asasVurl
p200
Vhttps://plus.google.com/114995991922311473611/about?hl=en-US
p201
sVaddress_components
p202
(lp203
(dp204
Vlong_name
p205
V24
p206
sVshort_name
p207
V24
p208
sVtypes
p209
(lp210
Vstreet_number
p211
asa(dp212
Vlong_name
p213
VWillie Mays Plaza
p214
sVshort_name
p215
VWillie Mays Plaza
p216
sVtypes
p217
(lp218
Vroute
p219
asa(dp220
Vlong_name
p221
VSan Francisco
p222
sVshort_name
p223
VSF
p224
sVtypes
p225
(lp226
Vlocality
p227
aVpolitical
p228
asa(dp229
Vlong_name
p230
VCalifornia
p231
sVshort_name
p232
VCA
p233
sVtypes
p234
(lp235
Vadministrative_area_level_1
p236
aVpolitical
p237
asa(dp238
Vlong_name
p239
VUnited States
p240
sVshort_name
p241
VUS
p242
sVtypes
p243
(lp244
Vcountry
p245
aVpolitical
p246
asa(dp247
Vlong_name
p248
V94107
p249
sVshort_name
p250
V94107
p251
sVtypes
p252
(lp253
Vpostal_code
p254
asasVscope
p255
VGOOGLE
p256
sVformatted_address
p257
V24 Willie Mays Plaza, San Francisco, CA 94107, United States
p258
sVid
p259
V2fabca457541277971b0bc91a40bbad02ecbb5ba
p260
sVtypes
p261
(lp262
Vstadium
p263
aVestablishment
p264
asVicon
p265
Vhttp://maps.gstatic.com/mapfiles/place_api/icons/stadium-71.png
p266
ssba(ispot
Spot
p267
(dp268
g3
I50
sg4
(dp269
Vrating
p270
F4.3
sVreference
p271
VCnRoAAAAr2CwUf3YCgJdKAFq0gmjN74EJ9VnUhWqA8V3rSklVz5Dj_i51ZMP-UgLVqjONBSletoMxgQPUbuQXmCogffcTiXp8vy14vLzPFY4920zFBcIWQVSBzxOXDQ_bz6l3eZLbg8Jjcl4iLMcINpiFnepzBIQ78mY7cJGO5BKCmevd2F3JhoUFhf90bkFsu4B8yGpLwDc0W3GN-o
p272
sVplace_id
p273
VChIJI7NivpmAhYARSuRPlbbn_2w
p274
sVgeometry
p275
(dp276
Vlocation
p277
(dp278
Vlat
p279
F37.771517
sVlng
p280
F-122.468733
sssVformatted_address
p281
V50 Hagiwara Tea Garden Dr, San Francisco, CA 94118, United States
p282
sVid
p283
V2a7464f9faa0b872fcc3132045a4b29e7661f83c
p284
sVopening_hours
p285
(dp286
Vweekday_text
p287
(lp288
VMonday: Closed
p289
aVTuesday: 9:30 am \u2013 5:15 pm
p290
aVWednesday: 9:30 am \u2013 5:15 pm
p291
aVThursday: 9:30 am \u2013 5:15 pm
p292
aVFriday: 9:30 am \u2013 8:45 pm
p293
aVSaturday: 9:30 am \u2013 5:15 pm
p294
aVSunday: 9:30 am \u2013 5:15 pm
p295
asVopen_now
p296
I00
sVperiods
p297
(lp298
(dp299
Vclose
p300
(dp301
Vday
p302
I0
sVtime
p303
V1715
p304
ssVopen
p305
(dp306
Vday
p307
I0
sVtime
p308
V0930
p309
ssa(dp310
Vclose
p311
(dp312
Vday
p313
I2
sVtime
p314
V1715
p315
ssVopen
p316
(dp317
Vday
p318
I2
sVtime
p319
V0930
p320
ssa(dp321
Vclose
p322
(dp323
Vday
p324
I3
sVtime
p325
V1715
p326
ssVopen
p327
(dp328
Vday
p329
I3
sVtime
p330
V0930
p331
ssa(dp332
Vclose
p333
(dp334
Vday
p335
I4
sVtime
p336
V1715
p337
ssVopen
p338
(dp339
Vday
p340
I4
sVtime
p341
V0930
p342
ssa(dp343
Vclose
p344
(dp345
Vday
p346
I5
sVtime
p347
V2045
p348
ssVopen
p349
(dp350
Vday
p351
I5
sVtime
p352
V0930
p353
ssa(dp354
Vclose
p355
(dp356
Vday
p357
I6
sVtime
p358
V1715
p359
ssVopen
p360
(dp361
Vday
p362
I6
sVtime
p363
V0930
p364
ssassVvicinity
p365
V50 Hagiwara Tea Garden Dr, San Francisco
p366
sVscope
p367
VGOOGLE
p368
sVwebsite
p369
Vhttp://deyoung.famsf.org/
p370
sVutc_offset
p371
I-480
sVuser_ratings_total
p372
I121
sVphotos
p373
(lp374
(dp375
Vwidth
p376
I953
sVheight
p377
I953
sVphoto_reference
p378
VCnRwAAAAJU2X4pHAzF6-U77_bttuiTX8ivDa2tczCTOtltHeN-btRxU5ZQqDQZCIp0YZlGtACHDqtT0y1Z1hzB3mRZ2jF941QK2fcE_FzIyrQVac4bAMJYxTwoafcubdg6QC61CMWCOAJdxA89p34rEjRXhwjRIQUQtav31J_ZtPI6wylY8FMxoUEl2MbdZS3N9PB_Ui-XU3MuFZvRw
p379
sVhtml_attributions
p380
(lp381
sa(dp382
Vwidth
p383
I2048
sVheight
p384
I1361
sVphoto_reference
p385
VCnRqAAAAaGHGY4PdiEI4uppjLNwSpOCrQed9hOu1-06rVmJGkU6KEp41r0briDq6hD8zgaPMOGg0GkIfOGLUbuxrvFFg3opFu8J8fJFdJRGDHYYbM4Zaxv8h07zzyhzMMXPrcpWPsqpjUFVgf080bg_B569n8BIQ2dvEijuuNO24sP2LqX7-URoUcm0K2FN43ULT6pAbNWh-siWs4eI
p386
sVhtml_attributions
p387
(lp388
V<a href="https://plus.google.com/107703067300113514526">Cornelius O&#39;Leary Jr</a>
p389
asa(dp390
Vwidth
p391
I1984
sVheight
p392
I1488
sVphoto_reference
p393
VCnRqAAAA2lfLyqumOOs6-kFgzr5xZtrO2XSInFIuJGI6-my-xOX_mLei-4FTglG6i9iPbEUG4XPQ1qYuw-vMesjYeghZ_joJAp6jAIVIMqG4pI-xC5JgsX8fXWAtXMzuA_lkkPBzMnuY2zpN3vJ-TQmIbvEiQRIQvT_ZINT5GsQxVx5l-40SthoUYgG72EiRhIAIpBioadKVvGrhW-Q
p394
sVhtml_attributions
p395
(lp396
V<a href="https://plus.google.com/113173931251785215708">Henning Nielsen</a>
p397
asa(dp398
Vwidth
p399
I380
sVheight
p400
I276
sVphoto_reference
p401
VCnRqAAAAEScnzsVkQbIBTTbQzs8yNh0E3NcGnI-G3jXHnOFaAxilqn6sGZxgnRRn_eXJljnMTuJ_RKxMl-TF0QfJwrdd11FqnZBw15AI5xZr1LofsXaQKvp5pmjuPlnT5W5WEsOqOQfMPjCidLULrd-kJ3MmZRIQDmE3Kgh5OO8uZQCOrXA1yxoU_UoxPbfvxs6dlS0uTPJEP_HesEs
p402
sVhtml_attributions
p403
(lp404
V<a href="https://plus.google.com/100146962083959904819">Sarah White</a>
p405
asa(dp406
Vwidth
p407
I2048
sVheight
p408
I1361
sVphoto_reference
p409
VCnRqAAAAjMbygFO-QRnH_Xa_GCPqz6mHJmSloYkmyyNeh_8OUaHL6AbOKa-gd9m8ojkTaofrZLNJlHeJ09mTG_KPmbkiFTZ0zZTitXepEn99RVwX2bc52kgR7EHM9vNiWb1vO-bZxfPT0qheMUzzvgJZAonAzBIQB1kOnxPmT4amhBOMGHqeVhoUB50KZg1sQI1Laup7EJdVHqIzhxc
p410
sVhtml_attributions
p411
(lp412
V<a href="https://plus.google.com/107703067300113514526">Cornelius O&#39;Leary Jr</a>
p413
asa(dp414
Vwidth
p415
I2048
sVheight
p416
I1361
sVphoto_reference
p417
VCnRqAAAAExwL-tu1oUqr4wD9vagYUA1wlmLjjoYpC8n40jG5wvhZwghOKzb7z_TG1eU52qVYs8blsbOlgcJ51HbiUyOLP6whlxs1YNaJBeUxYWzWhXkjN8s_TlzjFqZIj_kk8XxIeF2KPmjw9wHf9dSHB0u61RIQzONcVLdX3-aNW8Hd9XxF2RoUuw2bvU2dD4iRJxifiwosD-3ZSwM
p418
sVhtml_attributions
p419
(lp420
V<a href="https://plus.google.com/107703067300113514526">Cornelius O&#39;Leary Jr</a>
p421
asa(dp422
Vwidth
p423
I2048
sVheight
p424
I1361
sVphoto_reference
p425
VCnRqAAAAtPL5pIc3PHDjhMpfryEph80OlnWzq6icJFzvhI7VxJZxs9zogRQlq0a2D7mOWxmLbUmVwPWzzBiPSLBXoa8rhAGYUFZQz9WNdxmW3WhcrlrNSRd5cF5GmQ_2Fyzf3sPk0_iSI0pafcyOuGnKRoxOABIQEZv1HqGNkPeGkjkZn81AQRoU40i7boD64HSfroqKJTUrF_Zwngk
p426
sVhtml_attributions
p427
(lp428
V<a href="https://plus.google.com/107703067300113514526">Cornelius O&#39;Leary Jr</a>
p429
asa(dp430
Vwidth
p431
I2048
sVheight
p432
I1361
sVphoto_reference
p433
VCnRqAAAAB17WlSY-KvHsqb3hS5eAShs4ehchU8sLcM3qxiRk0OgJnZvBX15Ej2ZShQ1Ej4FEa7o7Bg9prMNhIIcRka0i1YsytHqzsUBVowQQifnRms_eNIh5WF3MAkW72JNJo5H60hizd9jUR7fcGwBQZCW9cRIQAYiRf30ztn-0XkMqWR1KKRoUlXu737hgM2mWCntsMAg4-2Vw_F4
p434
sVhtml_attributions
p435
(lp436
V<a href="https://plus.google.com/107703067300113514526">Cornelius O&#39;Leary Jr</a>
p437
asa(dp438
Vwidth
p439
I2048
sVheight
p440
I1361
sVphoto_reference
p441
VCnRqAAAAU2PLdr7CTs0iBgrdCTDhaI8INglos552l7pC3HPrq-oJ16MSEUly7Pvd9u8YEy6uOGgl0mJFBl288OSq7IPPuSP-WlrcfzyJmzsOzCUYVsyIG_KEypIJlYisM55Vheri6_WNWot1cttgN3xata7HmhIQqIuDiYa2jBwmcN2GFSuT0xoU4H-o9sSPGk1mTrHrNnJ7xVyVzlM
p442
sVhtml_attributions
p443
(lp444
V<a href="https://plus.google.com/107703067300113514526">Cornelius O&#39;Leary Jr</a>
p445
asa(dp446
Vwidth
p447
I2048
sVheight
p448
I1361
sVphoto_reference
p449
VCnRqAAAAF9uzZizhW0iYhJQ3CQfDOA_j2idvihhy6wwvc0lpn6SM6r17opdc7kgPeD9osBP_7hZIpX512jioD8PhnRvV1GcdGjICnhdqSaW5PvoMlQg7YFTdfKzp5StqjntCe_YUvoWOfx0e-lf9eGG2ZbIKnBIQ6Y1dTCepuqBUNY-gQw07yRoUJSo1lhfSVGI8SUcClcL0tHlFR5A
p450
sVhtml_attributions
p451
(lp452
V<a href="https://plus.google.com/107703067300113514526">Cornelius O&#39;Leary Jr</a>
p453
asasVtypes
p454
(lp455
Vmuseum
p456
aVestablishment
p457
asVicon
p458
Vhttp://maps.gstatic.com/mapfiles/place_api/icons/museum-71.png
p459
sVname
p460
Vde Young Museum
p461
sVurl
p462
Vhttps://plus.google.com/104010277220168946324/about?hl=en-US
p463
sVadr_address
p464
V<span class="street-address">50 Hagiwara Tea Garden Dr</span>, <span class="locality">San Francisco</span>, <span class="region">CA</span> <span class="postal-code">94118</span>, <span class="country-name">United States</span>
p465
sVinternational_phone_number
p466
V+1 415-750-3600
p467
sVreviews
p468
(lp469
(dp470
Vrating
p471
I5
sVaspects
p472
(lp473
(dp474
Vrating
p475
I3
sVtype
p476
Voverall
p477
sasVlanguage
p478
Ven
p479
sVtext
p480
VGreat collection of American Art, fantastic location and fun place to visit.  Shows change regularly, the permanent collection of glass, silver and furniture on the second floor is not to be missed. You can take the elevator to the top floor tower and see a 360 degree view of Golden Gate Park, The GG Bridge and all the neighborhoods surrounding the park.  Wonderful gardens around the museum too.  The cafe is super, lots of choices and fast, friendly service; dine inside or take your food to the lovely outdoor tables.  
p481
sVauthor_name
p482
VYoni Mayeri
p483
sVauthor_url
p484
Vhttps://plus.google.com/105820450885180571966
p485
sVtime
p486
I1412362196
sa(dp487
Vrating
p488
I5
sVaspects
p489
(lp490
(dp491
Vrating
p492
I3
sVtype
p493
Voverall
p494
sasVlanguage
p495
Ven
p496
sVtext
p497
VI have been to a few major exhibits at this museum and I have to say that it is probably my favorite art museum in San Francisco. The staff here does a great job of presenting their classic collection along with an incredible mixture of popular exhibits and temporary installations that very confidently speak to the zeitgeist of the city. This is an amazing accomplishment. Consider how difficult this must be in a city as cool in San Francisco. But with things like the Warhol exhibit and the Jean Paul Gaultier design timeline tour, the DeYoung maintains its place at the pinnacle of the hyper-cool. Having met the people that work there I can also say that they are truly passionate about translating the method, practice, value, and study of art to their community. This is visible in the balance of fun to academic observation and analysis they have in every showing. There is something here for everyone and it's very presentation and curation is art of an incredible caliber. I could go on.....
p498
sVauthor_name
p499
VMisha Metrikin
p500
sVauthor_url
p501
Vhttps://plus.google.com/114890117672430115819
p502
sVtime
p503
I1413260271
sa(dp504
Vrating
p505
I4
sVaspects
p506
(lp507
(dp508
Vrating
p509
I2
sVtype
p510
Voverall
p511
sasVlanguage
p512
Ven
p513
sVtext
p514
VWas lucky enough to visit the O'Keefe exhibit earlier this year and this is museum going at its finest (helped by the fact that the SF MoMa is closed for the next two years so options are currently slim).\u000aOnly giving it four stars since at $25 a pop for admission, this place isn't exactly a bargain. \u000aMake time to visit the Japanese Tea Garden next door and also be sure to go up to the viewing floor for unmatched views of the Presidio and Golden Gate Park.
p515
sVauthor_name
p516
VElmer Ayala
p517
sVauthor_url
p518
Vhttps://plus.google.com/103969904087092883134
p519
sVtime
p520
I1413179353
sa(dp521
Vrating
p522
I5
sVaspects
p523
(lp524
(dp525
Vrating
p526
I3
sVtype
p527
Voverall
p528
sasVlanguage
p529
Ven
p530
sVtext
p531
VThe de Young is a beautiful and modern museum. Highly recommended; houses a full collection of African art, Native American textiles, modernism, and more. The tower in the de Young also offers access to an expansive view of both Golden Gate Park and the city.
p532
sVauthor_name
p533
VJoyce Tang
p534
sVauthor_url
p535
Vhttps://plus.google.com/101092365012450853182
p536
sVtime
p537
I1414996654
sa(dp538
Vrating
p539
I4
sVaspects
p540
(lp541
(dp542
Vrating
p543
I2
sVtype
p544
Voverall
p545
sasVlanguage
p546
Ven
p547
sVtext
p548
VThis museum has great architecture.   There is a 360 degree overlook in the tower, that is free to access.    The views of the park and bay area are spectacular, but of course dependant on the weather. There are also a sculpture court and maze garden that are free.
p549
sVauthor_name
p550
VAnna Hautzinger
p551
sVauthor_url
p552
Vhttps://plus.google.com/116136613716129316971
p553
sVtime
p554
I1415130977
sasVformatted_phone_number
p555
V(415) 750-3600
p556
sVaddress_components
p557
(lp558
(dp559
Vlong_name
p560
V50
p561
sVshort_name
p562
V50
p563
sVtypes
p564
(lp565
Vstreet_number
p566
asa(dp567
Vlong_name
p568
VHagiwara Tea Garden Dr
p569
sVshort_name
p570
VHagiwara Tea Garden Dr
p571
sVtypes
p572
(lp573
Vroute
p574
asa(dp575
Vlong_name
p576
VSan Francisco
p577
sVshort_name
p578
VSF
p579
sVtypes
p580
(lp581
Vlocality
p582
aVpolitical
p583
asa(dp584
Vlong_name
p585
VCalifornia
p586
sVshort_name
p587
VCA
p588
sVtypes
p589
(lp590
Vadministrative_area_level_1
p591
aVpolitical
p592
asa(dp593
Vlong_name
p594
VUnited States
p595
sVshort_name
p596
VUS
p597
sVtypes
p598
(lp599
Vcountry
p600
aVpolitical
p601
asa(dp602
Vlong_name
p603
V94118
p604
sVshort_name
p605
V94118
p606
sVtypes
p607
(lp608
Vpostal_code
p609
asassba(ispot
Spot
p610
(dp611
g3
I100
sg4
(dp612
Vwebsite
p613
Vhttp://sfrecpark.org/destination/telegraph-hill-pioneer-park/coit-tower/
p614
sVrating
p615
F4.1
sVutc_offset
p616
I-480
sVplace_id
p617
VChIJAQAAQIyAhYARRN3yIQG4hd4
p618
sVname
p619
VCoit Tower
p620
sVreference
p621
VCnRkAAAAJiSypCAbWWsDrsKNUvyXJePgfT3zKpazrOP0S0Xbu7_xUAcLB8C_Qg43k1vpMm3xw9wbkfi3ozsk2x33UeObVKaIxaANUcYvqVDCvxnkRd0_1wvlJCVLEEL0bgg0N71jp5WKnTs_T6G6FUQfqOG6FRIQCYS_pJh03fAEZI2F39ouGxoUVTH8kPJoEvNigQspC8EnzJc12B4
p622
sVgeometry
p623
(dp624
Vlocation
p625
(dp626
Vlat
p627
F37.802395
sVlng
p628
F-122.405822
sssVadr_address
p629
V<span class="street-address">1 Telegraph Hill Blvd</span>, <span class="locality">San Francisco</span>, <span class="region">CA</span> <span class="postal-code">94133</span>, <span class="country-name">United States</span>
p630
sVuser_ratings_total
p631
I441
sVvicinity
p632
V1 Telegraph Hill Blvd, San Francisco
p633
sVreviews
p634
(lp635
(dp636
Vrating
p637
I4
sVaspects
p638
(lp639
(dp640
Vrating
p641
I2
sVtype
p642
Voverall
p643
sasVlanguage
p644
Ven
p645
sVtext
p646
VCoit tower has recently undergone some renovations.  (Thanks National Trust for Historic Preservation)   The WPA murals on the ground floor are freshly cleaned, and present interesting visions of life in the 1930's SF.   The stairs are out of commission, so you have to take the small elevator up.   The views are spectacular, particularly on a clear day.  The view from the ground level parking area is also not bad.   On the way down,  try the steps toward the Embarcadero,  very great insights into lush backyards.
p647
sVauthor_name
p648
VAnna Hautzinger
p649
sVauthor_url
p650
Vhttps://plus.google.com/116136613716129316971
p651
sVtime
p652
I1415218790
sa(dp653
Vrating
p654
I4
sVaspects
p655
(lp656
(dp657
Vrating
p658
I2
sVtype
p659
Voverall
p660
sasVlanguage
p661
Ven
p662
sVtext
p663
VAn understated icon of San Francisco. Perched on a rocky hill in the middle of the city's core, this art deco styled tower has impressive views from both it's base and it's viewing platform. Well worth the hike up the hill. Parking anywhere nearby is not going to happen, so take that into account.
p664
sVauthor_name
p665
VTyler Harding
p666
sVauthor_url
p667
Vhttps://plus.google.com/110357160824479158301
p668
sVtime
p669
I1412053153
sa(dp670
Vrating
p671
I4
sVaspects
p672
(lp673
(dp674
Vrating
p675
I2
sVtype
p676
Voverall
p677
sasVlanguage
p678
Ven
p679
sVtext
p680
VAlthough no amazing heights, it's worth a trip if visiting SF.  Tickets are inexpensive and usually a short wait for the elevator ride up.  The inside at the bottom of the tower has beautifully painted murals and the gift shop has all the typical touristy stuff (mugs, maps, shirts, etc).  Depending on your journey to the tower, you can walk to the steep hill from North Beach for added exercise.  \u000aAnd the view from the top is nice, provided it's a clear day!  Pretty small, so be prepared to share windows to look out.
p681
sVauthor_name
p682
VLauren Pinheiro
p683
sVauthor_url
p684
Vhttps://plus.google.com/106990768782331898857
p685
sVtime
p686
I1400785941
sa(dp687
Vrating
p688
I5
sVaspects
p689
(lp690
(dp691
Vrating
p692
I3
sVtype
p693
Voverall
p694
sasVlanguage
p695
Ven
p696
sVtext
p697
VToughed it up the stairs. Enjoyed the view from the base and the stiff breeze. Didn't bother to go to the top. 
p698
sVauthor_name
p699
VYvette Skinner
p700
sVauthor_url
p701
Vhttps://plus.google.com/116618204309104641755
p702
sVtime
p703
I1414728878
sa(dp704
Vrating
p705
I5
sVaspects
p706
(lp707
(dp708
Vrating
p709
I3
sVtype
p710
Voverall
p711
sasVlanguage
p712
Ven
p713
sVtext
p714
VOne of, if not best view of city skyline along with both bridges(if no fog, of course) saw one of last full moon eclipses there years ago. Magical it lasted so long. Got a good contact high, too. No rag-weed, for sure.
p715
sVauthor_name
p716
VRaymond Alvarez
p717
sVauthor_url
p718
Vhttps://plus.google.com/113755175842025386880
p719
sVtime
p720
I1405827204
sasVphotos
p721
(lp722
(dp723
Vwidth
p724
I1268
sVheight
p725
I947
sVphoto_reference
p726
VCnRoAAAAyEUXWWKNFAiEVAaMAEnCJgEztEIIgPoVtHgUdOTDAkgT2PmWw2pFQypNz9GkJ1WRxbl_iUIf69JlDSuqQJ6ELeK6gNQXuYAZYUqcBV5At49FM294CPNP9lNMeQKoGAsFqTbRTGWC-Sat_RttgqOMxhIQLsOgkxtfvuAk1BdJgWSCSBoUlH5_H64KWNR1Li21qudqqalLyI4
p727
sVhtml_attributions
p728
(lp729
V<a href="https://plus.google.com/116596226154549124014">Kee Wook Lee</a>
p730
asa(dp731
Vwidth
p732
I768
sVheight
p733
I1024
sVphoto_reference
p734
VCnRqAAAAaO3arztnOuQIPENgqm8oAH8mkl75UgnWruoq3ozTtsIvVyCDHSqAPBDWEgLcgN54zzUYMR7rzJkfbfQXd5R50yMDw-AX2YwLkzRHeRJE0NXG8mZv8FniVnCqU4vgRfAEB2ejtTw6qllKS4pS_u6TrxIQ6EIG6SEYZdCUt_OfSxv7rhoUQjmb1KoCDvQ-nz0qiNLnbCND1os
p735
sVhtml_attributions
p736
(lp737
VFrom a Google User
p738
asa(dp739
Vwidth
p740
I4608
sVheight
p741
I3456
sVphoto_reference
p742
VCnRlAAAAkibYBIjaH4cPs_SNauYdH4MPdNLJObitgya_arxjCvBjEGc_dyfvoYaR5a1IhrHNxEouiE-ZI0RIlakgfa1xh0Cwv3wBfGD2AIvRYrKV1foAlMu1rh-Asy7bVmOdMaVSaCBGyXpRaa678EOHPeSTBRIQ4aZlXz-rSnoMjD_cETUPohoUz2Kw1oQDJj2YhP3VKNn3xf6mYYM
p743
sVhtml_attributions
p744
(lp745
V<a href="https://plus.google.com/113186450052791933529">Joseph D&#39;Angelo</a>
p746
asa(dp747
Vwidth
p748
I1296
sVheight
p749
I776
sVphoto_reference
p750
VCnRqAAAAvzSKKtr6e4rP-5VIRwVmgpuCinCiUbRHPcEbifbi_O8sOtR9qtbMdTtXI8S9lK9STOpo9DY077kwp-13cwW-xiRi6NrH7-_iPJsE0wvt71cZJBOTObpzT67pZ0AyEs3hCxlCBvq4vs_pkPBctuNQXhIQaA7MrCaDUomQ56hONeXF7BoUrw5Uu0YC5Ld-wysilXYdYCqBNkc
p751
sVhtml_attributions
p752
(lp753
V<a href="https://plus.google.com/114529464953149651619">Kim Nath</a>
p754
asa(dp755
Vwidth
p756
I2048
sVheight
p757
I1362
sVphoto_reference
p758
VCpQBigAAAMTcZD9BWr0hWrbYgl3rhj08nBWGhlkSeh83CwXuJXDMOxzbc1LXpcnEelKvq3oiOIqSv9COMpGvIlXEp8DGSR3WicFH9cCZOkDt2bQEVtEaJWn015xcTI1wt9n8BBcs1ylHYCP8vZi5oG0oQjGZNxFVb4GI3SmnQGGs5Ux-67AN1h54V8VO71A5I1QFN6AsDBIQwY1Jx9P8qN1GVs4PamplPBoU8x4ZODSGJoF-WPqyPl65EQdTma4
p759
sVhtml_attributions
p760
(lp761
V<a href="https://plus.google.com/102156534886423108007">Peter Rehberg</a>
p762
asa(dp763
Vwidth
p764
I768
sVheight
p765
I1024
sVphoto_reference
p766
VCnRqAAAAl4r3tVfV2asPYc2fX-q3qMHT0D1yLBf2jlVMBfLVSoedkePm7g_TtXzNgzZCNmRZD5xcvtCXePbxT_6mwW7AjldHA7Jj0UuLLxorBVmJHnl8Cmt20ykXIkpA8mmV8lcvxZiD0ke82azPh_t8YZ8itRIQOMWMcIQ2s03OkEWVJ2W0whoUvkcgRFDuVxqpsOP7gaAzRAXzApY
p767
sVhtml_attributions
p768
(lp769
V<a href="https://plus.google.com/108274069435520984069">cesar maldonado</a>
p770
asa(dp771
Vwidth
p772
I1866
sVheight
p773
I2048
sVphoto_reference
p774
VCuQB1wAAALyqsL-oSMnEtm9DEIti04p3t1ysMSXyCC3QZ1xBU13Clz82QXLTfqykW6z5rcQlNDY_ev95aAm0yznpPqNoURYJG5CFIAQqxUgxMcyCp1ilO-iNlyfUwQ0-BGb60_QIb2afFVaVXoEFViz7Oj4wLpWdpzCYhRp2aGrzeDe9czOOtN3WKSxb6FqGnPZKQDvDPL2f5MxkFvuFqXiL3ZUcTYUt8zslEsZOB2TikuYx2SZbP2ZXOZdXiBmgvROuhZyO09bhSOgmAqu4aGyCC16mrgo7Xx6zfCB1DMNmKV0g_hSWEhBa1TRVVpB7mHOsiq6BVNwbGhSl435J1tPil1HCZ_TkV5HpQPBxMA
p775
sVhtml_attributions
p776
(lp777
V<a href="https://plus.google.com/113837235805581391057">P Kusserow</a>
p778
asa(dp779
Vwidth
p780
I949
sVheight
p781
I1265
sVphoto_reference
p782
VCnRoAAAAWIUVYPJOihF-fbnyYsVfr1gN6XwsJeUI_sGq_yqNiO8LiaxMNfvxGc5sliNyL_tqt5_8q8M_QzTENkoY7qpPH7XgOFxlBZ5kmj3ijH1JWvu96BJ1wqsM-RYwJqE59_OTFOsIC5znSmbm8_B9f38jHRIQ6pdL_8y6NGGv_JOgrzLU1BoUcGCg7ijzRPuhrES13EwdgZEbTp0
p783
sVhtml_attributions
p784
(lp785
V<a href="https://plus.google.com/108568994711421183759">Harish S</a>
p786
asa(dp787
Vwidth
p788
I2048
sVheight
p789
I1468
sVphoto_reference
p790
VCrQBowAAAO0In2vPBwxRYq1IkXN_sipkI8YQL00btqjjJCSjHseWVxdPAuw23oW6KIOkflu8NnsUlzublJtRY0Auf6ycbqXUvTH006jzUq7kvW5D86DwaBEmhjFyBA1Cx1u-ZSe_ZuDzEke0n5tpL3bUabHEPNBX9BFmA-dg84KJjmFrYRQ4FvjOLTkpG31admg9JDcf5avWeoVTXpNtW2DjeWmTar_r6-H5DW2eROMyxIu3_a-9EhD8UmwKzHPrPutbSjjG3AfJGhQ0WNMncRDSjSYV7ZOKYF9FPn5uHA
p791
sVhtml_attributions
p792
(lp793
V<a href="https://plus.google.com/104908431756212890221">Jay E. Jenkins</a>
p794
asa(dp795
Vwidth
p796
I512
sVheight
p797
I768
sVphoto_reference
p798
VCnRsAAAAum9QBpWubgakN4nQa90FFzVRGVDnrLhuNS_DE1ENHlwZX9PEZzkEVs1Mo2i9pxVj_tBh7IiCEiYjc9_6BATB6Z_hvt5KUqZW2_FcIZ_8g1JO6nvh7uG0rK9585fdM9GGEDMMu6NxLamfU7dyf91m6hIQdiPkki7KYkeJLvjKzzxm3RoUOHpYGeg8THSLXE1W0qZQSpV5LPM
p799
sVhtml_attributions
p800
(lp801
V<a href="https://plus.google.com/106558039864076309587">Fototaker Sf</a>
p802
asasVurl
p803
Vhttps://plus.google.com/101183959756635433266/about?hl=en-US
p804
sVaddress_components
p805
(lp806
(dp807
Vlong_name
p808
V1
p809
sVshort_name
p810
V1
p811
sVtypes
p812
(lp813
Vstreet_number
p814
asa(dp815
Vlong_name
p816
VTelegraph Hill Blvd
p817
sVshort_name
p818
VTelegraph Hill Blvd
p819
sVtypes
p820
(lp821
Vroute
p822
asa(dp823
Vlong_name
p824
VSan Francisco
p825
sVshort_name
p826
VSF
p827
sVtypes
p828
(lp829
Vlocality
p830
aVpolitical
p831
asa(dp832
Vlong_name
p833
VCalifornia
p834
sVshort_name
p835
VCA
p836
sVtypes
p837
(lp838
Vadministrative_area_level_1
p839
aVpolitical
p840
asa(dp841
Vlong_name
p842
VUnited States
p843
sVshort_name
p844
VUS
p845
sVtypes
p846
(lp847
Vcountry
p848
aVpolitical
p849
asa(dp850
Vlong_name
p851
V94133
p852
sVshort_name
p853
V94133
p854
sVtypes
p855
(lp856
Vpostal_code
p857
asasVscope
p858
VGOOGLE
p859
sVformatted_address
p860
V1 Telegraph Hill Blvd, San Francisco, CA 94133, United States
p861
sVid
p862
Vb29bfcfc1c01d4fb92de2cb3e5bc1c18fc3fb446
p863
sVtypes
p864
(lp865
Vestablishment
p866
asVicon
p867
Vhttp://maps.gstatic.com/mapfiles/place_api/icons/generic_business-71.png
p868
ssba(ispot
Spot
p869
(dp870
g3
I150
sg4
(dp871
Vrating
p872
F4.4
sVreference
p873
VCoQBdwAAAEjzGOQP9yhtB0E7ocOnOQ17wbaVdG_CAq4eL-MjpKa9kRvxwnPOjSxBq2-nIEsRtLFbDvOgLJC3dZEXBLE4fjmTEGe70x-uNGH_3D4IIP8y0SGUkO3oshpr_VYCO66ZTDHXFLicMmHQnXgLc5W1wYZyM8FkUyn7zC5WzUV7PLvkEhApUZCwKGYix60APd0hTg9pGhRipRcw63RUh5RNGZltS3_-OOn4Ww
p874
sVprice_level
p875
I3
sVplace_id
p876
VChIJIUT7rEOHhYARucp3wM-HhBs
p877
sVformatted_address
p878
V55 Music Concourse Dr, San Francisco, CA 94118, United States
p879
sVid
p880
Vd920c64674d4af2f684358adccbdf3f04eb70002
p881
sVformatted_phone_number
p882
V(415) 379-8000
p883
sVopening_hours
p884
(dp885
Vweekday_text
p886
(lp887
VMonday: 9:30 am \u2013 5:00 pm
p888
aVTuesday: 9:30 am \u2013 5:00 pm
p889
aVWednesday: 9:30 am \u2013 5:00 pm
p890
aVThursday: 9:30 am \u2013 5:00 pm
p891
aVFriday: 9:30 am \u2013 5:00 pm
p892
aVSaturday: 9:30 am \u2013 5:00 pm
p893
aVSunday: 11:00 am \u2013 5:00 pm
p894
asVopen_now
p895
I00
sVperiods
p896
(lp897
(dp898
Vclose
p899
(dp900
Vday
p901
I0
sVtime
p902
V1700
p903
ssVopen
p904
(dp905
Vday
p906
I0
sVtime
p907
V1100
p908
ssa(dp909
Vclose
p910
(dp911
Vday
p912
I1
sVtime
p913
V1700
p914
ssVopen
p915
(dp916
Vday
p917
I1
sVtime
p918
V0930
p919
ssa(dp920
Vclose
p921
(dp922
Vday
p923
I2
sVtime
p924
V1700
p925
ssVopen
p926
(dp927
Vday
p928
I2
sVtime
p929
V0930
p930
ssa(dp931
Vclose
p932
(dp933
Vday
p934
I3
sVtime
p935
V1700
p936
ssVopen
p937
(dp938
Vday
p939
I3
sVtime
p940
V0930
p941
ssa(dp942
Vclose
p943
(dp944
Vday
p945
I4
sVtime
p946
V1700
p947
ssVopen
p948
(dp949
Vday
p950
I4
sVtime
p951
V0930
p952
ssa(dp953
Vclose
p954
(dp955
Vday
p956
I5
sVtime
p957
V1700
p958
ssVopen
p959
(dp960
Vday
p961
I5
sVtime
p962
V0930
p963
ssa(dp964
Vclose
p965
(dp966
Vday
p967
I6
sVtime
p968
V1700
p969
ssVopen
p970
(dp971
Vday
p972
I6
sVtime
p973
V0930
p974
ssassVvicinity
p975
V55 Music Concourse Dr, San Francisco
p976
sVscope
p977
VGOOGLE
p978
sVwebsite
p979
Vhttp://www.calacademy.org/
p980
sVutc_offset
p981
I-480
sVuser_ratings_total
p982
I629
sVphotos
p983
(lp984
(dp985
Vwidth
p986
I640
sVheight
p987
I427
sVphoto_reference
p988
VCnRnAAAAxfRX0WjH81p58TYMRmKtX8hwxbHwYjLSFtae3yJqOLvLIE5dUhCppg7mRAwOZgQc63Jaf3L-6s9iRsC-jAIMgTUBz8BxoiCasz2NBvDuyK-ZcWkAovsVvBfcVt1f_kgUq6tpAwLnjgo_XZy-ImF00xIQYV7stvvjcbHGQPy2gguINRoU5i8iXLT0Ehzx465gGf-0uOAOVJQ
p989
sVhtml_attributions
p990
(lp991
sa(dp992
Vwidth
p993
I482
sVheight
p994
I640
sVphoto_reference
p995
VCnRnAAAAa7yhagliGsTi3gz57yIcRZyryU762CpCoZrhe68eQ7O2BQhOGjiVJEe9c5s90LdEjG9iCu_tNnsmYfUign9xVY90itGcNDV9hugeWV0ZwuTSPPIveWjteheAX8nPVOx0Vd5o7VjlUO7h4ffWVtOPJhIQwS9E05dEbIIVGd-r-TlHQRoUArrBoyG6ZPzc56A50OSXEq4gunk
p996
sVhtml_attributions
p997
(lp998
sa(dp999
Vwidth
p1000
I640
sVheight
p1001
I427
sVphoto_reference
p1002
VCnRnAAAAolJJoKEz2jLakdQmoN0qjsNcPD9emsNet5xuhDBq-nIHTW7HGalMcOUxz5kHMoDhKjnRvECeLld2S0pYmYIIq2mB3NIc53seEO3GIfeYCgPmUpSRss5YhdGv1v9eP9GZAkJEFe9tMAf2ZK33wg0JNBIQHM-Sr7DRuX9qrK18dVG4jhoULARpROyWjkkBMZB-0vqoVjETsBo
p1003
sVhtml_attributions
p1004
(lp1005
sa(dp1006
Vwidth
p1007
I640
sVheight
p1008
I427
sVphoto_reference
p1009
VCnRnAAAANTjnJYjxSMMnZHnaibSn4oX9UOURYibyneB-muv8XDg0duvGk3ylr9XANmSXPjtIqBNPc29UX9kHFjH-0Fe7AFNDEvzngFEVPy7w0a9qviZxzpxt9EnAnhhSZM0UvWr_lPDsIsJZwM2t7yAbt4OwoBIQuB-nznnkmbSJvz4KHuzyJBoUmm8Iv_OSqIrACvl7oyZS0MdTqdc
p1010
sVhtml_attributions
p1011
(lp1012
sa(dp1013
Vwidth
p1014
I640
sVheight
p1015
I457
sVphoto_reference
p1016
VCnRnAAAAZy8k2_KxWXs2lkRUdyazhV99aRunJUq5Zby4Eim8gNK5VZYK-faGOfZ2pzcx-6YiFahBWJ1cmhoeobZ8f9WEBh_DWR8NDwKEIiUQI4EaThHaMUcQUQ1WNue7HdHemYhiq63PxyPvHvL5KGezHjolShIQIQClnGy3PjnI0eakbU9y0RoUpLx_OJmZ6YxnBk_PSJtzyPyXcIA
p1017
sVhtml_attributions
p1018
(lp1019
sa(dp1020
Vwidth
p1021
I640
sVheight
p1022
I480
sVphoto_reference
p1023
VCnRnAAAAgcd5hu0FNe_898H0tfunim0u_47Pe9qMRNek8OrTpJku-7YAglE-14WEissAKGi1J19rHjadSgXmQXiull8nXnGZSIR3zp-XqDW5q_syUUVeWqmo-heBStJa-PxuTkOS3qShixE6D5NeYEDTka_ArRIQmpemxuwKe0mQ4ty8UoqbFBoUjDqzMX37T3TtyGwqQvUn5efmanw
p1024
sVhtml_attributions
p1025
(lp1026
sa(dp1027
Vwidth
p1028
I562
sVheight
p1029
I640
sVphoto_reference
p1030
VCnRnAAAAAsKHMga2T32GaSP6DNrGrayaqHZ23raI3ab2sv8smRkichkoxquMK1fu7ft6WsgO5EWaVWAApHRUf7KBO2PHQugHhYKnpTl5M7Zut0jPvGjbtgQMBpoChQOyW4etpqiPapg9V-I7l0xRN4LLch7sjRIQ-n5KRCiB0leSswQc-Pn7bBoUAK9BGvhxmCJVffHpotoZam80mdM
p1031
sVhtml_attributions
p1032
(lp1033
sa(dp1034
Vwidth
p1035
I640
sVheight
p1036
I443
sVphoto_reference
p1037
VCnRnAAAApQmiLT-DzlBQGYX4AnSSd1LGCsKtYgnUM__zU2kb96itoFrfmwt79HmkhKNZyEmkf48Ohv6VmO4fPtn6qndiRi0rhMLy9wqu6dZNR0bTVXnHxTF4oydpm5bcs4yYOQBExYtTdHFq36i78BeJlyrhoRIQS44544GL89hjKRNHdQTRzBoUHstRqrQiJ1-C9RkpfAYC1WdgT8E
p1038
sVhtml_attributions
p1039
(lp1040
sa(dp1041
Vwidth
p1042
I2048
sVheight
p1043
I1536
sVphoto_reference
p1044
VCnRqAAAAxV5ilFGG4FgiNZdQ2gd6K0ysXC7J-EJDtjimVnz4guSn-USkZrbcSPw2ZlAI2_6v_ibIUndowVm9t4-6NGWBRwaL_jxrd_Y2sL_Sct60UN1cKFuXAxVA2Jpitav-flFP7t_A-NkfG_crwBSBXtkqLRIQmRwOV1gOYAFeVsFiNW5UCRoU_DPwsJ7s6efJKk5sXFcX7jFTP-M
p1045
sVhtml_attributions
p1046
(lp1047
V<a href="https://plus.google.com/104847770319584345133">Shiraz Siddiqui</a>
p1048
asa(dp1049
Vwidth
p1050
I533
sVheight
p1051
I400
sVphoto_reference
p1052
VCnRmAAAAMGqvZo--RRSEw-pkWFMpTg-B6ovgl0uJNgc3fWQI4XcD_jVmhdWgdE57S1pyLC1X8MJocM3slJWoqDcXnaDKqCA52XhetrAFkKUVyYEGyMv8Q3oSOeFfzosTDr9VbTB9DOYE8AIzE7ewulvwmESNfRIQdM-sw44L2hxao9hJsBMtIRoUWADAZBnKkkbmvwUhbNerLa9Fo4M
p1053
sVhtml_attributions
p1054
(lp1055
V<a href="https://plus.google.com/116600105708585783882">Edwin Ragadio</a>
p1056
asasVtypes
p1057
(lp1058
Vaquarium
p1059
aVmuseum
p1060
aVestablishment
p1061
asVicon
p1062
Vhttp://maps.gstatic.com/mapfiles/place_api/icons/aquarium-71.png
p1063
sVname
p1064
VCalifornia Academy of Sciences
p1065
sVurl
p1066
Vhttps://plus.google.com/116851551368109810342/about?hl=en-US
p1067
sVadr_address
p1068
V<span class="street-address">55 Music Concourse Dr</span>, <span class="locality">San Francisco</span>, <span class="region">CA</span> <span class="postal-code">94118</span>, <span class="country-name">United States</span>
p1069
sVinternational_phone_number
p1070
V+1 415-379-8000
p1071
sVreviews
p1072
(lp1073
(dp1074
Vrating
p1075
I5
sVaspects
p1076
(lp1077
(dp1078
Vrating
p1079
I3
sVtype
p1080
Voverall
p1081
sasVlanguage
p1082
Ven
p1083
sVtext
p1084
VThis is one of the best experiences and values in the city.  This has great night time programs for young adults with music and drinks.  During the daytime this museum showcases the diversity of the whole Bay Area.  You get to explore ecology through the wonderful ECO-dome (biosphere).  The planetarium is fabulous and you get to see the pendulum.  Overall great experience and wonderful for both kids and adults.  Buy the year long membership for your best value.
p1085
sVauthor_name
p1086
Vrobert leung
p1087
sVauthor_url
p1088
Vhttps://plus.google.com/115943204529468844278
p1089
sVtime
p1090
I1416256114
sa(dp1091
Vrating
p1092
I4
sVaspects
p1093
(lp1094
(dp1095
Vrating
p1096
I2
sVtype
p1097
Voverall
p1098
sasVlanguage
p1099
Ven
p1100
sVtext
p1101
VThe Academy of sciences has an amazing aquarium complex that takes a long time to explore and see completely. The layout can be a bit confusing at first, but the high quality exhibits and the signage help. I really like their super small mini aquarium showcasing one tiny type of shrimp or crab, they are very detailed and neat.\u000aTheir biosphere/dome is really cool too, it has a lot to see and spend time in. It's a one way trip: when you get in, you look at things, walk to the top, and take an elevator to exit into the aquarium.\u000aI expected more hands-on things but I guess that's for the Exploratorium.\u000aTheir planetarium, while limited in seats (get a pass as soon as you arrive!) is cool. \u000aI went for the 21+ Thursday night events, which are great, and with a theme, but get very very crowded.
p1102
sVauthor_name
p1103
VJulian Fessard
p1104
sVauthor_url
p1105
Vhttps://plus.google.com/112118270664425522168
p1106
sVtime
p1107
I1412989932
sa(dp1108
Vrating
p1109
I5
sVaspects
p1110
(lp1111
(dp1112
Vrating
p1113
I3
sVtype
p1114
Voverall
p1115
sasVlanguage
p1116
Ven
p1117
sVtext
p1118
VUPDATING TO 5 stars!!!\u000aGot to go here for a city experts event... it was amazing! We got to listen to the tank diver talk about the awesome reef tank, and the older lady docent was awesome about telling us about all the fish and the alligators. Now that I'm expecting I can't wait to take my daughter here to watch all the fish swim by in the tanks, then travel to african savanna and see the zebras\u000a\u000aPrevious:\u000aOk so we all go here on field trips as kids and that's a memory that we hold dear. So you can imagine my surprise as an adult when I came here for one of their nightlife events and the whole inside was changed. It was really disorienting, but I do have to say they new design was still really awesome.\u000a\u000aHOWEVER, once I got acclimated to the changes, I actually had a pretty good time. I took glass with me and my favorite part was the tide pools. The staff were awesome and let me record them talking about the starfish. It made my night really special!!\u000a\u000aDefinitely checkout the nightlife events!!! Fish,dancing, & fun how can you go wrong???
p1119
sVauthor_name
p1120
VShauna Mork
p1121
sVauthor_url
p1122
Vhttps://plus.google.com/110513218467589779477
p1123
sVtime
p1124
I1411720448
sa(dp1125
Vrating
p1126
I5
sVaspects
p1127
(lp1128
(dp1129
Vrating
p1130
I3
sVtype
p1131
Voverall
p1132
sasVlanguage
p1133
Ven
p1134
sVtext
p1135
VI dined there last night for the first time and were very happy with the food and the service! He loved the Cioppino with lots of Maine lobster / shrimp / mussels / clams / fish calamari / scallops and shellfish vegetable broth! I loved my Chilean Sea Bass and we both love our Field Greens Salad! We'll be back!
p1136
sVauthor_name
p1137
VElinor Newell
p1138
sVauthor_url
p1139
Vhttps://plus.google.com/106242117275472828307
p1140
sVtime
p1141
I1416251545
sa(dp1142
Vrating
p1143
I5
sVaspects
p1144
(lp1145
(dp1146
Vrating
p1147
I3
sVtype
p1148
Voverall
p1149
sasVlanguage
p1150
Ven
p1151
sVtext
p1152
VThis place is amazing and one of the most impressive places to take a brainy date to. They have these Night-Life events that take place every Thursday and the theme is basically, science meets pop culture, meets a ginger tonic. It is incredibly fun and very hipster approved in my opinion. The drinks are not cheap of course, but the entrance tickets are at only $12 per person. They even have live-ostrich babies! If you can't win date of the year here then you're standing in the wrong museum. OH! and check out the starlight from the living roof exhibit, and get there early to catch the planetarium as it fills up in an instant.
p1153
sVauthor_name
p1154
VMisha Metrikin
p1155
sVauthor_url
p1156
Vhttps://plus.google.com/114890117672430115819
p1157
sVtime
p1158
I1413259773
sasVgeometry
p1159
(dp1160
Vlocation
p1161
(dp1162
Vlat
p1163
F37.769865
sVlng
p1164
F-122.466095
sssVaddress_components
p1165
(lp1166
(dp1167
Vlong_name
p1168
V55
p1169
sVshort_name
p1170
V55
p1171
sVtypes
p1172
(lp1173
Vstreet_number
p1174
asa(dp1175
Vlong_name
p1176
VMusic Concourse Dr
p1177
sVshort_name
p1178
VMusic Concourse Dr
p1179
sVtypes
p1180
(lp1181
Vroute
p1182
asa(dp1183
Vlong_name
p1184
VSan Francisco
p1185
sVshort_name
p1186
VSF
p1187
sVtypes
p1188
(lp1189
Vlocality
p1190
aVpolitical
p1191
asa(dp1192
Vlong_name
p1193
VCalifornia
p1194
sVshort_name
p1195
VCA
p1196
sVtypes
p1197
(lp1198
Vadministrative_area_level_1
p1199
aVpolitical
p1200
asa(dp1201
Vlong_name
p1202
VUnited States
p1203
sVshort_name
p1204
VUS
p1205
sVtypes
p1206
(lp1207
Vcountry
p1208
aVpolitical
p1209
asa(dp1210
Vlong_name
p1211
V94118
p1212
sVshort_name
p1213
V94118
p1214
sVtypes
p1215
(lp1216
Vpostal_code
p1217
asassba(ispot
Spot
p1218
(dp1219
g3
I200
sg4
(dp1220
Vrating
p1221
F4.3
sVreference
p1222
VCoQBdgAAAHtCy7wHb9FTrPRkDgVXB1Ar0qFFNio0G_aDOKJL-PM2ZkjDiPetnN-pbTNNXgutjxkLEeEOf96d58Fb5vgqn5-Ru4Z_OjCSrGAki4i2skMDFj3lEZxeswDiTiivADjov5wr_eQ4asc85VB2UdbYJT_GAtQb-vx1HWez7Gi9aarxEhCXcifyZVRiYQ4j_PSkK45IGhTIZKUDZvYW-JGRFU7SC82kWFS06Q
p1223
sVplace_id
p1224
VChIJ5f7ZKtiGhYAR9WaYFS6bH1U
p1225
sVgeometry
p1226
(dp1227
Vlocation
p1228
(dp1229
Vlat
p1230
F37.801406
sVlng
p1231
F-122.458725
sssVformatted_address
p1232
V104 Montgomery St, San Francisco, CA 94129, United States
p1233
sVid
p1234
Vb1467bcc46fa06becac3805afdfcbe5e26806199
p1235
sVopening_hours
p1236
(dp1237
Vweekday_text
p1238
(lp1239
VMonday: 10:00 am \u2013 6:00 pm
p1240
aVTuesday: Closed
p1241
aVWednesday: 10:00 am \u2013 6:00 pm
p1242
aVThursday: 10:00 am \u2013 6:00 pm
p1243
aVFriday: 10:00 am \u2013 6:00 pm
p1244
aVSaturday: 10:00 am \u2013 6:00 pm
p1245
aVSunday: 10:00 am \u2013 6:00 pm
p1246
asVopen_now
p1247
I00
sVperiods
p1248
(lp1249
(dp1250
Vclose
p1251
(dp1252
Vday
p1253
I0
sVtime
p1254
V1800
p1255
ssVopen
p1256
(dp1257
Vday
p1258
I0
sVtime
p1259
V1000
p1260
ssa(dp1261
Vclose
p1262
(dp1263
Vday
p1264
I1
sVtime
p1265
V1800
p1266
ssVopen
p1267
(dp1268
Vday
p1269
I1
sVtime
p1270
V1000
p1271
ssa(dp1272
Vclose
p1273
(dp1274
Vday
p1275
I3
sVtime
p1276
V1800
p1277
ssVopen
p1278
(dp1279
Vday
p1280
I3
sVtime
p1281
V1000
p1282
ssa(dp1283
Vclose
p1284
(dp1285
Vday
p1286
I4
sVtime
p1287
V1800
p1288
ssVopen
p1289
(dp1290
Vday
p1291
I4
sVtime
p1292
V1000
p1293
ssa(dp1294
Vclose
p1295
(dp1296
Vday
p1297
I5
sVtime
p1298
V1800
p1299
ssVopen
p1300
(dp1301
Vday
p1302
I5
sVtime
p1303
V1000
p1304
ssa(dp1305
Vclose
p1306
(dp1307
Vday
p1308
I6
sVtime
p1309
V1800
p1310
ssVopen
p1311
(dp1312
Vday
p1313
I6
sVtime
p1314
V1000
p1315
ssassVvicinity
p1316
V104 Montgomery St, San Francisco
p1317
sVscope
p1318
VGOOGLE
p1319
sVwebsite
p1320
Vhttp://waltdisney.org/
p1321
sVutc_offset
p1322
I-480
sVuser_ratings_total
p1323
I64
sVphotos
p1324
(lp1325
(dp1326
Vwidth
p1327
I1344
sVheight
p1328
I760
sVphoto_reference
p1329
VCnRoAAAAZnXCwe3wW841_PqKZGQpav-PtL2L_vMVy1k2_JY4jSaDAklQovR7NeWqh3R_SwuD5-_R0j5n8SjTtzsSrLDbFRjZZGcQ_EBBU0eqbCX_HbDlOXW7QS6v5Q2LA26jg9BdmySZnbT4RJ3stichDQo-NxIQ3iUidWSqmWfmdz8A720AJBoUE5rCjNpdrDQYg1iZf6s4ejEeLEw
p1330
sVhtml_attributions
p1331
(lp1332
V<a href="https://plus.google.com/104418807524866039109">Rhonda Irmen</a>
p1333
asa(dp1334
Vwidth
p1335
I1344
sVheight
p1336
I760
sVphoto_reference
p1337
VCnRoAAAAMXwB4zTnquzx5t1eslyyZeFyvAuQjNS3W1cGtEHiDzrVZ_71HdGXbsiw0wSebTOi9tJc594b5JE38yaKIlqTYGMchvwzz6hCIb32pGM8PluHYXEhGJEROhRyWN-P-xSG9KnZvbXSfTwij9I_Up3QZhIQZRuMhn7CI2sB-8c7yWyTvxoUFUt3oFchO6qjznzq2nqDJ1v3dp8
p1338
sVhtml_attributions
p1339
(lp1340
V<a href="https://plus.google.com/104418807524866039109">Rhonda Irmen</a>
p1341
asa(dp1342
Vwidth
p1343
I1344
sVheight
p1344
I760
sVphoto_reference
p1345
VCnRoAAAAxF1cmnW9-h9bZQ1qqL8kcp6FxQD3w0n9-m4Y1a2jKfCu9DM4Ab77rwLCaNWLq44SQ4IIg-G0OkSkCBeoEVI14D-02cRcKPHp53FpoSX-IiRxke8izUkVqlak_nQBXzBFiGbprhHvR5YlcyjQIKIgdRIQHJXh6wb-X9p_CaWY_X0zxxoUUSVSiuY8bBK5h_zrHuWC58PeNDg
p1346
sVhtml_attributions
p1347
(lp1348
V<a href="https://plus.google.com/104418807524866039109">Rhonda Irmen</a>
p1349
asa(dp1350
Vwidth
p1351
I658
sVheight
p1352
I1216
sVphoto_reference
p1353
VCnRoAAAAGslLVJQbm-1ohWXnU677iMdfoRQUvQI145kwlEKBbQyTW77HUGDMFXiKQAzcB6H4FEzjGy2D6J2ooU8asXrF0fXCZjPLoJq0OO5GqxofyvXL19DTa73p1PI7VULC8V7M2elw36o8AoY4Tle9sOejYxIQQhC5PeIdt01onpboFqZ1JxoUMQpLpLbfI4Pcc0YvEl8kc3iKJHc
p1354
sVhtml_attributions
p1355
(lp1356
V<a href="https://plus.google.com/104418807524866039109">Rhonda Irmen</a>
p1357
asa(dp1358
Vwidth
p1359
I760
sVheight
p1360
I1344
sVphoto_reference
p1361
VCnRoAAAATiVALmlEgg9zvZmkus-6wbiViYbmgGjt6BjdHgNmva9BxcDvKjZ4_meVxl9ool26YtTaxMChImfYBTM46DNJ84wIIIDiSv60s9Q6tKVbHKbr5S_mYFFGhKZyQh-JghwS7o2-11MI_FBXUqKIYIzKTBIQUqxSzg9RJ6nAe7Fqg2vxqxoUeI5eRV4fo9OK2X2wMfp0HrvwOL4
p1362
sVhtml_attributions
p1363
(lp1364
V<a href="https://plus.google.com/104418807524866039109">Rhonda Irmen</a>
p1365
asa(dp1366
Vwidth
p1367
I3072
sVheight
p1368
I2304
sVphoto_reference
p1369
VCpQBjQAAADc7yp4IN1gZjU7-TdWvENnmoGz2G3lhS7v8JQkJcxVLm5voh2YE8ysZPzSlBBlWbxafdtNQKDChekFyOmukhLGvDHMoAwclncTjkeWLyc7kOqLdsN3UG96BlX1_r8OzbVbNH5wCSvzgIOCPZYORE7nkWDsuPVtD6e9S5gXDzczLPf2BUYzz9XCt0XYf8i9wMhIQkaBnhSP3PpbbSSu0US00wBoU9aPP54_uhB0g8SKHGwspOjCD3Q4
p1370
sVhtml_attributions
p1371
(lp1372
VFrom a Google User
p1373
asa(dp1374
Vwidth
p1375
I3072
sVheight
p1376
I2304
sVphoto_reference
p1377
VCpQBjQAAADVP4mT7cNQ1gGK1mE8VQO6BvjGNpfw77RHgcJ01NXi702SJDsDGTf1cIHPv-upK2_zxX6M4OetE-A2VoP2qPxS6fAbYQGr1owLZbdgUzPvXNXyTzDgUH4OqLLmAg15cqopxSAwq2GMJMQPGCsqFw5iI8WerCKe0Z0ncwvMy89tuXqGEW3wlwV_lUS0F7Lw42xIQZfmvVHmo6Lq39t907GOO7BoUtWTfgiv8pmUkoRj7jeDEOFS1_Dc
p1378
sVhtml_attributions
p1379
(lp1380
VFrom a Google User
p1381
asa(dp1382
Vwidth
p1383
I4752
sVheight
p1384
I3168
sVphoto_reference
p1385
VCnRqAAAAGV9XM54HV-cErRoo_Io2ku2VOXUqdHGtXIRumm4vecq73Us1cwhTEBd9XrkJUccYetuhEABR4ykBJpeSNCLh6_u4epxXgv3IXXGPKmwOvYkKM2HBlYwmJaIz531LtS7e_3hy7gR0b8k9aSjwQOTfwBIQlGpraNafsQk4uGIx4SgSCBoUF6u81MvcVOt-enNac3m-BFNnWnw
p1386
sVhtml_attributions
p1387
(lp1388
V<a href="https://plus.google.com/113348736951055038973">Thomas Devaux</a>
p1389
asasVtypes
p1390
(lp1391
Vmuseum
p1392
aVestablishment
p1393
asVicon
p1394
Vhttp://maps.gstatic.com/mapfiles/place_api/icons/museum-71.png
p1395
sVname
p1396
VThe Walt Disney Family Museum
p1397
sVurl
p1398
Vhttps://plus.google.com/105919498584532583013/about?hl=en-US
p1399
sVadr_address
p1400
V<span class="street-address">104 Montgomery St</span>, <span class="locality">San Francisco</span>, <span class="region">CA</span> <span class="postal-code">94129</span>, <span class="country-name">United States</span>
p1401
sVinternational_phone_number
p1402
V+1 415-345-6800
p1403
sVreviews
p1404
(lp1405
(dp1406
Vrating
p1407
I5
sVaspects
p1408
(lp1409
(dp1410
Vrating
p1411
I3
sVtype
p1412
Voverall
p1413
sasVlanguage
p1414
Ven
p1415
sVtext
p1416
VMy Family and I went to Disneyland the year it opened and I've returned many, many times over the past fifty years.  Never having been to Disneyland around Christmas, I'm taking my Sons and their Families this Christmas.  \u000a\u000aI went to the Museum with two other friends.  It took us two and one-half hours to see and absorb all there is to see, ending the tour sitting and reflecting with tears.  I loved every minute of it.  It was so well done.  Not sure if 'youngsters' would appreciate the whole of it.\u000a\u000aSo happy it's close by to me too (Sonoma).\u000a\u000aEnjoy!
p1417
sVauthor_name
p1418
VDiane Litchfield
p1419
sVauthor_url
p1420
Vhttps://plus.google.com/118291852086003731498
p1421
sVtime
p1422
I1413835643
sa(dp1423
Vrating
p1424
I3
sVaspects
p1425
(lp1426
(dp1427
Vrating
p1428
I1
sVtype
p1429
Voverall
p1430
sasVlanguage
p1431
Ven
p1432
sVtext
p1433
VThe most interesting part for me was the exhibit of Mary Blair's designs.  Some of them looked a lot like the movies they eventually led to: The Three Caballeros, Peter Pan, Lady and the Tramp.  But she had a unique way of drawing in a plane, which the animators were never able to master, so that her studies led only to a vague idea of what the characters ended up looking like, and in some cases the overall layout of a scene.  But it was quite educational.\u000a\u000aThe Disney Museum itself was pretty much like the displays that used to be in Disneyland (Anaheim) before it was "modernized" with a bunch of new rides and shops.  So for me there wasn't much new there.  For somebody younger, who has never seen those displays before, it might be more interesting.
p1434
sVauthor_name
p1435
VBarry Gold
p1436
sVauthor_url
p1437
Vhttps://plus.google.com/100495659440714462183
p1438
sVtime
p1439
I1405281106
sa(dp1440
Vrating
p1441
I5
sVaspects
p1442
(lp1443
(dp1444
Vrating
p1445
I3
sVtype
p1446
Voverall
p1447
sasVlanguage
p1448
Ven
p1449
sVtext
p1450
VThe Disney Family Museum is the perfect place for any Disney fanatic.  I came here during one of their night life events and I had a great time visiting the different exhibits.  The theme was tiki and everyone came dressed up in vintage tiki clothes.  They had themed cocktails, arts and crafts and had a food truck outside selling Hawaiian style sliders.  My favorite part of the museum was the Mary Blair exhibit in the second building in the back.  They also had a ukulele player that serenaded guests as they waited in the line to get into the museum.  I would love to go back on a day when it's not so crowded so I could see more of the museum.
p1451
sVauthor_name
p1452
VMandy Irvine
p1453
sVauthor_url
p1454
Vhttps://plus.google.com/104622617500175604392
p1455
sVtime
p1456
I1404172582
sa(dp1457
Vrating
p1458
I4
sVaspects
p1459
(lp1460
(dp1461
Vrating
p1462
I2
sVtype
p1463
Voverall
p1464
sasVlanguage
p1465
Ven
p1466
sVtext
p1467
VDiscount for students. Great hidden gem in the Presidio. A museum geared towards adults and artists, not kid recommended.
p1468
sVauthor_name
p1469
VAaron Babst
p1470
sVauthor_url
p1471
Vhttps://plus.google.com/110946194191781310998
p1472
sVtime
p1473
I1413471375
sa(dp1474
Vrating
p1475
I3
sVaspects
p1476
(lp1477
(dp1478
Vrating
p1479
I1
sVtype
p1480
Voverall
p1481
sasVlanguage
p1482
Ven
p1483
sVtext
p1484
VThe main thing I would like to have done in San Francisco was visiting The Walt Disney Family Museum. But on Wednesday, April 23th, 2014, my husband and I went there, but unfortunately it was closed. I cried a lot, because it was my last day in San Francisco. \u000aI am from Brazil and I will return to San Francisco to visit the museum. I love Disneyland. I love Disneyworld and I love Walt Disney.,\u000a
p1485
sVauthor_name
p1486
VSonia Regina Del Nero Vitullo
p1487
sVauthor_url
p1488
Vhttps://plus.google.com/105192130399562483126
p1489
sVtime
p1490
I1416149824
sasVformatted_phone_number
p1491
V(415) 345-6800
p1492
sVaddress_components
p1493
(lp1494
(dp1495
Vlong_name
p1496
V104
p1497
sVshort_name
p1498
V104
p1499
sVtypes
p1500
(lp1501
Vstreet_number
p1502
asa(dp1503
Vlong_name
p1504
VMontgomery St
p1505
sVshort_name
p1506
VMontgomery St
p1507
sVtypes
p1508
(lp1509
Vroute
p1510
asa(dp1511
Vlong_name
p1512
VSan Francisco
p1513
sVshort_name
p1514
VSF
p1515
sVtypes
p1516
(lp1517
Vlocality
p1518
aVpolitical
p1519
asa(dp1520
Vlong_name
p1521
VCalifornia
p1522
sVshort_name
p1523
VCA
p1524
sVtypes
p1525
(lp1526
Vadministrative_area_level_1
p1527
aVpolitical
p1528
asa(dp1529
Vlong_name
p1530
VUnited States
p1531
sVshort_name
p1532
VUS
p1533
sVtypes
p1534
(lp1535
Vcountry
p1536
aVpolitical
p1537
asa(dp1538
Vlong_name
p1539
V94129
p1540
sVshort_name
p1541
V94129
p1542
sVtypes
p1543
(lp1544
Vpostal_code
p1545
asassba(ispot
Spot
p1546
(dp1547
g3
I250
sg4
(dp1548
Vrating
p1549
F4.2
sVreference
p1550
VCoQBdgAAAP7TLpG-1s2m9-Z3P5-vI2YcYj_T-hz9HOE2KAaFSbCET6L6FGd-BC9ctKhpLUUavCDsRkVwL0oq-XNf4VgB_15LOoxc8qDbcpp9YcOW34Q54eFqs6dj5cjqMJPBPlnz1Kug-B9yVrCvME299IyQUYhI3gaz9uEUMbevlYrDqB5IEhBJuRretLO8DSFsOKBB0hatGhRIcBWLVJKXqfBtzhYqz2bfsFdCuA
p1551
sVplace_id
p1552
VChIJd2spnJuAhYARhkuvhLCp3us
p1553
sVgeometry
p1554
(dp1555
Vlocation
p1556
(dp1557
Vlat
p1558
F37.779282
sVlng
p1559
F-122.415858
sssVformatted_address
p1560
V100 Larkin St, San Francisco, CA 94102, United States
p1561
sVid
p1562
Vb1c83827c82c9fa59ffcdad652d1e8a1b04a4ae8
p1563
sVopening_hours
p1564
(dp1565
Vweekday_text
p1566
(lp1567
VMonday: 10:00 am \u2013 6:00 pm
p1568
aVTuesday: 9:00 am \u2013 8:00 pm
p1569
aVWednesday: 9:00 am \u2013 8:00 pm
p1570
aVThursday: 9:00 am \u2013 8:00 pm
p1571
aVFriday: 12:00 \u2013 6:00 pm
p1572
aVSaturday: 10:00 am \u2013 6:00 pm
p1573
aVSunday: 12:00 \u2013 5:00 pm
p1574
asVopen_now
p1575
I00
sVperiods
p1576
(lp1577
(dp1578
Vclose
p1579
(dp1580
Vday
p1581
I0
sVtime
p1582
V1700
p1583
ssVopen
p1584
(dp1585
Vday
p1586
I0
sVtime
p1587
V1200
p1588
ssa(dp1589
Vclose
p1590
(dp1591
Vday
p1592
I1
sVtime
p1593
V1800
p1594
ssVopen
p1595
(dp1596
Vday
p1597
I1
sVtime
p1598
V1000
p1599
ssa(dp1600
Vclose
p1601
(dp1602
Vday
p1603
I2
sVtime
p1604
V2000
p1605
ssVopen
p1606
(dp1607
Vday
p1608
I2
sVtime
p1609
V0900
p1610
ssa(dp1611
Vclose
p1612
(dp1613
Vday
p1614
I3
sVtime
p1615
V2000
p1616
ssVopen
p1617
(dp1618
Vday
p1619
I3
sVtime
p1620
V0900
p1621
ssa(dp1622
Vclose
p1623
(dp1624
Vday
p1625
I4
sVtime
p1626
V2000
p1627
ssVopen
p1628
(dp1629
Vday
p1630
I4
sVtime
p1631
V0900
p1632
ssa(dp1633
Vclose
p1634
(dp1635
Vday
p1636
I5
sVtime
p1637
V1800
p1638
ssVopen
p1639
(dp1640
Vday
p1641
I5
sVtime
p1642
V1200
p1643
ssa(dp1644
Vclose
p1645
(dp1646
Vday
p1647
I6
sVtime
p1648
V1800
p1649
ssVopen
p1650
(dp1651
Vday
p1652
I6
sVtime
p1653
V1000
p1654
ssassVvicinity
p1655
V100 Larkin St, San Francisco
p1656
sVscope
p1657
VGOOGLE
p1658
sVwebsite
p1659
Vhttp://sfpl.org/index.php?pg=0100000101
p1660
sVutc_offset
p1661
I-480
sVuser_ratings_total
p1662
I87
sVphotos
p1663
(lp1664
(dp1665
Vwidth
p1666
I212
sVheight
p1667
I132
sVphoto_reference
p1668
VCnRnAAAARCnV6KzS-uoEMaTJuucoMwPCLBI0ZX2y8If0G7GXsl7AL2ZGeV_iy8VO5KieeKx8_kk78195Nv0AoL9rdZsMIEZFHWYL2a7FY6WfjcqInaESNAYLfkWeUwTFMP6JdVtBj0-zpQx74bCBh31MwO52KRIQCoyLM5YKEkRJt_jTLHj5-BoU-0Ee70Mq1u2LUvT6cYMTmOl7W9M
p1669
sVhtml_attributions
p1670
(lp1671
sa(dp1672
Vwidth
p1673
I1224
sVheight
p1674
I1632
sVphoto_reference
p1675
VCnRoAAAAdhxqrbMy2_rsZUpwTpciEg5EzxEG0zK_srMKgSFNYVgB6-6gB_tiqcUJ5pzpE45PTSPeE3Sii_U7T9qN6gvSvq0n1OXGVCZ1xp7alf7iCBIhSJaUVclfnKeI8XRK-r2kDNJvxJPa9Fl7RsRh7Ygy5BIQDv7stDwrWpjeeJLPh8ZBrRoU7lz7CG2Lk5d8LS5RFLUaZ7Z4bOI
p1676
sVhtml_attributions
p1677
(lp1678
V<a href="https://plus.google.com/110973269841242399688">Leonard Hayes</a>
p1679
asa(dp1680
Vwidth
p1681
I1296
sVheight
p1682
I972
sVphoto_reference
p1683
VCnRsAAAAlt88Jo5CtX1JrwoJlUAIWoZ0wUOuK47qvRR6A4uxGc1Vsb43LQuYazwZtfwydh57AQVbzU1v4E6_mSa75lWdffJn2I2etSrSmOLjYJIpf_cH14GgRVzWv_1LJ0LNJLHm-a0opWMdowpfB_Spp5hFoRIQD-8amYL51TPaQp75seXplhoUwIy2yjOe_NNkoYP-uwfJo4xpxFY
p1684
sVhtml_attributions
p1685
(lp1686
VFrom a Google User
p1687
asa(dp1688
Vwidth
p1689
I1224
sVheight
p1690
I1632
sVphoto_reference
p1691
VCnRoAAAAIG94GKUfhi6EPaJB9mYh9Ci-m2SFfEGgaZ_mn3XKaQztEkcCe-M5NoOpT7es7U037uP5S1ul6ZijcW8vbXmhHoSJ_ebM6a9Ws4jUBXDC3x7DMXsLHVVmF4yQL1JQz309bkHzNOEyVZWoiPcutyUbsxIQ7DqVpI64TM3aVIuJaI98jxoUBLSYHmtugQmm9w53rdy1zm60kv4
p1692
sVhtml_attributions
p1693
(lp1694
V<a href="https://plus.google.com/110623718662972590701">chad labounty</a>
p1695
asa(dp1696
Vwidth
p1697
I768
sVheight
p1698
I1024
sVphoto_reference
p1699
VCoQBgAAAAEJb-Oqbg6ftTksFQdc42F9XwoUHnqEqd6steiMkh1hdyh27zrMUdcvy_VGeVCksyuF4GME5XRdz_GB3tPYN26sdwxJp1W6chfkXA20Jjv9m-QITmlpSGaWzJB3oBjp8BHO2Ba6mYZmHWMVPa0HKdwNPZlYNxMUHY-NuLWnli89kEhBoUDPd7fQ9RktJpJPfdXj2GhQ9sri0fvGKqRPSuM7b1rgvbsUNqw
p1700
sVhtml_attributions
p1701
(lp1702
V<a href="https://plus.google.com/107358372958769357655">Eric T. Fisher</a>
p1703
asa(dp1704
Vwidth
p1705
I485
sVheight
p1706
I160
sVphoto_reference
p1707
VCnRnAAAACWm0rCEPgV-ACYzs0kCTXJcrjClwPNtDXcgas-DEhjVprXKBBQjIpHS0qGr3pMiFzg7TkYlq6S8c1qAOmWaNlpUXgQ0X0evayh6sbkoJVr-Uoy7mZ5VomlyWTzFfNU0w6mz70e3O2NCYl5CTtHMJ4BIQB1QiMuSc618sh6D-PIkaJxoUhzDToX1ykdS95DeQ9c8AtDm8v9M
p1708
sVhtml_attributions
p1709
(lp1710
sasVtypes
p1711
(lp1712
Vlibrary
p1713
aVestablishment
p1714
asVicon
p1715
Vhttp://maps.gstatic.com/mapfiles/place_api/icons/library-71.png
p1716
sVname
p1717
VSan Francisco Public Library
p1718
sVurl
p1719
Vhttps://plus.google.com/101406392128555893967/about?hl=en-US
p1720
sVadr_address
p1721
V<span class="street-address">100 Larkin St</span>, <span class="locality">San Francisco</span>, <span class="region">CA</span> <span class="postal-code">94102</span>, <span class="country-name">United States</span>
p1722
sVinternational_phone_number
p1723
V+1 415-557-4400
p1724
sVreviews
p1725
(lp1726
(dp1727
Vrating
p1728
I4
sVaspects
p1729
(lp1730
(dp1731
Vrating
p1732
I2
sVtype
p1733
Voverall
p1734
sasVlanguage
p1735
Ven
p1736
sVtext
p1737
V Great group studying/discussion on the 2nd floor corridor. Free wifi throughout the library. But if you are camera shy, then head for the reading rooms on the third floor; plenty of tourists stop by the central corridor to sit and pose as if studying/reading or just snap lots of photos. Sometimes with flash since no guards/staff are around this area.
p1738
sVauthor_name
p1739
VJennifer Anderson
p1740
sVauthor_url
p1741
Vhttps://plus.google.com/101668878103716987723
p1742
sVtime
p1743
I1416069549
sa(dp1744
Vrating
p1745
I4
sVaspects
p1746
(lp1747
(dp1748
Vrating
p1749
I2
sVtype
p1750
Voverall
p1751
sasVlanguage
p1752
Ven
p1753
sVtext
p1754
VWhen your friends are outside enjoying the sunshine and you have to study this really isn't a bad place to spend your day. It's absolutely gorgeous! 3rd floor reading room. Bundle up because it's always freezing, but it helps keep you awake. For some reason it has smelled like dirty feet/vinegar lately, but it's not always like that. Maybe it's the tourists?
p1755
sVauthor_name
p1756
VClarence Sasser
p1757
sVauthor_url
p1758
Vhttps://plus.google.com/115415379408402048510
p1759
sVtime
p1760
I1415905219
sa(dp1761
Vrating
p1762
I4
sVaspects
p1763
(lp1764
(dp1765
Vrating
p1766
I2
sVtype
p1767
Voverall
p1768
sasVlanguage
p1769
Ven
p1770
sVtext
p1771
VPretty cool library!  I was here more as a tourist and didn't actually check out any books or anything, but it was neat to walk around and see everything.  The building looks interesting and the park in front of it is a nice place to hang out.\u000a
p1772
sVauthor_name
p1773
VVina Lund
p1774
sVauthor_url
p1775
Vhttps://plus.google.com/105821397683553294140
p1776
sVtime
p1777
I1415473895
sa(dp1778
Vrating
p1779
I4
sVaspects
p1780
(lp1781
(dp1782
Vrating
p1783
I2
sVtype
p1784
Voverall
p1785
sasVlanguage
p1786
Ven
p1787
sVtext
p1788
VI go tot his library when I got to the Civic Center, but my regular branch is the Ortega Branch Library in the Sunset District. The librarians were very friendly, and there was a wide collection of books. I love the returning process and the self-checkout. The 6th Floor history room, was superb. I looked through files and much more. i would recommend this to everyone.
p1789
sVauthor_name
p1790
VJunming Guan
p1791
sVauthor_url
p1792
Vhttps://plus.google.com/116961296874666170914
p1793
sVtime
p1794
I1413590548
sa(dp1795
Vrating
p1796
I5
sVaspects
p1797
(lp1798
(dp1799
Vrating
p1800
I3
sVtype
p1801
Voverall
p1802
sasVlanguage
p1803
Ven
p1804
sVtext
p1805
VBeautiful library - I love the architecture and the chandeliers hanging in the main reading room; very large and expansive in which you get grab a table to study and/or do work.  Not to mention that this was one of the sites used for 'Ghostwriters!'  There is plenty of light from the natural sunlight streaming in from the large windows as well as the additional light from the lamps.  They have an extensive collection of books and it's a beautiful place to just stop by if you're in the area.
p1806
sVauthor_name
p1807
VSenaida Salmon
p1808
sVauthor_url
p1809
Vhttps://plus.google.com/114300096668768848098
p1810
sVtime
p1811
I1415185197
sasVformatted_phone_number
p1812
V(415) 557-4400
p1813
sVaddress_components
p1814
(lp1815
(dp1816
Vlong_name
p1817
V100
p1818
sVshort_name
p1819
V100
p1820
sVtypes
p1821
(lp1822
Vstreet_number
p1823
asa(dp1824
Vlong_name
p1825
VLarkin St
p1826
sVshort_name
p1827
VLarkin St
p1828
sVtypes
p1829
(lp1830
Vroute
p1831
asa(dp1832
Vlong_name
p1833
VCivic Center
p1834
sVshort_name
p1835
VCivic Center
p1836
sVtypes
p1837
(lp1838
Vneighborhood
p1839
aVpolitical
p1840
asa(dp1841
Vlong_name
p1842
VSan Francisco
p1843
sVshort_name
p1844
VSF
p1845
sVtypes
p1846
(lp1847
Vlocality
p1848
aVpolitical
p1849
asa(dp1850
Vlong_name
p1851
VSan Francisco County
p1852
sVshort_name
p1853
VSan Francisco County
p1854
sVtypes
p1855
(lp1856
Vadministrative_area_level_2
p1857
aVpolitical
p1858
asa(dp1859
Vlong_name
p1860
VCalifornia
p1861
sVshort_name
p1862
VCA
p1863
sVtypes
p1864
(lp1865
Vadministrative_area_level_1
p1866
aVpolitical
p1867
asa(dp1868
Vlong_name
p1869
VUnited States
p1870
sVshort_name
p1871
VUS
p1872
sVtypes
p1873
(lp1874
Vcountry
p1875
aVpolitical
p1876
asa(dp1877
Vlong_name
p1878
V94102
p1879
sVshort_name
p1880
V94102
p1881
sVtypes
p1882
(lp1883
Vpostal_code
p1884
asassba(ispot
Spot
p1885
(dp1886
g3
I300
sg4
(dp1887
Vrating
p1888
F4.4
sVreference
p1889
VCnRwAAAAYCJMgQ06vlhmZMGeCC8EXtuxy5hdMSdy4kWLovzmF60uPGP1gGBjIiNBK2rlUAVWed1QRHZ4eMh6cg0y9sHEZfL4rcAwEUbRC3Nx4gCeUdxpDnTlLyZYL4GGBLc-zwyUl1qVoRwpyDV1b9lYav8swxIQsFmW9P3eaonD6pSUoDe7JBoUO6N_fHQVRuEdca2BxWrffus5sLQ
p1890
sVplace_id
p1891
VChIJS5fZqsx_j4ARsnlQbCfuapc
p1892
sVgeometry
p1893
(dp1894
Vlocation
p1895
(dp1896
Vlat
p1897
F37.763222
sVlng
p1898
F-122.400946
sssVformatted_address
p1899
V1705 Mariposa St, San Francisco, CA 94107, United States
p1900
sVid
p1901
Vc1c4eb58d9464534bb426042172104c8745ccac9
p1902
sVopening_hours
p1903
(dp1904
Vweekday_text
p1905
(lp1906
VMonday: 9:00 am \u2013 5:00 pm
p1907
aVTuesday: 9:00 am \u2013 5:00 pm
p1908
aVWednesday: 9:00 am \u2013 5:00 pm
p1909
aVThursday: 9:00 am \u2013 5:00 pm
p1910
aVFriday: 9:00 am \u2013 5:00 pm
p1911
aVSaturday: Closed
p1912
aVSunday: Closed
p1913
asVopen_now
p1914
I00
sVperiods
p1915
(lp1916
(dp1917
Vclose
p1918
(dp1919
Vday
p1920
I1
sVtime
p1921
V1700
p1922
ssVopen
p1923
(dp1924
Vday
p1925
I1
sVtime
p1926
V0900
p1927
ssa(dp1928
Vclose
p1929
(dp1930
Vday
p1931
I2
sVtime
p1932
V1700
p1933
ssVopen
p1934
(dp1935
Vday
p1936
I2
sVtime
p1937
V0900
p1938
ssa(dp1939
Vclose
p1940
(dp1941
Vday
p1942
I3
sVtime
p1943
V1700
p1944
ssVopen
p1945
(dp1946
Vday
p1947
I3
sVtime
p1948
V0900
p1949
ssa(dp1950
Vclose
p1951
(dp1952
Vday
p1953
I4
sVtime
p1954
V1700
p1955
ssVopen
p1956
(dp1957
Vday
p1958
I4
sVtime
p1959
V0900
p1960
ssa(dp1961
Vclose
p1962
(dp1963
Vday
p1964
I5
sVtime
p1965
V1700
p1966
ssVopen
p1967
(dp1968
Vday
p1969
I5
sVtime
p1970
V0900
p1971
ssassVvicinity
p1972
V1705 Mariposa St, San Francisco
p1973
sVscope
p1974
VGOOGLE
p1975
sVwebsite
p1976
Vhttp://www.anchorbrewing.com/
p1977
sVutc_offset
p1978
I-480
sVuser_ratings_total
p1979
I149
sVphotos
p1980
(lp1981
(dp1982
Vwidth
p1983
I1000
sVheight
p1984
I664
sVphoto_reference
p1985
VCnRnAAAAIIhYX0yfhmYDlxtQNWW8q1hdcxzQSEfMF4OtowJIOOgfaebI7Sl4ceLhZ87VoenEryaPNpo7JFSal8faPMhiU_mMBJ_Qwq0TZnLqP2LKdYFXYoTg_kJIdrRq7SbDs3uZV8uTUaHW9wVJnpsPhSWDxBIQLZh0xJWTk4O5fT3NbRkT8xoUtaNCQAWR_GEPcFDj1FpnkU0E9Cg
p1986
sVhtml_attributions
p1987
(lp1988
sa(dp1989
Vwidth
p1990
I1000
sVheight
p1991
I541
sVphoto_reference
p1992
VCnRnAAAAavuT_2x1T3E_SlzLJZsSi4mZ_ZPz25QTkEkU1tSCJkYlTWGUdjsmUfl_1iYqgMwgGJSUR3sLaL1AnRljrMzXb53dgUCUnkQbPm4WBrH_Gwesadwy_8a6vuOXibZvAO-cFzEYdYrKAQlFQiqJqGOk-xIQYjt5hp4cAFpffGHlgK3FgxoUgjBLOCDQY5TXoYEEHC-TUQrpUgo
p1993
sVhtml_attributions
p1994
(lp1995
sa(dp1996
Vwidth
p1997
I1000
sVheight
p1998
I667
sVphoto_reference
p1999
VCnRnAAAAdRRaMWHl_6rUS8LGl-cQMhMFLzmOFxfwqcsbWIVkTIzl7mrpoiOfTM-zFiQTvkgxCXrNfvKtsqiG6ofcnVzW4tH1U6catWjkbg1XWngTSz7THDsEH9hflK3V4BpqC0ehfiFNrvqD9emGBtBEXSqOHBIQuV1gbG1eXoCgbRPvmwno6xoUw02PANBD61-2NfZ38T0jlXfq9zw
p2000
sVhtml_attributions
p2001
(lp2002
sa(dp2003
Vwidth
p2004
I1000
sVheight
p2005
I667
sVphoto_reference
p2006
VCnRnAAAA5eKH7hxb3UcxVv2sljTQhU-syDJ65CjMCsD5LU5aA8LF7zxfEBsdDeS23rltOtkb48aRTGkjiRFJY7VNABh5ghyf3S5IFeNX92vDO4Cz4PUSL_l3hc3INxfH5AeDSUg9imEzZuW_Y-dIuLOMDmVQ8RIQsTqlJfGFvKyfMLNQrNunfxoUsKHLl8ZflqTmSuZUJ8i_fM2N7vs
p2007
sVhtml_attributions
p2008
(lp2009
sa(dp2010
Vwidth
p2011
I600
sVheight
p2012
I600
sVphoto_reference
p2013
VCnRnAAAA2AgGnv2pfXd2vaqNmrhhhzk-0j2BCmgi-nk250v1yZq4PiSmFT9G-gghG_o9_EmhaZWB1Uth4-7rOyU4zmPPzVMXQyf5h2Y2pCXxS13wMgQTiZ_1b9NmTUY-TwK4aJryfMZHBE-lp92OEsuWCDfFRRIQqn-zbFHjnrfuUCXrnvbOhRoUuctVffD9SIestopKS1kBKWmYzjI
p2014
sVhtml_attributions
p2015
(lp2016
sasVtypes
p2017
(lp2018
Vfood
p2019
aVbar
p2020
aVestablishment
p2021
asVicon
p2022
Vhttp://maps.gstatic.com/mapfiles/place_api/icons/bar-71.png
p2023
sVname
p2024
VAnchor Brewing Company
p2025
sVurl
p2026
Vhttps://plus.google.com/115958020751040892385/about?hl=en-US
p2027
sVadr_address
p2028
V<span class="street-address">1705 Mariposa St</span>, <span class="locality">San Francisco</span>, <span class="region">CA</span> <span class="postal-code">94107</span>, <span class="country-name">United States</span>
p2029
sVinternational_phone_number
p2030
V+1 415-863-8350
p2031
sVreviews
p2032
(lp2033
(dp2034
Vrating
p2035
I5
sVaspects
p2036
(lp2037
(dp2038
Vrating
p2039
I3
sVtype
p2040
Voverall
p2041
sasVlanguage
p2042
Ven
p2043
sVtext
p2044
VThe tour was amazing. Incredibly informative about this amazing 100+ year old brewery and the history behind their method in making inedible beer. The post type trading is a perfect ending after seeing the incredibly large tanks of beer, made with whole hoops that fills the air with a sweet smell that travels throughout the entire brewery, almost ready to enter the bottle with its hand created label. They even have a small stand displaying products with the anchor label ready to take home as a souvenir. \u000a\u000aThis is honestly one of the greatest experiences you will ever have in San Francisco. It requires a reservation month's in advance however that is a small price to pay for this incredible tour, along with the small price of $15 for the tour. I highly recommend it.
p2045
sVauthor_name
p2046
VOscar Velarde
p2047
sVauthor_url
p2048
Vhttps://plus.google.com/103011030476598492144
p2049
sVtime
p2050
I1411697689
sa(dp2051
Vrating
p2052
I5
sVaspects
p2053
(lp2054
(dp2055
Vrating
p2056
I3
sVtype
p2057
Voverall
p2058
sasVlanguage
p2059
Ven
p2060
sVtext
p2061
VI got a free set of tickets to this amazing brewery tour! They are very knowledgeable and clean! (Apparently that's the best way to make beer.) During the tour we were educated not only about the history of the Anchor Brewing company but also how their beers came about and the entire brewing process. After the tour the group got a tasting of all their beer made year round. The guys who gave the tour were engaging and funny. Well worth the money. I'd gladly pay to do it again!
p2062
sVauthor_name
p2063
VMichelle Rowe
p2064
sVauthor_url
p2065
Vhttps://plus.google.com/108974765489459336063
p2066
sVtime
p2067
I1412298568
sa(dp2068
Vrating
p2069
I5
sVaspects
p2070
(lp2071
(dp2072
Vrating
p2073
I3
sVtype
p2074
Voverall
p2075
sasVlanguage
p2076
Ven
p2077
sVtext
p2078
VOne of my favorite local beers. I would highly recommend giving this place and call and setting up a tour of the place. Learn some local SF history about Anchor. Be sure to ask for Bobby if you get a tour. He's great. 
p2079
sVauthor_name
p2080
VRyan Paredez
p2081
sVauthor_url
p2082
Vhttps://plus.google.com/100569678115145725371
p2083
sVtime
p2084
I1392080780
sa(dp2085
Vrating
p2086
I4
sVaspects
p2087
(lp2088
(dp2089
Vrating
p2090
I2
sVtype
p2091
Voverall
p2092
sasVlanguage
p2093
Ven
p2094
sVtext
p2095
VWe were able to get away on a weekday for a tour. It was a good tour, extensive and informative. You try a lot of beer. The employees are upbeat and friendly. Pretty cool facility. Definitely recommend but book a tour early!
p2096
sVauthor_name
p2097
VJenny Gossett
p2098
sVauthor_url
p2099
Vhttps://plus.google.com/101040699501346495649
p2100
sVtime
p2101
I1401831553
sa(dp2102
Vrating
p2103
I3
sVaspects
p2104
(lp2105
(dp2106
Vrating
p2107
I1
sVtype
p2108
Voverall
p2109
sasVlanguage
p2110
Ven
p2111
sVtext
p2112
VWalked many miles from our San Francisco hostel by Fisherman's Warf. Neat building, but no tasteroom or tap house. 
p2113
sVauthor_name
p2114
VChris Allgood
p2115
sVauthor_url
p2116
Vhttps://plus.google.com/113025981059745273246
p2117
sVtime
p2118
I1394503907
sasVformatted_phone_number
p2119
V(415) 863-8350
p2120
sVaddress_components
p2121
(lp2122
(dp2123
Vlong_name
p2124
V1705
p2125
sVshort_name
p2126
V1705
p2127
sVtypes
p2128
(lp2129
Vstreet_number
p2130
asa(dp2131
Vlong_name
p2132
VMariposa St
p2133
sVshort_name
p2134
VMariposa St
p2135
sVtypes
p2136
(lp2137
Vroute
p2138
asa(dp2139
Vlong_name
p2140
VSan Francisco
p2141
sVshort_name
p2142
VSF
p2143
sVtypes
p2144
(lp2145
Vlocality
p2146
aVpolitical
p2147
asa(dp2148
Vlong_name
p2149
VCalifornia
p2150
sVshort_name
p2151
VCA
p2152
sVtypes
p2153
(lp2154
Vadministrative_area_level_1
p2155
aVpolitical
p2156
asa(dp2157
Vlong_name
p2158
VUnited States
p2159
sVshort_name
p2160
VUS
p2161
sVtypes
p2162
(lp2163
Vcountry
p2164
aVpolitical
p2165
asa(dp2166
Vlong_name
p2167
V94107
p2168
sVshort_name
p2169
V94107
p2170
sVtypes
p2171
(lp2172
Vpostal_code
p2173
asa(dp2174
Vlong_name
p2175
V2334
p2176
sVshort_name
p2177
V2334
p2178
sVtypes
p2179
(lp2180
Vpostal_code_suffix
p2181
asassba(ispot
Spot
p2182
(dp2183
g3
I350
sg4
(dp2184
Vrating
p2185
F3.9
sVreference
p2186
VCoQBdwAAABEH5B-Sd05h6ktvLEl89GEfRZy31Oc6dzbVyCPrDj-mEckIcNsvgTRudJytO0J6pOk516coui7tN2y9IgR7_g9w8EwfS0j0QwrS95owxK6nc4SEnCAuOzkGRudih6iJnCV6qYXbB_nJfs7Rurv97rL07WAv9gH4qQ5DLC5MQVoLEhC1rWr6TaEHqclwMkN7JMxeGhSXf0r2PjMBvXxaYkeY2uHvCTjW1w
p2187
sVplace_id
p2188
VChIJ6zMe3oWAhYARaZ33Z1BAMRo
p2189
sVgeometry
p2190
(dp2191
Vlocation
p2192
(dp2193
Vlat
p2194
F37.784143
sVlng
p2195
F-122.407361
sssVformatted_address
p2196
V865 Market St, San Francisco, CA 94103, United States
p2197
sVid
p2198
V25d4bf0577c1d6e6c1ad6372dca5c4efaa5d74da
p2199
sVopening_hours
p2200
(dp2201
Vweekday_text
p2202
(lp2203
VMonday: 10:00 am \u2013 8:30 pm
p2204
aVTuesday: 10:00 am \u2013 8:30 pm
p2205
aVWednesday: 10:00 am \u2013 8:30 pm
p2206
aVThursday: 10:00 am \u2013 8:30 pm
p2207
aVFriday: 10:00 am \u2013 8:30 pm
p2208
aVSaturday: 10:00 am \u2013 8:30 pm
p2209
aVSunday: 11:00 am \u2013 7:00 pm
p2210
asVopen_now
p2211
I00
sVperiods
p2212
(lp2213
(dp2214
Vclose
p2215
(dp2216
Vday
p2217
I0
sVtime
p2218
V1900
p2219
ssVopen
p2220
(dp2221
Vday
p2222
I0
sVtime
p2223
V1100
p2224
ssa(dp2225
Vclose
p2226
(dp2227
Vday
p2228
I1
sVtime
p2229
V2030
p2230
ssVopen
p2231
(dp2232
Vday
p2233
I1
sVtime
p2234
V1000
p2235
ssa(dp2236
Vclose
p2237
(dp2238
Vday
p2239
I2
sVtime
p2240
V2030
p2241
ssVopen
p2242
(dp2243
Vday
p2244
I2
sVtime
p2245
V1000
p2246
ssa(dp2247
Vclose
p2248
(dp2249
Vday
p2250
I3
sVtime
p2251
V2030
p2252
ssVopen
p2253
(dp2254
Vday
p2255
I3
sVtime
p2256
V1000
p2257
ssa(dp2258
Vclose
p2259
(dp2260
Vday
p2261
I4
sVtime
p2262
V2030
p2263
ssVopen
p2264
(dp2265
Vday
p2266
I4
sVtime
p2267
V1000
p2268
ssa(dp2269
Vclose
p2270
(dp2271
Vday
p2272
I5
sVtime
p2273
V2030
p2274
ssVopen
p2275
(dp2276
Vday
p2277
I5
sVtime
p2278
V1000
p2279
ssa(dp2280
Vclose
p2281
(dp2282
Vday
p2283
I6
sVtime
p2284
V2030
p2285
ssVopen
p2286
(dp2287
Vday
p2288
I6
sVtime
p2289
V1000
p2290
ssassVvicinity
p2291
V865 Market St, San Francisco
p2292
sVscope
p2293
VGOOGLE
p2294
sVwebsite
p2295
Vhttp://www.westfield.com/sanfrancisco
p2296
sVutc_offset
p2297
I-480
sVuser_ratings_total
p2298
I426
sVphotos
p2299
(lp2300
(dp2301
Vwidth
p2302
I336
sVheight
p2303
I448
sVphoto_reference
p2304
VCnRqAAAA2T3emMt-AWnH7bpLU-ftEZvLlvcMzY9yljXfWIGRZLYipUNg_vZreU_QthsIO_02Rwk5mZTcW0zkUQscFaVOWFa4M58GONOCSabJz5Ta41AmJCsLvLY8at31FyoSaycRovbTqPZ8LAX5p6b3sVLx5xIQOwFL6gWLNm2SuvXK1Lvm-xoU0uM_O3sUWsw74cLmkebrB-iIQQQ
p2305
sVhtml_attributions
p2306
(lp2307
sa(dp2308
Vwidth
p2309
I1632
sVheight
p2310
I976
sVphoto_reference
p2311
VCpQBggAAAHkMPQT9yPbyHa0oJ9sOfaHwVV5B8o_b2ont0yconK5ORH6r7PcRkVScTerODmkO5Y97_1zJtccBYuyUfDXm6JJRGITx6Ym3H1lDjj5kIuMHkrwmDQxA-a4-vlReSPLmNUjYfQ5_bqT-3Yq1weEHb827pTflYrtA2ISrv51GGlXwuXogNflx3m7r5qVoCfy_kxIQdPP4ty3lW-e4e_unAZmFhRoUryJHR7Tzr-B4_SNvPU6fDB-gmgs
p2312
sVhtml_attributions
p2313
(lp2314
VFrom a Google User
p2315
asa(dp2316
Vwidth
p2317
I960
sVheight
p2318
I540
sVphoto_reference
p2319
VCpQBggAAAPMWQFY3G51cOvzC6fBsC3lQX01rkA8KNKuFcljN_Fp6PqFD8X_xs5rIzonStXpx5Nzo5cRalzAw_DdfcFwsxfCYoQViRmPDyCOMG2O24GCo_GmGhcQFVkU1fl05CcgYb8Y0mI6dbZ6TtCKICbkVDAdNVWo6zwAlznOve0SjMNnIR6uN1S5ABubPxr8vcTbKkBIQsYmTlu16SzP_1n7nGhBjcBoUln72EogmZq7QSsUW2LIFJzZuOEQ
p2320
sVhtml_attributions
p2321
(lp2322
V<a href="https://plus.google.com/104122760120991086547">Eddy Veras</a>
p2323
asa(dp2324
Vwidth
p2325
I896
sVheight
p2326
I448
sVphoto_reference
p2327
VCnRoAAAAPYePJTTuNiLkG9bw415D-p_laM5g2LGztZz1cnoUbocspOkkhvFhWQBrytULh4dPMJNBROiBTZLVgsfOim2Fpz9RCxBtv-cEw0hRWwKpkRfCKSXBUHl_lC_no0lFqQu11I12gUjOYDTcnURipTEpExIQVNIL8DdoMle55FM9zGtBExoUeyb2s1fH2e1FmbAw3rM_jADgHEg
p2328
sVhtml_attributions
p2329
(lp2330
V<a href="https://plus.google.com/102202411800644964458">Tarek Auel</a>
p2331
asa(dp2332
Vwidth
p2333
I640
sVheight
p2334
I480
sVphoto_reference
p2335
VCpQBggAAAD6Qk42OVwizx0ADKDFriIeNocij-07-oIgq-TrEtBudMYRuuF3AggJB0UteFIlHEWxU_J4-4z4cwiDcfFzCRsDQ4-G5myIKZJddsaYGYkSBrqnTqgtNVpYm0f4Jck8yOVXfzAUP7I9ezn8SKYnDensV14JB9SgJstx_IgHB0bIO0xJIVyJFmBR-pO-YNbDPsxIQ6ZUJ3jGDN0lq4PgPqEpMVxoU-dgktg-2ZOvSLlbPReRo6BWopOI
p2336
sVhtml_attributions
p2337
(lp2338
VFrom a Google User
p2339
asa(dp2340
Vwidth
p2341
I640
sVheight
p2342
I640
sVphoto_reference
p2343
VCnRoAAAA9UEtZp74NPGVlD71ZtDzq0zDhiCBuGht49YKakUgdk9DCqXRD0VS7RSeSuvjCBuDtBza990HrM7Yt-p-WO_MIOBIdE4vDFpEgPLLmbBm11ikkKi0_77YlTVnaXCyqYFG-1RjE24Qz0fPj71OZZCOthIQxWnNqz5J8Z1Mn55CyXBh8RoUPbZIAjbEHcr4YVPHQqPiTSlkES8
p2344
sVhtml_attributions
p2345
(lp2346
V<a href="https://plus.google.com/105160613024897619532">Abdullah Al Marshed</a>
p2347
asa(dp2348
Vwidth
p2349
I1296
sVheight
p2350
I776
sVphoto_reference
p2351
VCpQBggAAAPSt-9CchflxKrHtJO55qOCN_74CqWU1zKvi80j7Kq18yTd7ut2QQ71WBsfkx5BuRSzhr9PDtMKAuHyEzG8TEmjVg_AjOD2Az37hsAVz2WWU3mSO9UTRh8tNNzdRCHEo7dTZDpyMjuOeHm-HiIfTOoXEE008AKBprlWQzgwcGZ5u7SOfXQkMCp9cW8pZyrcbwhIQD-TXo0Jkdv1rPBqvN_ghdhoUa0LfRdVergYtJhavrTIHAPYOZI8
p2352
sVhtml_attributions
p2353
(lp2354
VFrom a Google User
p2355
asa(dp2356
Vwidth
p2357
I448
sVheight
p2358
I156
sVphoto_reference
p2359
VCnRqAAAA3j8j1GOgheMTYJEy4i_q3dNgOumloXWlKTFosrhMWgk3aemTqGgvwVkujBbV8k7dSvyy1jKe6q6v4OLoKe8YUfQc-EaG3sxZml32TE3UGqaTYO42fCSwcxjLJZ3t1htnDaj9lTHY456SXVa3FlJNARIQIiSgtds-WqrET1BWEWqPchoUmcthuyqdsS8XjKEnrWwpCnVYwPE
p2360
sVhtml_attributions
p2361
(lp2362
sasVtypes
p2363
(lp2364
Vshopping_mall
p2365
aVestablishment
p2366
asVicon
p2367
Vhttp://maps.gstatic.com/mapfiles/place_api/icons/generic_business-71.png
p2368
sVname
p2369
VWestfield San Francisco Centre
p2370
sVurl
p2371
Vhttps://plus.google.com/106989872492416375687/about?hl=en-US
p2372
sVadr_address
p2373
V<span class="street-address">865 Market St</span>, <span class="locality">San Francisco</span>, <span class="region">CA</span> <span class="postal-code">94103</span>, <span class="country-name">United States</span>
p2374
sVinternational_phone_number
p2375
V+1 415-495-5656
p2376
sVreviews
p2377
(lp2378
(dp2379
Vrating
p2380
I5
sVaspects
p2381
(lp2382
(dp2383
Vrating
p2384
I3
sVtype
p2385
Voverall
p2386
sasVlanguage
p2387
Ven
p2388
sVtext
p2389
VThis mall offers an all-inclusive customer experience with shops, restaurants, a full service spa, grocery store and theater all under one roof. You can easily spend an entire day browsing, shopping, eating and relaxing with the added convenience of accessing an attached BART station. They offer a good variety of shops and department stores, including one of my favorites, Bloomingdales. Bristol Farms is a very fun gourmet grocery store to peruse and buy, with a wonderful variety of food that even the most discriminating eaters can select from. 
p2390
sVauthor_name
p2391
VLana C
p2392
sVauthor_url
p2393
Vhttps://plus.google.com/104200568677644151902
p2394
sVtime
p2395
I1408153162
sa(dp2396
Vrating
p2397
I5
sVaspects
p2398
(lp2399
(dp2400
Vrating
p2401
I3
sVtype
p2402
Voverall
p2403
sasVlanguage
p2404
Ven
p2405
sVtext
p2406
Vh t t p s : / / t . c o / S e 2 W S e R x Q G 
p2407
sVauthor_name
p2408
VRoyce Rollzae
p2409
sVauthor_url
p2410
Vhttps://plus.google.com/115845183049449381542
p2411
sVtime
p2412
I1408723479
sa(dp2413
Vrating
p2414
I1
sVaspects
p2415
(lp2416
(dp2417
Vrating
p2418
I0
sVtype
p2419
Voverall
p2420
sasVlanguage
p2421
Ven
p2422
sVtext
p2423
VIt was a very bad shopping experience at Westfield, San Francisco Centre. I was eating my  lunch  by Sarku Japan when i saw a black man sat down beside me and suddenly he snatched my phone then ran off. But the securities are very stupid, they can't  run fast to catch up the robber. Just run very slowly, i'm so angry. i cannot believe that my phone was snatched in a big shopping mall. It is a Westfield big shopping mall, not a small place or on the street.  The safety system is very very poor of Westfield San Francisco Centre !!!!
p2424
sVauthor_name
p2425
Vhuijie woo
p2426
sVauthor_url
p2427
Vhttps://plus.google.com/107279968104690970437
p2428
sVtime
p2429
I1398414301
sa(dp2430
Vrating
p2431
I4
sVaspects
p2432
(lp2433
(dp2434
Vrating
p2435
I2
sVtype
p2436
Voverall
p2437
sasVlanguage
p2438
Ven
p2439
sVtext
p2440
VBeautiful, historic architecture inside the mall.  The amount of stores is a bit overwhelming, and it is typically crowded.  You can find almost any store you want in the mall (no See's chocolate though).  The food court has a very large selection of choices.  Parking across the street can get expensive.  I like to take out of town visitors here to take pictures.  The dome is super impressive.
p2441
sVauthor_name
p2442
VLibby Chang
p2443
sVauthor_url
p2444
Vhttps://plus.google.com/105175245829173637529
p2445
sVtime
p2446
I1394606800
sa(dp2447
Vrating
p2448
I4
sVaspects
p2449
(lp2450
(dp2451
Vrating
p2452
I2
sVtype
p2453
Voverall
p2454
sasVlanguage
p2455
Ven
p2456
sVtext
p2457
VI like the architecture of the Westfield. Explore the top level (dome) for some nicer areas to sit and also for the new, upscale restaurants.
p2458
sVauthor_name
p2459
VTye Chait
p2460
sVauthor_url
p2461
Vhttps://plus.google.com/100427141882576084440
p2462
sVtime
p2463
I1407698304
sasVformatted_phone_number
p2464
V(415) 495-5656
p2465
sVaddress_components
p2466
(lp2467
(dp2468
Vlong_name
p2469
V865
p2470
sVshort_name
p2471
V865
p2472
sVtypes
p2473
(lp2474
Vstreet_number
p2475
asa(dp2476
Vlong_name
p2477
VMarket St
p2478
sVshort_name
p2479
VMarket St
p2480
sVtypes
p2481
(lp2482
Vroute
p2483
asa(dp2484
Vlong_name
p2485
VSan Francisco
p2486
sVshort_name
p2487
VSF
p2488
sVtypes
p2489
(lp2490
Vlocality
p2491
aVpolitical
p2492
asa(dp2493
Vlong_name
p2494
VSan Francisco County
p2495
sVshort_name
p2496
VSan Francisco County
p2497
sVtypes
p2498
(lp2499
Vadministrative_area_level_2
p2500
aVpolitical
p2501
asa(dp2502
Vlong_name
p2503
VCalifornia
p2504
sVshort_name
p2505
VCA
p2506
sVtypes
p2507
(lp2508
Vadministrative_area_level_1
p2509
aVpolitical
p2510
asa(dp2511
Vlong_name
p2512
VUnited States
p2513
sVshort_name
p2514
VUS
p2515
sVtypes
p2516
(lp2517
Vcountry
p2518
aVpolitical
p2519
asa(dp2520
Vlong_name
p2521
V94103
p2522
sVshort_name
p2523
V94103
p2524
sVtypes
p2525
(lp2526
Vpostal_code
p2527
asassba(ispot
Spot
p2528
(dp2529
g3
I400
sg4
(dp2530
Vrating
p2531
F3.9
sVreference
p2532
VCnRmAAAAfIq3yYNEx7vWp-6fg8iqmlpo29b1NUlfTpKmyaSKb9JW4rEnQqhbaEZZhRDUCDH4qkqPLILWOPWv4X95Rm6afSKfAOI0jeRl5gBKlbcvfabfoKpqX-3ewkSzC-7cBTsVEg384gpcdpocSJ-ELLWrCBIQT9d_h-iH6mLdmdrWV7ZeaBoUBdHTgq4siqOgJfbUTCgXledlKvo
p2533
sVprice_level
p2534
I0
sVplace_id
p2535
VChIJJ6m71o6AhYARiUxigIz3gLw
p2536
sVformatted_address
p2537
V333 Post St, San Francisco, CA 94108, United States
p2538
sVid
p2539
Vb49a3811f38d6725cd7f95b00b4f03593c62b5de
p2540
sVformatted_phone_number
p2541
V(415) 477-2610
p2542
sVopening_hours
p2543
(dp2544
Vweekday_text
p2545
(lp2546
VMonday: 9:00 am \u2013 12:00 am
p2547
aVTuesday: 9:00 am \u2013 12:00 am
p2548
aVWednesday: 9:00 am \u2013 12:00 am
p2549
aVThursday: 9:00 am \u2013 12:00 am
p2550
aVFriday: 9:00 am \u2013 12:00 am
p2551
aVSaturday: 9:00 am \u2013 12:00 am
p2552
aVSunday: 9:00 am \u2013 12:00 am
p2553
asVopen_now
p2554
I00
sVperiods
p2555
(lp2556
(dp2557
Vclose
p2558
(dp2559
Vday
p2560
I1
sVtime
p2561
V0000
p2562
ssVopen
p2563
(dp2564
Vday
p2565
I0
sVtime
p2566
V0900
p2567
ssa(dp2568
Vclose
p2569
(dp2570
Vday
p2571
I2
sVtime
p2572
V0000
p2573
ssVopen
p2574
(dp2575
Vday
p2576
I1
sVtime
p2577
V0900
p2578
ssa(dp2579
Vclose
p2580
(dp2581
Vday
p2582
I3
sVtime
p2583
V0000
p2584
ssVopen
p2585
(dp2586
Vday
p2587
I2
sVtime
p2588
V0900
p2589
ssa(dp2590
Vclose
p2591
(dp2592
Vday
p2593
I4
sVtime
p2594
V0000
p2595
ssVopen
p2596
(dp2597
Vday
p2598
I3
sVtime
p2599
V0900
p2600
ssa(dp2601
Vclose
p2602
(dp2603
Vday
p2604
I5
sVtime
p2605
V0000
p2606
ssVopen
p2607
(dp2608
Vday
p2609
I4
sVtime
p2610
V0900
p2611
ssa(dp2612
Vclose
p2613
(dp2614
Vday
p2615
I6
sVtime
p2616
V0000
p2617
ssVopen
p2618
(dp2619
Vday
p2620
I5
sVtime
p2621
V0900
p2622
ssa(dp2623
Vclose
p2624
(dp2625
Vday
p2626
I0
sVtime
p2627
V0000
p2628
ssVopen
p2629
(dp2630
Vday
p2631
I6
sVtime
p2632
V0900
p2633
ssassVvicinity
p2634
V333 Post St, San Francisco
p2635
sVscope
p2636
VGOOGLE
p2637
sVwebsite
p2638
Vhttp://www.visitunionsquaresf.com/
p2639
sVutc_offset
p2640
I-480
sVuser_ratings_total
p2641
I266
sVphotos
p2642
(lp2643
(dp2644
Vwidth
p2645
I1944
sVheight
p2646
I2592
sVphoto_reference
p2647
VCoQBdQAAAMAMPDN1bV_BkJie3t64Sm6ag5BBCLZDavPbqZwzHMXrWWxt7tpOOn01VATPf0FxL8NzRe5b5hIpMwj9VvY06nRHQdg1YJRGtqrZHKUWuzSx0Ix5WToiaNr2QKdtQ4D-RwcswTIgbpyPkO3IT2F1xsrwncR_5WN8XUzNjCoyB1hpEhAl5lJ2m5BoerveTvDgG2nqGhSwYJFG-p65Acf0PNRVhIYjK7r_zw
p2648
sVhtml_attributions
p2649
(lp2650
V<a href="https://plus.google.com/105076373952934230883">andrea mancini</a>
p2651
asa(dp2652
Vwidth
p2653
I1296
sVheight
p2654
I776
sVphoto_reference
p2655
VCoQBcwAAAHSeRMtC-WuhCaaAMWR_vcC-ck-5dem-bmYZAorBmIMIYUvNpnseIq6nJXdQzG7ZEYqYHDbY4Ppb672SWbJG6exjqhmDUrGCTmRqXLOn5sT2W6wPPt56bwFgOC4Bp0ac4pI1OO7c7dYCpfGIJI_X95OglqS-enpO2yrzPDCaKnVREhDAXWYZMfIp2ATXnViRPyjvGhQ9n3k3F8R3PNGc8TxI5wN7aTSflg
p2656
sVhtml_attributions
p2657
(lp2658
VFrom a Google User
p2659
asa(dp2660
Vwidth
p2661
I768
sVheight
p2662
I1024
sVphoto_reference
p2663
VCoQBcwAAAJj_-wq9wDGfA86zSQjXezPMq-f3vmRAGCAYZQWehJtC9E9p4-Bt3iKZRaXl64ytt0FXGUUhNbshVv_bSpH434mLSRffMWjk-Pd5xqpjUuR-230KpezpZ8qBrOBjOB5GLT15cm09aiV9p18oYF_ZR_9Sr703V_a3U28I3XACpc4WEhCHAEmro_KZDlzbs8ZwOQISGhQ1K-aaDe1qzDrmpTF2GgnACZ4kXA
p2664
sVhtml_attributions
p2665
(lp2666
VFrom a Google User
p2667
asa(dp2668
Vwidth
p2669
I1296
sVheight
p2670
I972
sVphoto_reference
p2671
VCoQBcwAAAI7IjRwYnYTh9PZs3-W2_fwsMOjFWMAIB2UEQEIThLnh5e-GNXDhQbuYAdokbNZ2V2oyyUuKfTU0-gyIQuoOyBgeXpk_xx3TSoYhCa3eFEH0xlExWXLxkd5N3-tFfv8FaXSZK_dQHwTTZzeFjkQfG4kKHh1Gr0tnHOznHAsg2jgREhBiMeeEmroZtXshz0VV9ID4GhSxcGgdPvPU4nXf3lf4SsvUX12QGg
p2672
sVhtml_attributions
p2673
(lp2674
V<a href="https://plus.google.com/111947489942124903382">Farrel Buchinsky</a>
p2675
asa(dp2676
Vwidth
p2677
I1265
sVheight
p2678
I949
sVphoto_reference
p2679
VCnRoAAAARW2GVMNYbu4NbeDO73t2ruo9VJl56kJalwknlw2KG5JTHKXTN-9O5PsBNdf_WIONs3lKbhuDMmBKL5XO2VnYDUX5UajyOQ4bGwPC8RwM2Wj4COQet5XFmJr4edmloV3btHS-WBIRmJaphUolAZ4fJRIQ1KyTh_q6LOluiQQT3ERslxoUxKIzKj29HUUmpGawYvJxPgdqZ9Q
p2680
sVhtml_attributions
p2681
(lp2682
V<a href="https://plus.google.com/102690091571148307715">Amy Meyer</a>
p2683
asa(dp2684
Vwidth
p2685
I972
sVheight
p2686
I1296
sVphoto_reference
p2687
VCoQBcwAAAGs8QP0BJ61OdsA71SD3yyntJJB-HMKVteUDaXe_DwdUYwZILjXjteHVkquxIaJnH48v_l7qEKwc4kzLH4lttIFh0OXioWvkN2so0TZaA1WcUV3bFkmjruB81_A37bEHZngRsEgXV8F5L31GJ6NbXpz4fqBxtNARlTGky1KqVwYNEhBoKupmiBdLS_ealrO8oUPLGhTxzSWXmgkUStskLLTA2Kj8APLCTQ
p2688
sVhtml_attributions
p2689
(lp2690
VFrom a Google User
p2691
asa(dp2692
Vwidth
p2693
I1224
sVheight
p2694
I1632
sVphoto_reference
p2695
VCnRoAAAAmDBSYbYd3fVtPmOi5xDue2cazmx4saKdH07fgpK9htLtbDLJx_b2ZeYemHHkcxC-T2spES-Ti5ZKMN-PO4golQ5402U0N5hvUkMyRNhGBe4ziENPCumbqLGwmh94XM3rgFugRLY84SnbZ0ITzPsNMBIQC3VlU9H0WwbhriHk6CXO8xoUfQ-BoyWCf9E79Wvj3wKGLwBh-hE
p2696
sVhtml_attributions
p2697
(lp2698
V<a href="https://plus.google.com/108708262973663947907">Armando Besa</a>
p2699
asa(dp2700
Vwidth
p2701
I776
sVheight
p2702
I1296
sVphoto_reference
p2703
VCoQBcwAAAAq2VfcCbsd6UhzroEEKlp71_xOVltVyiRK-Y_ig83PsoOyQAm10YJW4dtBgxDdypdM9kT2Ta72aMOKC7MhuiDLof-sezCej9QNxY71sNvj_w0kRvFnomwgBqE18jl2g6cShiajodQ6zWktxK9AU_YQ263P7Ox1F8Y_sxSbh1XssEhBi8lvRDb_tvM3qKjG9RB_dGhRFBLLgJyeK_AFlmt6sIOSptvxiLg
p2704
sVhtml_attributions
p2705
(lp2706
VFrom a Google User
p2707
asa(dp2708
Vwidth
p2709
I960
sVheight
p2710
I1280
sVphoto_reference
p2711
VCoQBcwAAAFlUki2LDHQEacUJRUI8vCQ5FBjg-_EwNLGLil_5syZpWT5WSj52x1yTxT-p5KVayDLLoScVd-nTDYcKtddLVsmBOQ7sp1O3JujmlVHBPO1sOexZan04vNINarXT9cKN5MU-Wa7d50KC7E-LAUFjkLIF2uwtBCvEwnQXlC-xZtybEhAUsez0d6E05tKc6w5JgAecGhSyyfqqMkO8L7kw-IjsCvFkZejqLQ
p2712
sVhtml_attributions
p2713
(lp2714
V<a href="https://plus.google.com/109673904073317858708">Peter Wood</a>
p2715
asa(dp2716
Vwidth
p2717
I816
sVheight
p2718
I612
sVphoto_reference
p2719
VCnRoAAAA5nAZeHpcgQVhqtFZ2p5Oc7cwu5u9K3Ht26aRXUmYE2x8seQ99Bn_btVljaUox_IPebg9RTwceiin3Pf3IKqH10l7KcgQknP9WyWkmeuvosgbMcFKfRDFTZE56ub0Hlq82m6ZmJWevmqgcnYxoNR-qxIQzvC-lPZkrDoBGOsVoO-TKRoUl_pY7-UxxxTI5kyxkHeXxFjrHCw
p2720
sVhtml_attributions
p2721
(lp2722
V<a href="https://plus.google.com/101350698429042644706">Sergio Rodriguez de Guzman</a>
p2723
asasVtypes
p2724
(lp2725
Vpark
p2726
aVestablishment
p2727
asVicon
p2728
Vhttp://maps.gstatic.com/mapfiles/place_api/icons/generic_business-71.png
p2729
sVname
p2730
VUnion Square
p2731
sVurl
p2732
Vhttps://plus.google.com/105424703974286241832/about?hl=en-US
p2733
sVadr_address
p2734
V<span class="street-address">333 Post St</span>, <span class="locality">San Francisco</span>, <span class="region">CA</span> <span class="postal-code">94108</span>, <span class="country-name">United States</span>
p2735
sVinternational_phone_number
p2736
V+1 415-477-2610
p2737
sVreviews
p2738
(lp2739
(dp2740
Vrating
p2741
I4
sVaspects
p2742
(lp2743
(dp2744
Vrating
p2745
I2
sVtype
p2746
Voverall
p2747
sasVlanguage
p2748
Ven
p2749
sVtext
p2750
VUnion Square is a great place for tourists. However, for locals it could be quite a headache driving downtown. There are a lot of activities to do in the area. The most beautiful time of year to go is around Christmas time because they set up amazing light displays as well as decorations and an ice skating rink! A great place to take visitors to take pictures
p2751
sVauthor_name
p2752
VLisa Lai
p2753
sVauthor_url
p2754
Vhttps://plus.google.com/111028865577258308025
p2755
sVtime
p2756
I1415740202
sa(dp2757
Vrating
p2758
I4
sVaspects
p2759
(lp2760
(dp2761
Vrating
p2762
I2
sVtype
p2763
Voverall
p2764
sasVlanguage
p2765
Ven
p2766
sVtext
p2767
VGo to place downtown SF, but in the center of it, something still stumps me.\u000a\u000aThe Dewey Monument: designed by sculptor Robert I. Aitken and architect Newton J. Tharp, it was dedicated by President Theodore Roosevelt on May 14, 1903.\u000aTowering over the square, a bronzed figure of a woman dubbed "Winged Victory" bearing a trident, the symbol of Poseidon and of naval victory, and in the other hand, a laurel wreath, also a symbol of victory.\u000a\u000aI hope the Filipinos will remember the charade the Spanish-American war was! \u000a\u000aA moro-moro of deception aimed at a $20-Million transaction - unknown to Filipinos, through the Treaty of Paris (April 11, 1899), Spain sold the Philippines to the United States, which really, really, really, had no intention of giving them freedom at the time, despite having outlawed slavery within its own borders by 1865.
p2768
sVauthor_name
p2769
VSam Prudente
p2770
sVauthor_url
p2771
Vhttps://plus.google.com/102847070689949264672
p2772
sVtime
p2773
I1416196061
sa(dp2774
Vrating
p2775
I5
sVaspects
p2776
(lp2777
(dp2778
Vrating
p2779
I3
sVtype
p2780
Voverall
p2781
sasVlanguage
p2782
Ven
p2783
sVtext
p2784
VA must see in San Francisco! Like it's name, it's quite literally a square. There is something super special about this place though. Lots of activity, stores, restaurants, etc.... My favorite spots here are: Zara, Uniqlo, Apple Store, and Nike. And of course the higher end stores :P Tip: Try to avoid going on a Sunday since most cafes closes.
p2785
sVauthor_name
p2786
VEarl Friedberg
p2787
sVauthor_url
p2788
Vhttps://plus.google.com/110040772890698655598
p2789
sVtime
p2790
I1415723615
sa(dp2791
Vrating
p2792
I5
sVaspects
p2793
(lp2794
(dp2795
Vrating
p2796
I3
sVtype
p2797
Voverall
p2798
sasVlanguage
p2799
Ven
p2800
sVtext
p2801
VBest place for hanging out and working outside. Has free tables, free wifi and free power outlets. What else do you need?
p2802
sVauthor_name
p2803
VGevorg Madzharyan
p2804
sVauthor_url
p2805
Vhttps://plus.google.com/101851695849425096196
p2806
sVtime
p2807
I1413327706
sa(dp2808
Vrating
p2809
I4
sVaspects
p2810
(lp2811
(dp2812
Vrating
p2813
I2
sVtype
p2814
Voverall
p2815
sasVlanguage
p2816
Ven
p2817
sVtext
p2818
VA must see in San Francisco! As per it's name, it's quite literally a square. But there is something special about this place, morning, noon or night. It's a hub of activity and an entertaining place to rest your legs before exploring the rest of the city. 
p2819
sVauthor_name
p2820
VAmy Meyer
p2821
sVauthor_url
p2822
Vhttps://plus.google.com/102690091571148307715
p2823
sVtime
p2824
I1407809789
sasVgeometry
p2825
(dp2826
Vlocation
p2827
(dp2828
Vlat
p2829
F37.787994
sVlng
p2830
F-122.407437
sssVaddress_components
p2831
(lp2832
(dp2833
Vlong_name
p2834
V333
p2835
sVshort_name
p2836
V333
p2837
sVtypes
p2838
(lp2839
Vstreet_number
p2840
asa(dp2841
Vlong_name
p2842
VPost St
p2843
sVshort_name
p2844
VPost St
p2845
sVtypes
p2846
(lp2847
Vroute
p2848
asa(dp2849
Vlong_name
p2850
VSan Francisco
p2851
sVshort_name
p2852
VSF
p2853
sVtypes
p2854
(lp2855
Vlocality
p2856
aVpolitical
p2857
asa(dp2858
Vlong_name
p2859
VCalifornia
p2860
sVshort_name
p2861
VCA
p2862
sVtypes
p2863
(lp2864
Vadministrative_area_level_1
p2865
aVpolitical
p2866
asa(dp2867
Vlong_name
p2868
VUnited States
p2869
sVshort_name
p2870
VUS
p2871
sVtypes
p2872
(lp2873
Vcountry
p2874
aVpolitical
p2875
asa(dp2876
Vlong_name
p2877
V94108
p2878
sVshort_name
p2879
V94108
p2880
sVtypes
p2881
(lp2882
Vpostal_code
p2883
asassba(ispot
Spot
p2884
(dp2885
g3
I450
sg4
(dp2886
Vrating
p2887
F4.6
sVreference
p2888
VCnRqAAAAG8oTuCHTqhQybYw3dcR5UTn76AHqL-Jy2N8XP3BCtgxNXa-T6IyhLtzvcBMjQFd2ZhvOWLiCIMPlKCSlPlcUP-r_HSk-iTQS8QJRC1ngaEFtBi0guNmIzrsrlqW5NMpywydW1yFYnQXH3Rsl98rhUxIQOjYE1lMPs1-nCuKet9c8ORoUMYJr5zP4NNyENcADlbpzYUMi3O4
p2889
sVplace_id
p2890
VChIJk2vl5NSGhYARwPGvs_ubIws
p2891
sVgeometry
p2892
(dp2893
Vlocation
p2894
(dp2895
Vlat
p2896
F37.800856
sVlng
p2897
F-122.398635
sssVformatted_address
p2898
VPier 15, San Francisco, CA 94111, United States
p2899
sVid
p2900
V9ae214e0b27d97ce2eed7cfd87a119be8820e748
p2901
sVopening_hours
p2902
(dp2903
Vweekday_text
p2904
(lp2905
VMonday: Closed
p2906
aVTuesday: 10:00 am \u2013 5:00 pm
p2907
aVWednesday: 10:00 am \u2013 5:00 pm
p2908
aVThursday: 10:00 am \u2013 5:00 pm
p2909
aVFriday: 10:00 am \u2013 5:00 pm
p2910
aVSaturday: 10:00 am \u2013 5:00 pm
p2911
aVSunday: 10:00 am \u2013 5:00 pm
p2912
asVopen_now
p2913
I00
sVperiods
p2914
(lp2915
(dp2916
Vclose
p2917
(dp2918
Vday
p2919
I0
sVtime
p2920
V1700
p2921
ssVopen
p2922
(dp2923
Vday
p2924
I0
sVtime
p2925
V1000
p2926
ssa(dp2927
Vclose
p2928
(dp2929
Vday
p2930
I2
sVtime
p2931
V1700
p2932
ssVopen
p2933
(dp2934
Vday
p2935
I2
sVtime
p2936
V1000
p2937
ssa(dp2938
Vclose
p2939
(dp2940
Vday
p2941
I3
sVtime
p2942
V1700
p2943
ssVopen
p2944
(dp2945
Vday
p2946
I3
sVtime
p2947
V1000
p2948
ssa(dp2949
Vclose
p2950
(dp2951
Vday
p2952
I4
sVtime
p2953
V1700
p2954
ssVopen
p2955
(dp2956
Vday
p2957
I4
sVtime
p2958
V1000
p2959
ssa(dp2960
Vclose
p2961
(dp2962
Vday
p2963
I5
sVtime
p2964
V1700
p2965
ssVopen
p2966
(dp2967
Vday
p2968
I5
sVtime
p2969
V1000
p2970
ssa(dp2971
Vclose
p2972
(dp2973
Vday
p2974
I6
sVtime
p2975
V1700
p2976
ssVopen
p2977
(dp2978
Vday
p2979
I6
sVtime
p2980
V1000
p2981
ssassVvicinity
p2982
VPier 15, San Francisco
p2983
sVscope
p2984
VGOOGLE
p2985
sVwebsite
p2986
Vhttp://www.exploratorium.edu/
p2987
sVutc_offset
p2988
I-480
sVuser_ratings_total
p2989
I307
sVphotos
p2990
(lp2991
(dp2992
Vwidth
p2993
I1632
sVheight
p2994
I1224
sVphoto_reference
p2995
VCnRoAAAAPl-K1dreoW45QSzpxUXszIx74iZPXxHWFAZrpCfQlv0JqXNIGocEIFS9Ig_SN-U6RewoJ3dTmJuUAo40jczVlL1eKc2T3MB_uULAG1Wd1dhu9WDqcmxdmx0lmNCEV780Rh9A7hwEmaK5De43s5Pr-BIQpzxsLvrQ1rqhd-iE12hXcBoU_E13BpsXcZf0zKec8Y32PuftLVQ
p2996
sVhtml_attributions
p2997
(lp2998
V<a href="https://plus.google.com/114317162158984154862">Dave Wong</a>
p2999
asa(dp3000
Vwidth
p3001
I800
sVheight
p3002
I1067
sVphoto_reference
p3003
VCnRqAAAALrNFljilPXAyCS2o6DFDKMPEuoHZmcKXbiLUsTarLzTjy0sdR47eoLaLu3WPAzvqy8ly3C4LxYAfdJxlhvLT40Bwiaa7n_JO6q7E9A7K0WqAg6qEx4YZ4I5Gm4EVwABGIhd0rD0hHyg8lA8tOzROBhIQz-4b98tqbEGemLghFBRiRxoUHCRQ9jcYzXtd-Lc6WObZPKc5DV8
p3004
sVhtml_attributions
p3005
(lp3006
V<a href="https://plus.google.com/104386105875622819823">Adrianna Cai</a>
p3007
asa(dp3008
Vwidth
p3009
I960
sVheight
p3010
I1280
sVphoto_reference
p3011
VCnRrAAAATPbRJwsmEs5Halli8aVeSbYVO7NqSwwvcxY3YUcUDngtu0e7zUk03ShHU0aerlWv3R61SOlrEpHpysf5-Cbya2J4a8TbOhU0mjFGvNNCOTCnX_QZyyfWJMMTdRB_oM2ha2qlnnKGBVR3KtKypugGTBIQCtVESslxcoSa0GTq1KuHsxoU-7nUiAYn-1Zih1zkLuClv7Y0feM
p3012
sVhtml_attributions
p3013
(lp3014
V<a href="https://plus.google.com/115308343643348370972">Tonia Smith</a>
p3015
asa(dp3016
Vwidth
p3017
I800
sVheight
p3018
I600
sVphoto_reference
p3019
VCnRqAAAADOL5oa2vUgIhEdJWxojD3s_5t2o2KVL7o-zsW2Llb5N_skTLk-7D4cVzqmZcFKqNz5LxJ0OWMxW_yux5AeV1dB0mrFakE_JSDOWP6tely1R5Nx24RLhoq7T8rupNpUcIqGzxDXRiHigTSFKROAkdPRIQkFGaRejYuFwSq7Ht_FhvqBoUSuh53T8f2_yJxwJKq83MVu7zjuI
p3020
sVhtml_attributions
p3021
(lp3022
V<a href="https://plus.google.com/104386105875622819823">Adrianna Cai</a>
p3023
asa(dp3024
Vwidth
p3025
I960
sVheight
p3026
I720
sVphoto_reference
p3027
VCnRoAAAAYL_W8dyJgVZDgnFXhuoj0M_xr2nwaEuUCpN1pKvzaNqduKP71kY2PTvcO-qv1Tbe2wXcjrU_zDJO2QtXAv8xjJzxwuwr27GTRi7fB1vaQK-wo4z7EOCk5aUgfGSacS6TKe4U-CCpCRb7RvrV5ugNtxIQWBPzUSNsRG2y6v629l1aEhoUDL9oE4i5QfJ_NQ1w8yoNIO8CH2g
p3028
sVhtml_attributions
p3029
(lp3030
V<a href="https://plus.google.com/104757709404454136276">Farzad Sharif</a>
p3031
asa(dp3032
Vwidth
p3033
I800
sVheight
p3034
I1067
sVphoto_reference
p3035
VCnRqAAAAicSNBsvaYKfbMyKLcbV0Y4It__9qKTvXIS-a7A-kUgTXVpMvJhxQQ4d-IXlS8NcYrQj9sP495eD9hO1h5duFcJMQQ2PVQ-MKsVMsfm5CXxxWwXdHmN90hQpzC-3z9PATN2_gkXjfiLERxecL4rmAlRIQc_6iBRGbDljnuLoNCNP4sRoUSAaLm4jwkhLhqKQXoAUNgzVWwkk
p3036
sVhtml_attributions
p3037
(lp3038
V<a href="https://plus.google.com/104386105875622819823">Adrianna Cai</a>
p3039
asa(dp3040
Vwidth
p3041
I1600
sVheight
p3042
I1200
sVphoto_reference
p3043
VCnRqAAAA4LKwnkkiPYng1zcPpCzJBneBCVzPAVqdSyR2QlRikvBq_bxPRtyXzhIh7CaCItxeZPlxduwiUXxcbolga0USp_uvCFFls3anA-ArGRK2_h15pk1YLQiZ8unePOST8u20aY00noh3eIAnBNYjSaT5ThIQNydP8bOS4duX1H9eZ6qi1RoUcFCpmgTZ9e9LmRGIlJAnxG7p9t4
p3044
sVhtml_attributions
p3045
(lp3046
V<a href="https://plus.google.com/110644604173805326173">Leslie Castelan</a>
p3047
asa(dp3048
Vwidth
p3049
I648
sVheight
p3050
I486
sVphoto_reference
p3051
VCnRoAAAAPceLbYYMg6I1nAt1U2SnZELP_cMclIb-6vIsQylfgCm9nwzXTt3MG859H5_kdzXbH60dr8KyGPHr3kYygjGKGiZcsUTkEIhYtNAs08pcoppm9pVZon9OMLHL0rayKmYecZd1u7CUn1gMmaksE7qzTBIQYD7yQJ1sTs8t8-6DIhVwPxoUIUaDgaKCnQfCZqM00mADdZW6XnM
p3052
sVhtml_attributions
p3053
(lp3054
V<a href="https://plus.google.com/111544651031607014823">Kelvin Ho</a>
p3055
asa(dp3056
Vwidth
p3057
I816
sVheight
p3058
I612
sVphoto_reference
p3059
VCnRoAAAAX_FyDrlxpLw_SNGrL6ZvGzcPo8uc-xLuPzqTMs4ZUwM8uslXkafaAcLozL7c4gfJcmMJ3eqemo-orHRnvdKBCz7XuhLKszPI2qnsKzegyuHvcbgirXWIFHzr33cidRA1A0u82eS97i-2Vog3r5gaGhIQ45wjNxwLjRb5W59K7A7oJxoUqpjK68tIqocKmPhj50jEbXXP4bk
p3060
sVhtml_attributions
p3061
(lp3062
V<a href="https://plus.google.com/113034897145842763564">MARANDA FAMILY</a>
p3063
asa(dp3064
Vwidth
p3065
I4000
sVheight
p3066
I5333
sVphoto_reference
p3067
VCnRoAAAAa8V53oetqotmEddCDb1QRak9EXVj87ZSaiq7CBRpOzr4_V9n-JB48zRGOA1F71jWiL8pLKP_xl6HcKo61duq7NUwlk74rFs-N9JMKNdu1K0kGOgDuYJFkLppRrYtlvhQ7CHTbKgZgm_dgQT59vCj4RIQJbVsXGhVPpPOjPC_aWaEIxoUljn7Ee1lsnMO7attAOW8kY5EaCg
p3068
sVhtml_attributions
p3069
(lp3070
V<a href="https://plus.google.com/112149668004267823244">River Yuan</a>
p3071
asasVtypes
p3072
(lp3073
Vmuseum
p3074
aVestablishment
p3075
asVicon
p3076
Vhttp://maps.gstatic.com/mapfiles/place_api/icons/museum-71.png
p3077
sVname
p3078
VThe Exploratorium
p3079
sVurl
p3080
Vhttps://plus.google.com/104270379098812187233/about?hl=en-US
p3081
sVadr_address
p3082
VPier 15, <span class="locality">San Francisco</span>, <span class="region">CA</span> <span class="postal-code">94111</span>, <span class="country-name">United States</span>
p3083
sVinternational_phone_number
p3084
V+1 415-528-4444
p3085
sVreviews
p3086
(lp3087
(dp3088
Vrating
p3089
I5
sVaspects
p3090
(lp3091
(dp3092
Vrating
p3093
I3
sVtype
p3094
Voverall
p3095
sasVlanguage
p3096
Ven
p3097
sVtext
p3098
VWhat a fun way to spend a Thursday evening: Adults only night to run around the exploratorium and explore. Loved all of different interactive exhibits.  Tickets for the Tactile Dome is an extra $10 but totally worth it - its definitely an experience and not for ones that are afraid of the dark and/or claustrophobic. You can get through the course in 10-15 minutes.  Would also recommend going through the course with a group of 4-5 friends.  There is mesh netting to crawl through and slides to go down.. at the very end there's a bean pit for you to land in. Go in with an open mind and just have fun! Adult only nights also mean that alcohol is served, which is always a plus ;)
p3099
sVauthor_name
p3100
VCins Laya
p3101
sVauthor_url
p3102
Vhttps://plus.google.com/101768269232847574282
p3103
sVtime
p3104
I1416595087
sa(dp3105
Vrating
p3106
I4
sVaspects
p3107
(lp3108
(dp3109
Vrating
p3110
I2
sVtype
p3111
Voverall
p3112
sasVlanguage
p3113
Ven
p3114
sVtext
p3115
VThe Exploratorium was the highlight of a recent San Francisco. Another reviewer mentioned the Tactile Dome costing $10, but I was there last week, and the price listed was $15 per adult. Maybe there's been a recent increase? \u000a\u000aI very much appreciated the presence of lockers (only 50 cents to rent one all day), not having to schlep my stuff between exhibits made things a whole lot easier. You can come in and out throughout the day (just be sure to have your hand stamped), and it seems like a lot of the class field trips tend to pack up and go in the early afternoon hours. 
p3116
sVauthor_name
p3117
VNan Carde
p3118
sVauthor_url
p3119
Vhttps://plus.google.com/114777535440994791985
p3120
sVtime
p3121
I1416786777
sa(dp3122
Vrating
p3123
I5
sVaspects
p3124
(lp3125
(dp3126
Vrating
p3127
I3
sVtype
p3128
Voverall
p3129
sasVlanguage
p3130
Ven
p3131
sVtext
p3132
VThe Exploratorium in its new location is great, for people of all ages. I've been to the new location for the "after dark" 21+ events (which I strongly recommend, despite the crowds), and certainly was not disappointed. I saw all my favorites experiments as well as new ones, and the new location is really huge and very well laid out. If you like science (and even if you don't) it's worth a trip since the place is so fun to see. It's all hands-on which is something I really like, but contrary to little kids, I also like to read the labels/signs to know what physical phenomenon I'm looking at instead of blindly pushing a button...
p3133
sVauthor_name
p3134
VJulian Fessard
p3135
sVauthor_url
p3136
Vhttps://plus.google.com/112118270664425522168
p3137
sVtime
p3138
I1413014702
sa(dp3139
Vrating
p3140
I5
sVaspects
p3141
(lp3142
(dp3143
Vrating
p3144
I3
sVtype
p3145
Voverall
p3146
sasVlanguage
p3147
Ven
p3148
sVtext
p3149
VThis is such a creative activity center! My husband and I enjoyed all the educational and interactive, scientific stations. We also experienced the tactile dome which was an extremely unique experience. This is a great place for families with adults and kids of all ages!
p3150
sVauthor_name
p3151
VKristen Colander
p3152
sVauthor_url
p3153
Vhttps://plus.google.com/114658324644137737507
p3154
sVtime
p3155
I1416974707
sa(dp3156
Vrating
p3157
I5
sVaspects
p3158
(lp3159
(dp3160
Vrating
p3161
I3
sVtype
p3162
Voverall
p3163
sasVlanguage
p3164
Ven
p3165
sVtext
p3166
VI want to say it's the most amazing museum I have ever been to but, it's more than that.  I wouldn't even call it a science museum at all.  It's more of an experience based on physics and such.  This is a hands on experience that can consume your entire day easily.  I have been multiple times and on each visit there are new exhibits that have swapped out others.  The new location on the pier is beautiful and the staff are wonderful.  Just go and become a kid again.  It's a full blown tinkering overload.  If you love to push buttons to see what they will do, roll, bounce and swing stuff then this is where you belong.  Some things to know before you go.  If you want to experience the Tactile Dome, be sure to get tickets when you purchase your main tickets.  Also, they have a huge "spyrograph" swinging table and you can have one made but, you have to get your name on the list.  Do that early if you want one to take home.  
p3167
sVauthor_name
p3168
VCarl Cordell
p3169
sVauthor_url
p3170
Vhttps://plus.google.com/105619768905307646583
p3171
sVtime
p3172
I1411581848
sasVformatted_phone_number
p3173
V(415) 528-4444
p3174
sVaddress_components
p3175
(lp3176
(dp3177
Vlong_name
p3178
VSan Francisco
p3179
sVshort_name
p3180
VSF
p3181
sVtypes
p3182
(lp3183
Vlocality
p3184
aVpolitical
p3185
asa(dp3186
Vlong_name
p3187
VCalifornia
p3188
sVshort_name
p3189
VCA
p3190
sVtypes
p3191
(lp3192
Vadministrative_area_level_1
p3193
aVpolitical
p3194
asa(dp3195
Vlong_name
p3196
VUnited States
p3197
sVshort_name
p3198
VUS
p3199
sVtypes
p3200
(lp3201
Vcountry
p3202
aVpolitical
p3203
asa(dp3204
Vlong_name
p3205
V94111
p3206
sVshort_name
p3207
V94111
p3208
sVtypes
p3209
(lp3210
Vpostal_code
p3211
asassba(ispot
Spot
p3212
(dp3213
g3
I500
sg4
(dp3214
Vwebsite
p3215
Vhttp://www.apeconcerts.com/
p3216
sVrating
p3217
F3.6
sVutc_offset
p3218
I-480
sVplace_id
p3219
VChIJNwYP6ZuAhYARi-mJBD79f-I
p3220
sVname
p3221
VBill Graham Civic Auditorium
p3222
sVreference
p3223
VCoQBdgAAALEsSh491cGKpDM-mlnKKC_QWRQTH1utmcNa7ldsqos7-k53UHrZJKAaQ-GCs_y5MJduTyKAfsX54ybjkyXIm8n9YkPSjQqRSX5UCsXQtaAA-coc0O0xxdfPnPNYTdtb8yztiErZ1BYmc8KkNeQ9SotZG_PgVOlZHC4zmw7BEi45EhDOW5C11ikRjlTb11-XDEYIGhS0LbJJVKQ-ezNyw4oOc-K0xouvXQ
p3224
sVformatted_phone_number
p3225
V(415) 624-8900
p3226
sVgeometry
p3227
(dp3228
Vlocation
p3229
(dp3230
Vlat
p3231
F37.778077
sVlng
p3232
F-122.417403
sssVadr_address
p3233
V<span class="street-address">99 Grove St</span>, <span class="locality">San Francisco</span>, <span class="region">CA</span> <span class="postal-code">94102</span>, <span class="country-name">United States</span>
p3234
sVuser_ratings_total
p3235
I40
sVinternational_phone_number
p3236
V+1 415-624-8900
p3237
sVvicinity
p3238
V99 Grove St, San Francisco
p3239
sVreviews
p3240
(lp3241
(dp3242
Vrating
p3243
I4
sVaspects
p3244
(lp3245
(dp3246
Vrating
p3247
I2
sVtype
p3248
Voverall
p3249
sasVlanguage
p3250
Ven
p3251
sVtext
p3252
VFor a civic auditorium the place is voluminous. The neighborhood could be suspect at night but with San Francisco City Hall being its neighbor. Things rarely gets too sketchy for a wise visitor.
p3253
sVauthor_name
p3254
VAJ Guest
p3255
sVauthor_url
p3256
Vhttps://plus.google.com/116998966393159336941
p3257
sVtime
p3258
I1416185236
sa(dp3259
Vrating
p3260
I5
sVaspects
p3261
(lp3262
(dp3263
Vrating
p3264
I3
sVtype
p3265
Voverall
p3266
sasVlanguage
p3267
Ven
p3268
sVtext
p3269
VLove this venue for concerts.  There's no assigned seating making everything first come first serve.  The main floor area gets kind of crazy, but if you want to dance like crazy, that will be your preferred location.  The balcony area has some great views, so if you want to be an old grandma like me and sit to enjoy a performer like Macklemore, definitely grab a spot up there.  \u000a\u000a
p3270
sVauthor_name
p3271
VAlyx Barranger
p3272
sVauthor_url
p3273
Vhttps://plus.google.com/106226941420364887072
p3274
sVtime
p3275
I1402430735
sa(dp3276
Vrating
p3277
I4
sVaspects
p3278
(lp3279
(dp3280
Vrating
p3281
I2
sVtype
p3282
Voverall
p3283
sasVlanguage
p3284
Ven
p3285
sVtext
p3286
VNice intimate atmosphere, decent sound quality
p3287
sVauthor_name
p3288
VChristopher Wren
p3289
sVauthor_url
p3290
Vhttps://plus.google.com/113525443008306473512
p3291
sVtime
p3292
I1412467647
sa(dp3293
Vrating
p3294
I1
sVaspects
p3295
(lp3296
(dp3297
Vrating
p3298
I0
sVtype
p3299
Voverall
p3300
sasVlanguage
p3301
Ven
p3302
sVtext
p3303
VWill never ever see any show there again. Terrible acoustics! A slap in the face to the memory of Bill Graham, who's probably rolling in his grave knowing they named it after him. Best show ever seen there was the then San Francisco Warriors where acoustics hardly matter.
p3304
sVauthor_name
p3305
VRaymond Alvarez
p3306
sVauthor_url
p3307
Vhttps://plus.google.com/113755175842025386880
p3308
sVtime
p3309
I1404245811
sa(dp3310
Vrating
p3311
I4
sVaspects
p3312
(lp3313
(dp3314
Vrating
p3315
I2
sVtype
p3316
Vappeal
p3317
sa(dp3318
Vrating
p3319
I2
sVtype
p3320
Vfacilities
p3321
sa(dp3322
Vrating
p3323
I2
sVtype
p3324
Vservice
p3325
sasVlanguage
p3326
Ven
p3327
sVtext
p3328
VMy girlfriend and I came here for the Matt & Kim/Passion Pit/Icona Pop concert a few weeks back, and it was an experience I will never forget. The facility itself was HUGE, and we got lost several times looking for the bathroom. But we made it out okay (thank god), and we enjoyed the concert. I would definitely hit up another concert here. 
p3329
sVauthor_name
p3330
VAaron Ho
p3331
sVauthor_url
p3332
Vhttps://plus.google.com/107917359086116635238
p3333
sVtime
p3334
I1364436036
sasVphotos
p3335
(lp3336
(dp3337
Vwidth
p3338
I1296
sVheight
p3339
I972
sVphoto_reference
p3340
VCnRoAAAA342touEUzXMYa0a28qPBUSr8UZmFLOWeYAXm8n_adqZOecJ53Oq9_o6F3oNyodjQZrJpf3CLed074nFiAHpYK3GXYEbKkdoRUXzUBS7R2kOmHvKSABat3uD76vuMxTg9Y2pD7FQ1YVxnhhRYYwsoPBIQYCuBYU_F0k6bKdil_hJSxBoUDJVYCosbPWUUsrjSsH1wsNs70j8
p3341
sVhtml_attributions
p3342
(lp3343
V<a href="https://plus.google.com/107552387286560569649">Walkerone SFO</a>
p3344
asasVurl
p3345
Vhttps://plus.google.com/112983588439759014729/about?hl=en-US
p3346
sVaddress_components
p3347
(lp3348
(dp3349
Vlong_name
p3350
V99
p3351
sVshort_name
p3352
V99
p3353
sVtypes
p3354
(lp3355
Vstreet_number
p3356
asa(dp3357
Vlong_name
p3358
VGrove St
p3359
sVshort_name
p3360
VGrove St
p3361
sVtypes
p3362
(lp3363
Vroute
p3364
asa(dp3365
Vlong_name
p3366
VSan Francisco
p3367
sVshort_name
p3368
VSF
p3369
sVtypes
p3370
(lp3371
Vlocality
p3372
aVpolitical
p3373
asa(dp3374
Vlong_name
p3375
VCalifornia
p3376
sVshort_name
p3377
VCA
p3378
sVtypes
p3379
(lp3380
Vadministrative_area_level_1
p3381
aVpolitical
p3382
asa(dp3383
Vlong_name
p3384
VUnited States
p3385
sVshort_name
p3386
VUS
p3387
sVtypes
p3388
(lp3389
Vcountry
p3390
aVpolitical
p3391
asa(dp3392
Vlong_name
p3393
V94102
p3394
sVshort_name
p3395
V94102
p3396
sVtypes
p3397
(lp3398
Vpostal_code
p3399
asasVscope
p3400
VGOOGLE
p3401
sVformatted_address
p3402
V99 Grove St, San Francisco, CA 94102, United States
p3403
sVid
p3404
V15a0f86c363cb1211712bfc6780ed314878db7f7
p3405
sVtypes
p3406
(lp3407
Vestablishment
p3408
asVicon
p3409
Vhttp://maps.gstatic.com/mapfiles/place_api/icons/generic_business-71.png
p3410
ssba(ispot
Spot
p3411
(dp3412
g3
I550
sg4
(dp3413
Vrating
p3414
I4
sVreference
p3415
VCoQBgAAAAMfN8QdOyCZK5xHjCjd5OLk0HHCmhAoPhj8ZIs9jHy5N3zPsXZdxsUu_YnlAcmJlYTsrDKbIbsO3NMLZIFf8R5-ghi7tLdVKqHygw0Uf9xr-5OShx2mVG1Ib16tDSlgCMZ2CN7zvLflmrk_hrWFWY_eERdnoWUTsmn9rLKVQvlCLEhDoxKN5PB611vuFvcog8jZDGhTNZC2RSK1IyM4Ooo4P_Mgjhq0dgw
p3416
sVplace_id
p3417
VChIJIbjkBuOAhYAR3OzY8Djb7Kc
p3418
sVgeometry
p3419
(dp3420
Vlocation
p3421
(dp3422
Vlat
p3423
F37.808521
sVlng
p3424
F-122.414994
sssVformatted_address
p3425
V47 Pier #2, San Francisco, CA 94133, United States
p3426
sVid
p3427
Vbd3b669b926cc6867951344f50962df8779d371f
p3428
sVopening_hours
p3429
(dp3430
Vweekday_text
p3431
(lp3432
VMonday: 10:00 am \u2013 6:00 pm
p3433
aVTuesday: 10:00 am \u2013 6:00 pm
p3434
aVWednesday: 10:00 am \u2013 6:00 pm
p3435
aVThursday: 10:00 am \u2013 6:00 pm
p3436
aVFriday: 10:00 am \u2013 6:00 pm
p3437
aVSaturday: Closed
p3438
aVSunday: Closed
p3439
asVopen_now
p3440
I00
sVperiods
p3441
(lp3442
(dp3443
Vclose
p3444
(dp3445
Vday
p3446
I1
sVtime
p3447
V1800
p3448
ssVopen
p3449
(dp3450
Vday
p3451
I1
sVtime
p3452
V1000
p3453
ssa(dp3454
Vclose
p3455
(dp3456
Vday
p3457
I2
sVtime
p3458
V1800
p3459
ssVopen
p3460
(dp3461
Vday
p3462
I2
sVtime
p3463
V1000
p3464
ssa(dp3465
Vclose
p3466
(dp3467
Vday
p3468
I3
sVtime
p3469
V1800
p3470
ssVopen
p3471
(dp3472
Vday
p3473
I3
sVtime
p3474
V1000
p3475
ssa(dp3476
Vclose
p3477
(dp3478
Vday
p3479
I4
sVtime
p3480
V1800
p3481
ssVopen
p3482
(dp3483
Vday
p3484
I4
sVtime
p3485
V1000
p3486
ssa(dp3487
Vclose
p3488
(dp3489
Vday
p3490
I5
sVtime
p3491
V1800
p3492
ssVopen
p3493
(dp3494
Vday
p3495
I5
sVtime
p3496
V1000
p3497
ssassVvicinity
p3498
V47 Pier #2, San Francisco
p3499
sVscope
p3500
VGOOGLE
p3501
sVwebsite
p3502
Vhttp://www.fishermanswharf.org/
p3503
sVutc_offset
p3504
I-480
sVuser_ratings_total
p3505
I144
sVphotos
p3506
(lp3507
(dp3508
Vwidth
p3509
I1265
sVheight
p3510
I949
sVphoto_reference
p3511
VCnRoAAAAD7w6HSMM-UVnXjfpI835cITHVW-gZyGjTS1Xv3pPbmFA2v8JWloV8kTqg8LNENdlvcLkuapkQrOeY1HYehB5ZkbhSIICdMhlB-TonQQLNAko8hGvPkCX6siKDUx6Yx9_QGnbg_LGxWlGPX1sRFc3TxIQS2d8Opboxg0kNweDtflUBRoU5Rr4ALSwMr4X9tdVxoIushjK8OE
p3512
sVhtml_attributions
p3513
(lp3514
V<a href="https://plus.google.com/116961417085332279422">Justus Hachmann</a>
p3515
asa(dp3516
Vwidth
p3517
I2048
sVheight
p3518
I1151
sVphoto_reference
p3519
VCnRqAAAAcAxKFcaD49uuua-b18jzWN9cWGvtdW-lhZFnKVDTcRng8JWMhyh9FYckz2aJD2AZjziyY18KlFKqa2yEzV3RHIDe31kY1qjWB1ednyFaaDK0QCsINAcqMzA-FJ5lIIa45jCSdYnzlzmu1Avk6HqCTRIQvlRkb30Yu_y-aKuqMtKmRxoU89I3bchCYextugFR2iiR6K_BvSg
p3520
sVhtml_attributions
p3521
(lp3522
V<a href="https://plus.google.com/113173931251785215708">Henning Nielsen</a>
p3523
asa(dp3524
Vwidth
p3525
I1632
sVheight
p3526
I1224
sVphoto_reference
p3527
VCnRoAAAA5EkEhzVZa_NkaJXGUNwSyCgQjYP_blawCuOWEcez8wQYH_6-ngSl5hba7_Ifq6aSSY9Cl3QEq-yzxDkKaI0Zrp6NbJAJzjYdS--TfaF4__eXAhlrQNCYs9k-uMxvUQtjxWOj8KxcP75iu1je1R7OIRIQhsZbrmDTSP4zU5fjC-v1rBoU_A7RpbcpDwngG_UzVs0YgPFegoM
p3528
sVhtml_attributions
p3529
(lp3530
V<a href="https://plus.google.com/100241671182590128413">\u9673\u5929\u5065</a>
p3531
asa(dp3532
Vwidth
p3533
I1440
sVheight
p3534
I1440
sVphoto_reference
p3535
VCoQBegAAAC9JOLZd3zw7GtYfI56wG7fReTPIlp9BhxRZNE7bp01LbXnX05f6SOgim8K6Grn1pjV4KJdUpIY752PuH1ycv5OTZ3_cPg0kHGDfSVEI_iWubreUDgQTEzkCg4AeaH2N4yASENzrUvqDHUiewYUZJxgWv_VXl15NCA6fG0c2oDtkEhAP6HJM2BlBodHBDBnmuToRGhQgKGf30LDbh6jWEfiTOAQvIonrUQ
p3536
sVhtml_attributions
p3537
(lp3538
V<a href="https://plus.google.com/113186450052791933529">Joseph D&#39;Angelo</a>
p3539
asa(dp3540
Vwidth
p3541
I2048
sVheight
p3542
I1151
sVphoto_reference
p3543
VCnRqAAAAlRRdT2wWNPAggOTh042_Ldqm-qlMCVv0lVfHWs1XBow0Kbk8WFp8fo3NyiWjxFaGSfl7vHJ7o3PFlGWBOnIZGaCFjAdperJStgSrUoPoh4aPP290YS-ICxNFnCOqLxLbQqwTc0qb-0JmoOhonpkwmRIQaM8SQ8ZBd22QOCLCf0zYZBoUiKnKvcOWn5angD3XYZqdMfG_qgY
p3544
sVhtml_attributions
p3545
(lp3546
V<a href="https://plus.google.com/113173931251785215708">Henning Nielsen</a>
p3547
asa(dp3548
Vwidth
p3549
I2048
sVheight
p3550
I1151
sVphoto_reference
p3551
VCnRqAAAAGFu6viM8plECOqsp5w6fG6yfcl1_mqYoSnCBKbKdWa2JNwuD2k7KwX33EXkrroKsRqWW3YrSul9YfgCzpMIppHLehtVmq6va4b5jdna31FXLF40GNXq8wEpv2FREhCdUstHiG8eZAeVjbZbdLJIVChIQKC9RsdVufYB3eXELdT5rghoUQjQPvv7mmCVQxgiibzEbyBMdZCA
p3552
sVhtml_attributions
p3553
(lp3554
V<a href="https://plus.google.com/113173931251785215708">Henning Nielsen</a>
p3555
asa(dp3556
Vwidth
p3557
I1344
sVheight
p3558
I894
sVphoto_reference
p3559
VCnRoAAAAzY-TkX06MB9_M_ZObm4nmR2h3tp_kQ6QQ5-TTAHM6-BvKcuSKigKpuTzzvcHgGoDwpY03Z89pROptNSCOUr7u_7Z_wTuDR7_Ib7hSH8xFn4gHzdtiXiiHIyCsDdUuAgFJ6Yj-JVNzJrGP3t1TQUBARIQ4x9rgWeitkD-j0-FlD3w4RoUeW262onDiybPxxRXHlln7p4fRIo
p3560
sVhtml_attributions
p3561
(lp3562
V<a href="https://plus.google.com/111187500888664100438">Mauro Conti</a>
p3563
asasVtypes
p3564
(lp3565
Vestablishment
p3566
asVicon
p3567
Vhttp://maps.gstatic.com/mapfiles/place_api/icons/generic_business-71.png
p3568
sVname
p3569
VFishermans Wharf Merchants Association
p3570
sVurl
p3571
Vhttps://plus.google.com/109444163259271298287/about?hl=en-US
p3572
sVadr_address
p3573
V<span class="street-address">47 Pier #2</span>, <span class="locality">San Francisco</span>, <span class="region">CA</span> <span class="postal-code">94133</span>, <span class="country-name">United States</span>
p3574
sVinternational_phone_number
p3575
V+1 415-674-7503
p3576
sVreviews
p3577
(lp3578
(dp3579
Vrating
p3580
I5
sVaspects
p3581
(lp3582
(dp3583
Vrating
p3584
I3
sVtype
p3585
Voverall
p3586
sasVlanguage
p3587
Ven
p3588
sVtext
p3589
VLoved it so much, but I was so cold.
p3590
sVauthor_name
p3591
VBasem Al Hawsawi
p3592
sVauthor_url
p3593
Vhttps://plus.google.com/100889550548081964266
p3594
sVtime
p3595
I1417500119
sa(dp3596
Vrating
p3597
I5
sVaspects
p3598
(lp3599
(dp3600
Vrating
p3601
I3
sVtype
p3602
Voverall
p3603
sasVlanguage
p3604
Ven
p3605
sVtext
p3606
VThe fisherman's warf can be a lot of fun if you've never been. There are some cool sea lions, street performers and decent food. It's always fun to people watch here.
p3607
sVauthor_name
p3608
VDarius Emrani
p3609
sVauthor_url
p3610
Vhttps://plus.google.com/108956134437636094004
p3611
sVtime
p3612
I1402303571
sa(dp3613
Vrating
p3614
I3
sVaspects
p3615
(lp3616
(dp3617
Vrating
p3618
I1
sVtype
p3619
Voverall
p3620
sasVlanguage
p3621
Ven
p3622
sVtext
p3623
VGood for tourists. A nightmare for locals. Go to see the sea lions. Avoid if you don't like crowds.
p3624
sVauthor_name
p3625
VJenny Gossett
p3626
sVauthor_url
p3627
Vhttps://plus.google.com/101040699501346495649
p3628
sVtime
p3629
I1401829584
sa(dp3630
Vrating
p3631
I5
sVaspects
p3632
(lp3633
(dp3634
Vrating
p3635
I3
sVtype
p3636
Vappeal
p3637
sa(dp3638
Vrating
p3639
I3
sVtype
p3640
Vfacilities
p3641
sa(dp3642
Vrating
p3643
I3
sVtype
p3644
Vservice
p3645
sasVlanguage
p3646
Ven
p3647
sVtext
p3648
VOne of the top spots to visit when your visiting SF. Fresh, delicious tasty food here. I like to get a bread bowl of clam chowder to snack on. Walk around and enjoy the view (if it is a sunny and relatively warm day, hard to come by sometimes in SF). There are a lot of great shops to look at too.
p3649
sVauthor_name
p3650
VPatrick Zhou
p3651
sVauthor_url
p3652
Vhttps://plus.google.com/114316762263467370524
p3653
sVtime
p3654
I1371424772
sa(dp3655
Vrating
p3656
I5
sVaspects
p3657
(lp3658
(dp3659
Vrating
p3660
I3
sVtype
p3661
Voverall
p3662
sasVlanguage
p3663
Ven
p3664
sVtext
p3665
VMust to see place in San Francisco. Sea Lions like this place, also. They have so intense social structure there that only the toughest sea lion can stay on a floating wharf. You must see it! It is authentic natural harmony in an urban atmosphere. 
p3666
sVauthor_name
p3667
VJuho Kastemaa
p3668
sVauthor_url
p3669
Vhttps://plus.google.com/113075632442410102250
p3670
sVtime
p3671
I1378862344
sasVformatted_phone_number
p3672
V(415) 674-7503
p3673
sVaddress_components
p3674
(lp3675
(dp3676
Vlong_name
p3677
V2
p3678
sVshort_name
p3679
V2
p3680
sVtypes
p3681
(lp3682
Vsubpremise
p3683
asa(dp3684
Vlong_name
p3685
V47
p3686
sVshort_name
p3687
V47
p3688
sVtypes
p3689
(lp3690
Vstreet_number
p3691
asa(dp3692
Vlong_name
p3693
VPier
p3694
sVshort_name
p3695
VPier
p3696
sVtypes
p3697
(lp3698
Vroute
p3699
asa(dp3700
Vlong_name
p3701
VSan Francisco
p3702
sVshort_name
p3703
VSF
p3704
sVtypes
p3705
(lp3706
Vlocality
p3707
aVpolitical
p3708
asa(dp3709
Vlong_name
p3710
VCalifornia
p3711
sVshort_name
p3712
VCA
p3713
sVtypes
p3714
(lp3715
Vadministrative_area_level_1
p3716
aVpolitical
p3717
asa(dp3718
Vlong_name
p3719
VUnited States
p3720
sVshort_name
p3721
VUS
p3722
sVtypes
p3723
(lp3724
Vcountry
p3725
aVpolitical
p3726
asa(dp3727
Vlong_name
p3728
V94133
p3729
sVshort_name
p3730
V94133
p3731
sVtypes
p3732
(lp3733
Vpostal_code
p3734
asa(dp3735
Vlong_name
p3736
V1004
p3737
sVshort_name
p3738
V1004
p3739
sVtypes
p3740
(lp3741
Vpostal_code_suffix
p3742
asassba(ispot
Spot
p3743
(dp3744
g3
I600
sg4
(dp3745
Vrating
p3746
F4.4
sVreference
p3747
VCnRlAAAAh-CuVgl1NCoqI8x9Q6bWJ3_BOE3swcvx_I-idxAfAsKmukFKiBvYVybMA48KzZzUTZf6TOMhmE-nZtG7qcLIqKEgxB6quAmj6ssDs3WPCU9JhBHvqUuIZ8HHU3os9aVVZj1EfjQoTWpkQgHRbHv7DBIQzXAPAy2AgjH7BqDgQ2XMXhoU414qhUxopQTEi1XskbbmFNifTqk
p3748
sVprice_level
p3749
I3
sVplace_id
p3750
VChIJO2EGsrmAhYARdDfDm-uVTQQ
p3751
sVformatted_address
p3752
V1805 Geary Blvd, San Francisco, CA 94115, United States
p3753
sVid
p3754
Vdacdf443ede9158fb1b26cf2ebedfe56514d98ce
p3755
sVformatted_phone_number
p3756
V(415) 346-6000
p3757
sVvicinity
p3758
V1805 Geary Blvd, San Francisco
p3759
sVscope
p3760
VGOOGLE
p3761
sVwebsite
p3762
Vhttp://www.thefillmore.com
p3763
sVutc_offset
p3764
I-480
sVuser_ratings_total
p3765
I96
sVphotos
p3766
(lp3767
(dp3768
Vwidth
p3769
I480
sVheight
p3770
I360
sVphoto_reference
p3771
VCnRoAAAA1-oUy4qUSkmvneq6l-cBdWHUKn0khUI_n8SaseGL13j-KnHFpfp1mSaXhzzVA9CHQOEYr4rqBrDwvGVriIaN7cuslIB3TyJDVoYu4YKpFYScg01uoxV_6xEqEz8ORMaCCvFVTJ-WAqoRGYQrJnGUKRIQ6LplBXECAAYC3fVtqIvaSxoU_yNjDlWpozeASTWM7JWjCmyaJAw
p3772
sVhtml_attributions
p3773
(lp3774
V<a href="https://plus.google.com/103325079438884164751">Nacho mena</a>
p3775
asa(dp3776
Vwidth
p3777
I640
sVheight
p3778
I480
sVphoto_reference
p3779
VCnRoAAAAG0FjBb8BBp25BrIx0LQbOYHUSvtpzAJ69VpmvHUx1L636RFo7IYgLq4d2HpOifPQT30QnrIE-gK8tOknMMcYy1fvFDkV1jIVcicRDupwWAv16goTjzBjwdgj8SM6dj0ZFoP0APDi2VD7Hu4NWy6LEhIQgSmX4ZFpmywadQ0MInbR7BoUJI5dQVvBPrsTUaezf1xCsvrLWRA
p3780
sVhtml_attributions
p3781
(lp3782
V<a href="https://plus.google.com/113828379409464300532">George Resburg</a>
p3783
asa(dp3784
Vwidth
p3785
I960
sVheight
p3786
I540
sVphoto_reference
p3787
VCnRoAAAAc3E9TAwUt8WS1_mvGJgKiMFkrYGRVgMoBw-eEbI_y2YwshAhmTDKYz3nUwcx7r4mP1Q9BoAJJSs1gV9Mduveso1m1hRwYbOxtd1J2M471UHc8UqmF2mgN8RhnR-s3loQBtv3HWL00kZsDMSM4KWljhIQn5HzmjB4H3GRqunMcZqcMRoUvvslgTUD903K4u2tf7obqZO6Z3Y
p3788
sVhtml_attributions
p3789
(lp3790
V<a href="https://plus.google.com/103325079438884164751">Nacho mena</a>
p3791
asa(dp3792
Vwidth
p3793
I640
sVheight
p3794
I480
sVphoto_reference
p3795
VCnRoAAAAniUul2w0NmO2ZHtGOMP5TiGvjb9DQNJnMjID1FsfaQjBKamuoUBMzh0c2wtyKBmHN2idpgauKBd3MGQtTh2Ary4sbjumeqZ9E4h4YOMFQLFmtFEVc5Io3JP3k0D6nPBvla3-jgEhH9XMw16rrdc6sBIQcoO6wZraes_xIiL2bQ76choU0pQkn1bCkWsPNCKWbYNOnj4jOAk
p3796
sVhtml_attributions
p3797
(lp3798
V<a href="https://plus.google.com/113828379409464300532">George Resburg</a>
p3799
asa(dp3800
Vwidth
p3801
I1024
sVheight
p3802
I768
sVphoto_reference
p3803
VCnRsAAAA9slRxY70B653wT9Pj5o4Lm6FnHnvyERY5ABug9xV3W6UnRxku5_hSZXGaGS3RCmeTWSA6wXEstaE2l4IugHnPE-leeF1fQOkdHSu2JTKTuWZMGmQWAYifk8Tye9RxaZmvCHttQz9LFTqjKMLc4Fh8xIQeIqSLdED2TXfxjKW-p-agxoUw31y8WR1JxNc05YxKyC4qCqGo4k
p3804
sVhtml_attributions
p3805
(lp3806
V<a href="https://plus.google.com/108421535574956083050">Paul Green</a>
p3807
asasVtypes
p3808
(lp3809
Vstore
p3810
aVbar
p3811
aVestablishment
p3812
asVicon
p3813
Vhttp://maps.gstatic.com/mapfiles/place_api/icons/bar-71.png
p3814
sVname
p3815
VThe Fillmore
p3816
sVurl
p3817
Vhttps://plus.google.com/103616978678211573959/about?hl=en-US
p3818
sVadr_address
p3819
V<span class="street-address">1805 Geary Blvd</span>, <span class="locality">San Francisco</span>, <span class="region">CA</span> <span class="postal-code">94115</span>, <span class="country-name">United States</span>
p3820
sVinternational_phone_number
p3821
V+1 415-346-6000
p3822
sVreviews
p3823
(lp3824
(dp3825
Vrating
p3826
I4
sVaspects
p3827
(lp3828
(dp3829
Vrating
p3830
I2
sVtype
p3831
Voverall
p3832
sasVlanguage
p3833
Ven
p3834
sVtext
p3835
VSuper fun venue - decent beer selection, cool decor, great bands. What more could you ask for?!\u000a\u000aI've seen a handful of shows here and have always been pleased with not having a huge wait to get in or the usual cluster that can come with some concerts. My most memorable experience was Capital Cities which was such a great show and they even did an additional DJ set immediately after the finished. It was such a great time and the venue provided lots of space to be able to dance and enjoy yourself!
p3836
sVauthor_name
p3837
VCristina Salhuana
p3838
sVauthor_url
p3839
Vhttps://plus.google.com/115898238865863907648
p3840
sVtime
p3841
I1412702829
sa(dp3842
Vrating
p3843
I5
sVaspects
p3844
(lp3845
(dp3846
Vrating
p3847
I3
sVtype
p3848
Voverall
p3849
sasVlanguage
p3850
Ven
p3851
sVtext
p3852
VExtremely cool venue that attracts some great acts despite its small size. Fox Theatre and associated arenas are too big for my taste so whenever a decent band comes here I jump on the opportunity. There's no bad seat.
p3853
sVauthor_name
p3854
VJonathan Schoonhoven
p3855
sVauthor_url
p3856
Vhttps://plus.google.com/102046546186394019356
p3857
sVtime
p3858
I1413263799
sa(dp3859
Vrating
p3860
I5
sVaspects
p3861
(lp3862
(dp3863
Vrating
p3864
I3
sVtype
p3865
Voverall
p3866
sasVlanguage
p3867
Ven
p3868
sVtext
p3869
VGreat acoustic and can see the show fine from just about anywhere. Haven't been there in ages. Last shows Bo Didley and Diamanda Galas. Fortunate to catch it in the very old days. Saw Cream back to back weekends and they were second bill both times for Paul Butterfield Blues Band and The Electric Flag(Michael Bloomfield's band just after breaking up with Paul. What an Exceptional Place!
p3870
sVauthor_name
p3871
VRaymond Alvarez
p3872
sVauthor_url
p3873
Vhttps://plus.google.com/113755175842025386880
p3874
sVtime
p3875
I1404761978
sa(dp3876
Vrating
p3877
I5
sVaspects
p3878
(lp3879
(dp3880
Vrating
p3881
I3
sVtype
p3882
Voverall
p3883
sasVlanguage
p3884
Ven
p3885
sVtext
p3886
VThe Fillmore is totally legendary. When you go to a concert there you immediately understand why they have been such an iconic venue and hosted the high caliber of acts that they have. The show floor is intimate and there literally isn't a bad spot in the house. I imagine that The Fillmore would make even a mediocre band excellent live. I might even consider going to see Keller Williams again if he were playing there. 
p3887
sVauthor_name
p3888
VDave Beaudoin
p3889
sVauthor_url
p3890
Vhttps://plus.google.com/112896630675956599355
p3891
sVtime
p3892
I1400650751
sa(dp3893
Vrating
p3894
I5
sVaspects
p3895
(lp3896
(dp3897
Vrating
p3898
I3
sVtype
p3899
Voverall
p3900
sasVlanguage
p3901
Ven
p3902
sVtext
p3903
VCool and classic SF concert venue. General admission only, so if it's a band you really care about being up close with (and you can get CLOSE if you want), be sure to get there early. If you don't care about the band, get there whenever and go upstairs to have a drink and watch from the balcony.
p3904
sVauthor_name
p3905
VBrad DeBat
p3906
sVauthor_url
p3907
Vhttps://plus.google.com/112354800941326928432
p3908
sVtime
p3909
I1405217804
sasVgeometry
p3910
(dp3911
Vlocation
p3912
(dp3913
Vlat
p3914
F37.783999
sVlng
p3915
F-122.433017
sssVaddress_components
p3916
(lp3917
(dp3918
Vlong_name
p3919
V1805
p3920
sVshort_name
p3921
V1805
p3922
sVtypes
p3923
(lp3924
Vstreet_number
p3925
asa(dp3926
Vlong_name
p3927
VGeary Blvd
p3928
sVshort_name
p3929
VGeary Blvd
p3930
sVtypes
p3931
(lp3932
Vroute
p3933
asa(dp3934
Vlong_name
p3935
VWestern Addition
p3936
sVshort_name
p3937
VWestern Addition
p3938
sVtypes
p3939
(lp3940
Vneighborhood
p3941
aVpolitical
p3942
asa(dp3943
Vlong_name
p3944
VSan Francisco
p3945
sVshort_name
p3946
VSF
p3947
sVtypes
p3948
(lp3949
Vlocality
p3950
aVpolitical
p3951
asa(dp3952
Vlong_name
p3953
VSan Francisco County
p3954
sVshort_name
p3955
VSan Francisco County
p3956
sVtypes
p3957
(lp3958
Vadministrative_area_level_2
p3959
aVpolitical
p3960
asa(dp3961
Vlong_name
p3962
VCalifornia
p3963
sVshort_name
p3964
VCA
p3965
sVtypes
p3966
(lp3967
Vadministrative_area_level_1
p3968
aVpolitical
p3969
asa(dp3970
Vlong_name
p3971
VUnited States
p3972
sVshort_name
p3973
VUS
p3974
sVtypes
p3975
(lp3976
Vcountry
p3977
aVpolitical
p3978
asa(dp3979
Vlong_name
p3980
V94115
p3981
sVshort_name
p3982
V94115
p3983
sVtypes
p3984
(lp3985
Vpostal_code
p3986
asassba.