(lp0
(ispot
Spot
p1
(dp2
S'duration'
p3
I0
sS'travel_time'
p4
(dp5
VCoit Tower
p6
F0.637465564738292
sVThe Fairmont San Francisco
p7
F0.6104683195592286
sVde Young Museum
p8
F0.6308539944903582
sVCalifornia Academy of Sciences
p9
F0.5977961432506887
sVSan Francisco Marriott Marquis
p10
F0.7289256198347107
sVBayview
p11
F1.0
sVAT&T Park
p12
F0.8336088154269973
sVPalace Hotel, a Luxury Collection Hotel, San Francisco
p13
F0.6859504132231405
sVHilton San Francisco Union Square
p14
F0.6848484848484848
ssS'data'
p15
(dp16
Vwebsite
p17
Vhttp://www.nps.gov/goga/index.htm
p18
sVrating
p19
F4.7
sVutc_offset
p20
I-480
sVuser_ratings_total
p21
I102
sVname
p22
VGolden Gate National Recreation Area
p23
sVreference
p24
VCoQBfgAAACVzAk7iV4VchhNXw308fga_B9AfJXw06Ip2xyhK-DlTCXiD3_fBe9pw5zOyGZExzaZ00RUkujvaMFxvGtzmAHc13JL0ygkITqRtwkpiffKvpVj4W6nS0hdyWPp6NpOaN4pXjiSZIGTqFxQ02hdZF700QpYn-5ddO-zjVWk5kT3rEhDmzDkoYDYoYZ31AvE5KKHBGhRwuSOfgNYO5ZCkDeHLkwVALmZexA
p25
sVphotos
p26
(lp27
(dp28
Vphoto_reference
p29
VCnRoAAAAViuWEQ71ZwK19KSSKzYCK2xYpB4-Tpa6pmTEvVM013I8JB7ZKZL3hb1wPKjnXxxRlgRWdF_a_pLSjxaijA52d0v5c6LJfw85Ok1_ENhfUB2uwjI5tmz8vfGa6TAGT1qWzG_XNtFWFLqWuJRYVlpiaxIQHE0rnMRaerzOBc58NhbhixoUj5wo2YPdm1VsxS4cXT86NHzYtUc
p30
sVwidth
p31
I1280
sVhtml_attributions
p32
(lp33
V<a href="https://plus.google.com/111000134307967374586">Eldon Henry</a>
p34
asVheight
p35
I960
sa(dp36
Vphoto_reference
p37
VCpQBiwAAACEJxIA8XACTp9JgofUrQUTEqczs5eC7mf1xCNtiglMaNk_bSE5nF6ILSxfuk6Z2jkFNQG8W488YaJNqKw5lf9nBsPvLIr4W1D_J4zWBOAm_XtUGahtiaiK_9FhJRP6LphoOenKBddfCEt982rhF7q_tORs3_wzf-i23pLe1D06y5Urf4EriPxXehLMuwSoeYBIQXLj41rryewEiqabur0S90xoUUYS_dZ8UKOptc1P9vNaWA-uk-Eg
p38
sVwidth
p39
I1265
sVhtml_attributions
p40
(lp41
V<a href="https://plus.google.com/106518442561481308596">Elliot Britton</a>
p42
asVheight
p43
I949
sa(dp44
Vphoto_reference
p45
VCpQBiwAAAMf5mjX9EkEP0CbPxPiFoeMo728VG3Rci39jwQoOJtMisgckkGufYy_qoh_-iTmLebNJFx5szEnaXrz6NkzDg2U-umthcDxzEnYYE82Aq4BrQdGN-laeEB4KP_6bSOUA9PVkZ-KGyZurF_olrHqcC9MmxhoEsk1P7RcK26wM5HTWsEAKSPOF2qgv48SP5k5nLRIQUUqQyUT0ox_igm3Hgf0yoRoU68caFIUyr_v39KwWtyG1ALRwneU
p46
sVwidth
p47
I1296
sVhtml_attributions
p48
(lp49
VFrom a Google User
p50
asVheight
p51
I972
sa(dp52
Vphoto_reference
p53
VCnRoAAAArWMxjRLzZT03rCXrx0KTPFFhnLAS5mNY65Ki299N4_NncQrsuufcxPnG3K3aXmdmaFR1959zzsbZ6d3_NAcaMSI2dNAEDgXbLJpEQa4wvMWrYhDXPYmArMNQYa9bKxrRUxKpIG6kJB3K1BP5DalMhBIQZ8CNez-2ZlEeZ7S9Jp-QaxoUnQ64Sb4hj-eq8T8dFrZ7W4Wnx8s
p54
sVwidth
p55
I2000
sVhtml_attributions
p56
(lp57
V<a href="https://plus.google.com/116913548795972454248">Zhongliang Xu</a>
p58
asVheight
p59
I1125
sa(dp60
Vphoto_reference
p61
VCpQBiwAAAElEKRTSsWtuY3B5UhZ5oj_3wv56YUQm_5DSBnvQv0nb01ditIeHo5V-V0w_CZAue_ARBBnJOaLckpC6tsOUn-iziIf3I8_hKwvhQz_VJTZao_ID033iMFfVDSJNuDgaQXSyEcrxljQLt2ysclO5eH_IehojpaQspuJTaU1r5a1jVGVia0Xjszw-f84mFUFfihIQWY_MwgzjCnjNg37H7h7VBRoUEWlbAjqq3aCYzkxmKGrwNiaetuA
p62
sVwidth
p63
I1344
sVhtml_attributions
p64
(lp65
V<a href="https://plus.google.com/106965600540781805193">Jose C</a>
p66
asVheight
p67
I760
sa(dp68
Vphoto_reference
p69
VCnRoAAAAS1F0Y096T3MwxWfcgdnv8IcxT9YiQq1tBcyv5dvujdro_So_kxIvQgeAk_pGX-nSFOUOpIV1dzqjQWWlOfWJxWbOa4OIMtwi-QURIEahfdLMkV2FHW7ArjKyxpbVAF9sTTt7RkJypmzLgjGoh_QWiRIQFrt2RkbfBdnG4Qz7DlICjxoUgz3DK7gPI9BDWSmlknKgksBtA1Y
p70
sVwidth
p71
I2048
sVhtml_attributions
p72
(lp73
V<a href="https://plus.google.com/106521304996220499103">Ming Mak</a>
p74
asVheight
p75
I1536
sa(dp76
Vphoto_reference
p77
VCpQBiwAAAPVaxZ0UnbklbQlBSPAbEKtEgzgGOVYdBIfhZwd7XHh2jzy5jINiU0NRXf_5Ze2QFJlio9XKCwbi_fspQFQBbMxMcP88GwLNzkS1JCXXuYRxOkozEAhvc1q65Hc3_mztRY_YMRBdwrzb0N6PfS-248h8VEJo8XYZ4imc2Sp2ATLapxz3ISyd946fl5o1tlixoBIQBKX1HVL3wUqYr0nFmNtbCBoUtePbPPVO7YU0gO3DNNJdIdXMOSg
p78
sVwidth
p79
I1296
sVhtml_attributions
p80
(lp81
V<a href="https://plus.google.com/113872060182239393125">Srimahesh Talatam</a>
p82
asVheight
p83
I972
sa(dp84
Vphoto_reference
p85
VCnRoAAAAZI5CIdX2r6tOTEdKlOAwkArWfb38gJINMiUZWZzE9KVv77-Or_SnxFeeh8Q_zoWPyrKpYu4BEF7rEespZtqfzVTbZf-6TfIlijHnChfTyvBeAj-ea8OtsCrQz8_LvUhmh3az4LjRdn-JGJhzcBVf5RIQlVdvTXoMkzkJ0aa_y2gFbRoUFRCZdVmouzraB8DJo2wNc1U7CWA
p86
sVwidth
p87
I816
sVhtml_attributions
p88
(lp89
V<a href="https://plus.google.com/113221385464453900204">william vidal</a>
p90
asVheight
p91
I459
sa(dp92
Vphoto_reference
p93
VCpQBiwAAANlrGC_Wzm3X5wmz2a7vTLb8wttOrpg8LBGI6v6wqltES0QIs3VipnGHpBwNqDQrACJHEhNa-Le09FNA2BU1Fe9w4qyIETy1l_plv7jEXYQ1T_HHIPPM_S1XHxAwkTiFeZ_DezP2KuDVhkySLZqooT5cNykkTH8wLMnlCrPuF5EETACE5FKZwEV4gmGfvY8OZhIQiKsipC4AFozOkA__wOmWaRoUKSG7N2btwfbwdDzv3Yw7rojGOV4
p94
sVwidth
p95
I1296
sVhtml_attributions
p96
(lp97
V<a href="https://plus.google.com/113872060182239393125">Srimahesh Talatam</a>
p98
asVheight
p99
I972
sa(dp100
Vphoto_reference
p101
VCnRvAAAAPqSQmmaKgBY5S-48KNUlFiKkP0VWN-yr47iYUGVsWb2CoEdvPmM78GsvZazkAhX4ApDpLDbkSY84CvURboqj2TR6JW4UDDXNQbebPaibvV8jTRaYWbDdoTKYukYP3CScdOWup3nkPU-_xYD9PxElyBIQAtyBi4dXjfs5AR5yOY7NqxoU26iXjljfPNhi9XonCogP2DqOUU4
p102
sVwidth
p103
I4000
sVhtml_attributions
p104
(lp105
V<a href="https://plus.google.com/109363976560217503323">Steven La Vinger</a>
p106
asVheight
p107
I3000
sasVgeometry
p108
(dp109
Vlocation
p110
(dp111
Vlat
p112
F37.834504
sVlng
p113
F-122.504792
sssVadr_address
p114
V<span class="locality">San Francisco</span>, <span class="region">CA</span> <span class="postal-code">94123</span>, <span class="country-name">United States</span>
p115
sVplace_id
p116
VChIJxdYX1GGOhYARiIigVMJ9TOY
p117
sVinternational_phone_number
p118
V+1 415-561-4700
p119
sVvicinity
p120
VSan Francisco
p121
sVreviews
p122
(lp123
(dp124
Vrating
p125
I5
sVaspects
p126
(lp127
(dp128
Vrating
p129
I3
sVtype
p130
Voverall
p131
sasVlanguage
p132
Ven
p133
sVtext
p134
VGreat hilly cycling with not too many cars. Very windy and steep in places so if you're a novice then take note of the signs that indicate the grade of a hill.
p135
sVauthor_name
p136
VDavid Doherty
p137
sVauthor_url
p138
Vhttps://plus.google.com/101425938795714023572
p139
sVtime
p140
I1410649425
sa(dp141
Vrating
p142
I5
sVaspects
p143
(lp144
(dp145
Vrating
p146
I3
sVtype
p147
Voverall
p148
sasVlanguage
p149
Ven
p150
sVtext
p151
VAbsolutely beautiful, hilly wilderness area just north of the city.  I ran a half marathon here in March and loved it. Lots of hills but wonderful, rewarding views along the ridge-line.  I'm hoping to come back to take some pictures of the city / Sutro tower from here.
p152
sVauthor_name
p153
VMax Heinritz
p154
sVauthor_url
p155
Vhttps://plus.google.com/102217125735823374958
p156
sVtime
p157
I1396213984
sa(dp158
Vrating
p159
I5
sVaspects
p160
(lp161
(dp162
Vrating
p163
I3
sVtype
p164
Voverall
p165
sasVlanguage
p166
Ven
p167
sVtext
p168
VIs one of the best tours and fun in SF.\u000aBotanical Garde, Museums, and beautiful place if you would like have cup of tea in the Japan Garden.
p169
sVauthor_name
p170
VCarol E
p171
sVauthor_url
p172
Vhttps://plus.google.com/106028332943283658842
p173
sVtime
p174
I1403275611
sa(dp175
Vrating
p176
I5
sVaspects
p177
(lp178
(dp179
Vrating
p180
I3
sVtype
p181
Voverall
p182
sasVlanguage
p183
Ven
p184
sVtext
p185
VBeautiful area with some nice hikes that is quite accessible from San Francisco.  Though, if you have time for the trip, mount tam to the north is even nicer.
p186
sVauthor_name
p187
VAndrew Duchi
p188
sVauthor_url
p189
Vhttps://plus.google.com/117034590178289719142
p190
sVtime
p191
I1390611829
sa(dp192
Vrating
p193
I5
sVaspects
p194
(lp195
(dp196
Vrating
p197
I3
sVtype
p198
Vquality
p199
sasVlanguage
p200
Ven
p201
sVtext
p202
VEverytime I come down to the Bay Area, is to show my visiting friends actually how beautiful this area is.\u000aIt's been given a bad rep over the years, mainly to peoples lifestyles. Well lifestyles are a huge part of life, if we can only enjoy ourselves because it matches only the way we think it should be, I suggest you stay home!\u000aSan Francisco has many beautiful places to go; such as any of the old Military Forts, Buildings, parks, museums, scenery for the photo enthuisists..\u000aCome and enjoy the coast line and see history unfold all around you!
p203
sVauthor_name
p204
VEldon Henry
p205
sVauthor_url
p206
Vhttps://plus.google.com/111000134307967374586
p207
sVtime
p208
I1361392098
sasVformatted_phone_number
p209
V(415) 561-4700
p210
sVurl
p211
Vhttps://plus.google.com/100583653707384517268/about?hl=en-US
p212
sVscope
p213
VGOOGLE
p214
sVaddress_components
p215
(lp216
(dp217
Vlong_name
p218
VSan Francisco
p219
sVtypes
p220
(lp221
Vlocality
p222
aVpolitical
p223
asVshort_name
p224
VSF
p225
sa(dp226
Vlong_name
p227
VCalifornia
p228
sVtypes
p229
(lp230
Vadministrative_area_level_1
p231
aVpolitical
p232
asVshort_name
p233
VCA
p234
sa(dp235
Vlong_name
p236
VUnited States
p237
sVtypes
p238
(lp239
Vcountry
p240
aVpolitical
p241
asVshort_name
p242
VUS
p243
sa(dp244
Vlong_name
p245
V94123
p246
sVtypes
p247
(lp248
Vpostal_code
p249
asVshort_name
p250
V94123
p251
sa(dp252
Vlong_name
p253
V0022
p254
sVtypes
p255
(lp256
Vpostal_code_suffix
p257
asVshort_name
p258
V0022
p259
sasVformatted_address
p260
VSan Francisco, CA 94123, United States
p261
sVid
p262
Va086663663c933df7081560fc939b31d45bd4df9
p263
sVtypes
p264
(lp265
Vpark
p266
aVestablishment
p267
asVicon
p268
Vhttp://maps.gstatic.com/mapfiles/place_api/icons/generic_business-71.png
p269
ssba(ispot
Spot
p270
(dp271
g3
I50
sg4
(dp272
g6
F0.6369146005509642
sg23
F1.0
sg9
F0.6022038567493113
sg10
F0.43471074380165287
sg7
F0.4887052341597796
sg8
F0.6352617079889807
sg12
F0.29476584022038566
sg13
F0.4385674931129477
sg14
F0.4209366391184573
ssg15
(dp273
Vname
p274
g11
sVreference
p275
VCpQBggAAAFe1waYP4kcJKl58DsuyCetsAtG-_xyq4_g_BUTDJ18PUOf9pGLIvNDY8pxW5RK4VJkmACNHzz4WFID1i8Horef4aof-xHCf3I-TcmvHE0WGL9lbtqM1wBneMYaIAdoE7HWzBDUobz4AvW0jUklpWgoKS1U8JKs1udvqAE_nIvCayPS_SNnpYtp3rYc5iRuqBBIQadhJlQXwE7hMuUxvQd2aNBoUU1ft180vcteChOrrTVrWKSqo4T8
p276
sVgeometry
p277
(dp278
Vlocation
p279
(dp280
Vlat
p281
F37.730416
sVlng
p282
F-122.384424
ssVviewport
p283
(dp284
Vnortheast
p285
(dp286
Vlat
p287
F37.7522488
sVlng
p288
F-122.3569669
ssVsouthwest
p289
(dp290
Vlat
p291
F37.7083844
sVlng
p292
F-122.4080732
ssssVadr_address
p293
VBayview, <span class="locality">San Francisco</span>, <span class="region">CA</span>, <span class="country-name">USA</span>
p294
sVplace_id
p295
VChIJVTQNsxt_j4ARYEXVGCqV7Mw
p296
sVvicinity
p297
VSan Francisco
p298
sVurl
p299
Vhttps://maps.google.com/maps/place?q=Bayview,+San+Francisco,+CA,+USA&ftid=0x808f7f1bb30d3455:0xccec952a18d54560
p300
sVscope
p301
VGOOGLE
p302
sVaddress_components
p303
(lp304
(dp305
Vlong_name
p306
VBayview
p307
sVtypes
p308
(lp309
Vneighborhood
p310
aVpolitical
p311
asVshort_name
p312
VBayview
p313
sa(dp314
Vlong_name
p315
VSan Francisco
p316
sVtypes
p317
(lp318
Vlocality
p319
aVpolitical
p320
asVshort_name
p321
VSF
p322
sa(dp323
Vlong_name
p324
VSan Francisco County
p325
sVtypes
p326
(lp327
Vadministrative_area_level_2
p328
aVpolitical
p329
asVshort_name
p330
VSan Francisco County
p331
sa(dp332
Vlong_name
p333
VCalifornia
p334
sVtypes
p335
(lp336
Vadministrative_area_level_1
p337
aVpolitical
p338
asVshort_name
p339
VCA
p340
sa(dp341
Vlong_name
p342
VUnited States
p343
sVtypes
p344
(lp345
Vcountry
p346
aVpolitical
p347
asVshort_name
p348
VUS
p349
sasVformatted_address
p350
VBayview, San Francisco, CA, USA
p351
sVid
p352
V918511e2a071071132a372542250079ff49fe0a9
p353
sVtypes
p354
(lp355
Vneighborhood
p356
aVpolitical
p357
asVicon
p358
Vhttp://maps.gstatic.com/mapfiles/place_api/icons/geocode-71.png
p359
ssba(ispot
Spot
p360
(dp361
g3
I100
sg4
(dp362
g6
F0.1630853994490358
sg23
F0.6027548209366391
sg8
F0.456198347107438
sg9
F0.4231404958677686
sg10
F0.1068870523415978
sg11
F0.46887052341597796
sg12
F0.2633608815426997
sg13
F0.09421487603305785
sg14
F0.06611570247933884
ssg15
(dp363
Vwebsite
p364
Vhttp://www.fairmont.com/san-francisco
p365
sVrating
p366
F4.2
sVutc_offset
p367
I-480
sVuser_ratings_total
p368
I216
sVname
p369
g7
sVreference
p370
VCoQBcwAAAL4AyuAAVF_vP8mQIIL1Bf0wLCCUQZt0TAqYJGK22PKy_UQ8dyNIqksrjNdFVZbogY3WCY-aYTeo0hawuYOL2OpfJC91Bk7WYJY_-t92EnMEQ34xT2jvLWkeF9Jc7PqK4yEyzizYNawsZ8Q04JBlYqFRBPPIpGeqdskIy8GXtCyjEhAKVSJ5ed6qC_iOhCLbo522GhRbFy4eo9TkJT7wZw5O7kaHyTZMBw
p371
sVphotos
p372
(lp373
(dp374
Vphoto_reference
p375
VCoQBfAAAAFX2xtlGlZSky_bDHtmRYJSIuV-mqOynNPyU9ykuY7hXrX9nPIhM_JUMIk32HJF7Md0hFMRcQ68xyuWDzj-mWcAgix78aBEM7i0G1V_b9DFW6u9j5GifUCNOEewmRiNEgxo50glG0edLVqQxSvVozM2980s6Wnou6B8Fq0aN2Az2EhArUlXNaYG9Zp4LXDh4-dxgGhQkKj9__hGAwE2cTKj4d9H1m98CDw
p376
sVwidth
p377
I576
sVhtml_attributions
p378
(lp379
sVheight
p380
I574
sa(dp381
Vphoto_reference
p382
VCnRqAAAAJI36pJuEiB-33Ir6t9jZj2AzXGsV4BZQGMKlSDetFnIbCd2VZA5uupsD2aeyWdHPLgCMnRsynelKFRO8jX-YUOwVlp-EF2aIexMD_QvTwBmM8zk4n_P8CXZJOLw6pSZGOAUDeSbNHtTcz9cQMh035RIQUuNsJ6mIec-xGeALlrnUchoUB3ckcPUm3E7L9cipsfiIJp53Q3s
p383
sVwidth
p384
I1190
sVhtml_attributions
p385
(lp386
sVheight
p387
I960
sa(dp388
Vphoto_reference
p389
VCnRnAAAAkRSd9XngVMiCPo9rRHG3FXW972_8iGW9saEuPHZaITQHeKk3hilY4x0xS1bDIgyzfWCDD09WL4cb7cgwb4W--ze8nX2bw73mZJF2OH5YipBkvQuYvaUVOTM7qInGv1auKhENJAU-eDVALD1huqhSBhIQhQua8XBJto6NZ944YXK8qhoUIHvY1KvF9M6aVJ7ziilAU1f3M5o
p390
sVwidth
p391
I1280
sVhtml_attributions
p392
(lp393
sVheight
p394
I645
sa(dp395
Vphoto_reference
p396
VCnRnAAAAjdUJW6gdT3vWSzd7BbtMM6QkgRdZyBybGQaO_VpBtYjxkbAYbmpIA5ea2JH0Q9cyBeBiscsxTdCUvsH34v1ZPVOGFmkcoSyvbhkFueHL1RygSZLXBVtDqGF1yxDiKM92vbxWMnbEVQQdSaDKrac1PRIQAyV22Q3e1Ojm3zQUxMr1nBoUYN-2lowV8OLimEmDdkpihkkMPv0
p397
sVwidth
p398
I1200
sVhtml_attributions
p399
(lp400
sVheight
p401
I800
sa(dp402
Vphoto_reference
p403
VCnRnAAAATa5bImz-VgwGZVMckg2EwIqK_bil5Wi0h_E7WuRTBxLEIytcx62lHLE1hobH-4hR8pL94RuPFJ2BifyOZEBmhKi0tDe2KQmtcgw1_6JlNO23m4NpUBmkEHt-fMy7U0Ufri0PTolpMjslEhqFA7r9yxIQZweyt4TDowNC6IRjR74ALBoUts6r-WXnDryIyUEG6kCAY5Ewb8w
p404
sVwidth
p405
I1200
sVhtml_attributions
p406
(lp407
sVheight
p408
I800
sa(dp409
Vphoto_reference
p410
VCnRnAAAAXfVVfmwq8b6YTtDY6bREeAFS9BEq0s6csFuI0MWbiod0msP-Fwta_5jVf-AdlrHDDxSNKH248anynHeauQdUKmFdcjHD9u5qoA1hbTFyZKUjXExjo_qd7h8_6Xj38mJea9AGABUxk-4WJ3xR9EwwnBIQlfgHlDr6BaTKVUCiXZ7LKRoUiCG0WCFo_fRwCXkpP-eoy-zDmzg
p411
sVwidth
p412
I1200
sVhtml_attributions
p413
(lp414
sVheight
p415
I800
sa(dp416
Vphoto_reference
p417
VCnRnAAAA7CSIhKx4ArDAoHgVQph1uYQThSeVcCw7a5XFCTLayU3wOqQ_V_mf7QFmAp-JKAishvEB2mucVuJE0rN9ykWTBlGDZePzht7DprzsGV1FEZlCQeB7aPgsdrmArltCSu9SjrWR4wIM0h7JDVNrPGbDwBIQ4kVly4GhVyEyuwvIGocw0RoUgeRn7CHHU5j6690Nrx00rJvPFT4
p418
sVwidth
p419
I1200
sVhtml_attributions
p420
(lp421
sVheight
p422
I800
sa(dp423
Vphoto_reference
p424
VCnRnAAAAepkcefOKM9ONPlnoWRMie5hhCfoxn4eTxvplN6aT7w3_tQks8Ynw8t1QLPmfR9VxurSK6bT9DXeL_e_icdl_bocOUyXFGfbgf2_T1CzbS8xIGbKUkbz_KdEs82qyd1o-TPaAOpGNb8YHmkm6uVpmeRIQheBdbNoTHOAr4E9am1OQvBoUbWpz8dD1yvZANycCZYIarhRCjfs
p425
sVwidth
p426
I1200
sVhtml_attributions
p427
(lp428
sVheight
p429
I800
sa(dp430
Vphoto_reference
p431
VCnRnAAAARli9KyOIfall_A6LzuageVud-GcMZ7zwc1BAU_ArZsj96Gkdz3BGGCLBEWIJnUEJUXrZNGU_z7JEQrL5s0m32seZTQ61FE_TeeoGGM5tq1KFlOVb-vDbol8mtxsjXKt5sZowJpehpyBtfpN1uZsqxhIQDZr114K9BASPBlBBZf9FYRoU4VdPKfuMp1KozQBn77eutV4qR6Q
p432
sVwidth
p433
I1200
sVhtml_attributions
p434
(lp435
sVheight
p436
I902
sa(dp437
Vphoto_reference
p438
VCpQBigAAAEaRgipY-h7NVEkTQceHbdva0b4UUoXpsV7k0zmXQRpZ73_QqRdv2Vav8bfPD2zdXWJaHQ-p9_44Vqs3sTZblU0MnJcfRgPTRJgEIV14RyXNpQIxXnZLDsL_32pejykj_ah4xw0wAcxDWD3l7Y_fGPblQOGnD4S6v_11zeME8srT4R8enTXCK1-dYOmaJzC2fRIQr2DH_Nfs7SwceESZFKdCnxoUuQqcsDiYisjMGf699wsmxkdN1-I
p439
sVwidth
p440
I1200
sVhtml_attributions
p441
(lp442
sVheight
p443
I960
sasVgeometry
p444
(dp445
Vlocation
p446
(dp447
Vlat
p448
F37.792396
sVlng
p449
F-122.410504
sssVadr_address
p450
V<span class="street-address">950 Mason St</span>, <span class="locality">San Francisco</span>, <span class="region">CA</span> <span class="postal-code">94108</span>, <span class="country-name">United States</span>
p451
sVplace_id
p452
VChIJN2S4EI2AhYAR9J4Qeh1U8Aw
p453
sVinternational_phone_number
p454
V+1 415-772-5000
p455
sVvicinity
p456
V950 Mason St, San Francisco
p457
sVreviews
p458
(lp459
(dp460
Vrating
p461
I5
sVaspects
p462
(lp463
(dp464
Vrating
p465
I3
sVtype
p466
Voverall
p467
sasVlanguage
p468
Ven
p469
sVtext
p470
VThis hotel is stunning. I've only been in the lobby area and to some of the meeting / event rooms. They are flawless and breathtaking. If you're in the area, drop by for a quick peek. If you like grand rooms with a historical feel you will not be disappointed.  
p471
sVauthor_name
p472
VAmy Meyer
p473
sVauthor_url
p474
Vhttps://plus.google.com/102690091571148307715
p475
sVtime
p476
I1407802650
sa(dp477
Vrating
p478
I3
sVaspects
p479
(lp480
(dp481
Vrating
p482
I1
sVtype
p483
Voverall
p484
sasVlanguage
p485
Ven
p486
sVtext
p487
VBeautiful place, especially the main lobby. This continues with renovated, beautiful rooms, and yellow marble bathrooms. Service here is okay, but not up to 'par' as used to Fairmonts. We have stayed at Fairmont in D.C. and NYC, and have always had great experience. Staff here is not as good as typical. Doormen outside seem understaffed, and there are a ton of people standing around. They can't really tell who is coming and going. Front desk with very young girls in the evening, that were not very helpful when I approached with a simple question. Also, it is a little uncomfortable having to break up their huddle around a cell phone. Not a big deal, and probably more a reflection of their age. I just stayed at a hotel for $150/night, and staff was much friendlier and responsive. \u000a\u000aWalls are paper thin, and I can literally hear and understand every word of the neighbor's words. Probably not management's fault, it's an old building.\u000a\u000aI feel bad with negative remarks, but management and staff that do an outstanding job should be rewarded. Had a great time here in SF, however.\u000a\u000a
p488
sVauthor_name
p489
VBrian Modena
p490
sVauthor_url
p491
Vhttps://plus.google.com/116551189392506282628
p492
sVtime
p493
I1406489780
sa(dp494
Vrating
p495
I5
sVaspects
p496
(lp497
(dp498
Vrating
p499
I3
sVtype
p500
Voverall
p501
sasVlanguage
p502
Ven
p503
sVtext
p504
VAs if you're walking back in time\u2026 a beautiful and thoughtfully orchestrated building with a rich history. Had a wonderful time at a fundraiser here recently. The thoughtful and detail oriented architecture was definitely noticed by all. Modernism is a part of our time now, but there is something that is easily appreciated by all when it comes to thoughtfulness- even when it's architecture. Highly recommended for a nice reminder of creativity and beauty from a great period in time. 
p505
sVauthor_name
p506
VLillian Chan
p507
sVauthor_url
p508
Vhttps://plus.google.com/111958487714652939736
p509
sVtime
p510
I1402737720
sa(dp511
Vrating
p512
I5
sVaspects
p513
(lp514
(dp515
Vrating
p516
I3
sVtype
p517
Voverall
p518
sasVlanguage
p519
Ven
p520
sVtext
p521
VStayed here 2 weeks ago, for 5 days. I was SHOCKED!!!! in a good way\u2026. I've stayed at many hotels in San Fran. By far, these rooms were the biggest I've ever seen! And that says a lot for the city by the bay\u2026. Had room to hang all clothes in the closet, and even an extra rack for our luggage. Temperature was well controlled throughout the hotel. Bell service was great, and the people at the front desk were always helpful. The only bad thing is the Valet Parking price. $60 per day is a bit steep, but I probably shouldn't have had a rental car in the city anyway. But I will definitely stay here again on my next trip! Well wort the price!
p522
sVauthor_name
p523
VRobert Peterson
p524
sVauthor_url
p525
Vhttps://plus.google.com/100510007029790173763
p526
sVtime
p527
I1408297701
sa(dp528
Vrating
p529
I1
sVaspects
p530
(lp531
(dp532
Vrating
p533
I0
sVtype
p534
Voverall
p535
sasVlanguage
p536
Ven
p537
sVtext
p538
VCrazy paranoid Security who are rude and accusatory to friends of guests. I went to go visit a friend of mine at night. I couldn't find the room number. Since no hotel staff could be found I asked the only person I could find. The man I asked was part of a painting crew. To my surprise they all spoke Cantonese and barely a word of English. I showed one of the men the room number and with much effort and hand signals the kind Chinese man told me where I could find the room. When I started to turn left instead of right the man shouted out to me. But because of his strong Cantonese accent the "No" sounded like a loud "Uhhhh".  Then from out of nowhere this 6'4" Caucasian man with a thick brown mustache and brown blazer comes out and says, "Why is he YELLING at you?!" I responded saying, "What? Who?" Then the security pointed to the group of Chinese painters. I had no idea what he was talking about because even with the thick Cantonese accent I still heard a "No". I didn't register that anyone was yelling at me. As I tried to process the words of this 41 year old Security guy as hovered his 6'4" 270 lb body over my 5'6" 125lb frame and staring at me as if he was about to beat me up. "Do you have the room number?" he asked. I said yeah. But this Security guy actually looked kinda crazy and I could only guess what he might do to my friend. I mean was stopped for no reason, perhaps this paranoid Security would hurt my friend. Then as I tried to form the words through the intimidation Security man said, "Let's walk this way." Then walked me to the exit as if he was doing a perp walk and walking slightly behind me and so close that he gave me the feeling that if I so much as paused he'd throw me to the ground. When he had me at the exit there was a cab waiting and he watched me get in the cab and stood there staring at me like a mad dog even while I sat in the taxi until it had driven out of sight.  All I wanted to do was see my friend and all my friend wanted was to have a romantic visit with an old girlfriend and the Fairmont Security ruined everything.  
p539
sVauthor_name
p540
VRuby Garcia
p541
sVauthor_url
p542
Vhttps://plus.google.com/105570168439947872947
p543
sVtime
p544
I1404804429
sasVformatted_phone_number
p545
V(415) 772-5000
p546
sVurl
p547
Vhttps://plus.google.com/114386282276154448100/about?hl=en-US
p548
sVscope
p549
VGOOGLE
p550
sVaddress_components
p551
(lp552
(dp553
Vlong_name
p554
V950
p555
sVtypes
p556
(lp557
Vstreet_number
p558
asVshort_name
p559
V950
p560
sa(dp561
Vlong_name
p562
VMason St
p563
sVtypes
p564
(lp565
Vroute
p566
asVshort_name
p567
VMason St
p568
sa(dp569
Vlong_name
p570
VSan Francisco
p571
sVtypes
p572
(lp573
Vlocality
p574
aVpolitical
p575
asVshort_name
p576
VSF
p577
sa(dp578
Vlong_name
p579
VCalifornia
p580
sVtypes
p581
(lp582
Vadministrative_area_level_1
p583
aVpolitical
p584
asVshort_name
p585
VCA
p586
sa(dp587
Vlong_name
p588
VUnited States
p589
sVtypes
p590
(lp591
Vcountry
p592
aVpolitical
p593
asVshort_name
p594
VUS
p595
sa(dp596
Vlong_name
p597
V94108
p598
sVtypes
p599
(lp600
Vpostal_code
p601
asVshort_name
p602
V94108
p603
sasVformatted_address
p604
V950 Mason St, San Francisco, CA 94108, United States
p605
sVid
p606
Va9dbcfebeadf2c2e488dd47116305abb181a0cbb
p607
sVtypes
p608
(lp609
Vlodging
p610
aVestablishment
p611
asVicon
p612
Vhttp://maps.gstatic.com/mapfiles/place_api/icons/lodging-71.png
p613
ssba(ispot
Spot
p614
(dp615
g3
I150
sg4
(dp616
g6
F0.2809917355371901
sg23
F0.7245179063360881
sg8
F0.4446280991735537
sg9
F0.4115702479338843
sg14
F0.046831955922865015
sg7
F0.14765840220385676
sg11
F0.3338842975206612
sg12
F0.12286501377410468
sg13
F0.08539944903581267
ssg15
(dp617
Vrating
p618
F3.9
sVreference
p619
VCoQBeAAAADEDwocjHG2WFvyLKDB134psH_2NvjwRdmqx3M8kisNh1KrSLD7W0UxmffeUd0gB6m7XqBG0m8kL9nE6inyEISvkAkqVOGgVxTY4NYxnbipaAfjXDreHFs7HHCqKLbZ9zIDh89TEMYK6XFpBpZ7l_vliq8iXmhvCwQis8vlaS7UDEhCNFZm5GKygD9tZVUCXWbqEGhQVicNATHTUnWdRc_HBHMvmC912XA
p620
sVplace_id
p621
VChIJcT5nNoaAhYARVdbyW3zPwus
p622
sVurl
p623
Vhttps://plus.google.com/106887444712850191170/about?hl=en-US
p624
sVformatted_address
p625
V780 Mission St, San Francisco, CA 94103, United States
p626
sVid
p627
Vf007d2f91c0070ebdfec60275baa33623f0b771b
p628
sVopening_hours
p629
(dp630
Vweekday_text
p631
(lp632
VMonday: Open 24 hours
p633
aVTuesday: Open 24 hours
p634
aVWednesday: Open 24 hours
p635
aVThursday: Open 24 hours
p636
aVFriday: Open 24 hours
p637
aVSaturday: Open 24 hours
p638
aVSunday: Open 24 hours
p639
asVopen_now
p640
I01
sVperiods
p641
(lp642
(dp643
Vopen
p644
(dp645
Vday
p646
I0
sVtime
p647
V0000
p648
ssassVvicinity
p649
V780 Mission St, San Francisco
p650
sVscope
p651
VGOOGLE
p652
sVwebsite
p653
Vhttp://www.marriott.com/hotels/travel/sfodt-san-francisco-marriott-marquis/
p654
sVutc_offset
p655
I-480
sVuser_ratings_total
p656
I127
sVphotos
p657
(lp658
(dp659
Vphoto_reference
p660
VCnRnAAAA33GttZKJcF3XZ9Xxu3L7SD3B1c1yzKIcuTwz8RjFF-GcuX4_6dWh1gzdAlWEM4szKoZ1r94j5SS0rWKYbLpZdHN6XTgw8U8sj-4f6qocrVzOs82p-Op3JKlor3CS-1qL_Nc65SRKqE24kKuAx5Bh6BIQorFUX_1SAZW1E3fuCANq5RoUuWV2RNGfF3aN7xpz8uOYajrLMWg
p661
sVwidth
p662
I610
sVhtml_attributions
p663
(lp664
sVheight
p665
I423
sa(dp666
Vphoto_reference
p667
VCnRnAAAAJjUJTwLV4qSn6HPh88NDJiffATkUSR5m3o-caFTf3UODeIGLJgGMLBmoUEpfzgdI5J0u-yn_Sv-Hgm3ZwQOkDCuZYKRfgts13AMkLbzgm5h-HXmDZRGhv1f8_vOp4R9adPug_k7UgpHY0xf30qoMMRIQvOozYWmhwALTDTM9d7LUvRoUm9G2v7dH1SoiBMaF_wp2f3yUScw
p668
sVwidth
p669
I610
sVhtml_attributions
p670
(lp671
sVheight
p672
I423
sa(dp673
Vphoto_reference
p674
VCnRnAAAADGV-c9uMGykMsrgnevNFxbf7srDmnedj0oXm3rOuJL5XorJedaeaWi_qa9lna7IPf0fMyoHJYwqb9CE-0d9wdvVGm4-cjOtLd9Z4n_j9amAVplR0j4alutnfhMud5rKKl4wHZs7ygfzUV9i-CImOShIQ8D9oDM7OWgKke2p96tsaxBoUZuJIcRFTNt5TlnjQ-vzBowBQ4Fc
p675
sVwidth
p676
I610
sVhtml_attributions
p677
(lp678
sVheight
p679
I423
sa(dp680
Vphoto_reference
p681
VCnRnAAAACi2_I7vTLls-f1KtS1Gagni6nlBSSX_IK4Cdjp6kBLywLjTQMgKtQzRC-n0POmj6E3NhUbztiw1dUW-fdg1uzlEYrfixcHWfrfkfn4-AdJ0rGFL5brwnhMM_yUOMwFAbAK6AGg66d4zAsoUA_nqPeRIQey1c43WKDJlu5t32RDFy6hoU6MmRYriCJgy7ma-FGxnafGdC8ds
p682
sVwidth
p683
I610
sVhtml_attributions
p684
(lp685
sVheight
p686
I423
sa(dp687
Vphoto_reference
p688
VCnRnAAAAv2SQUoeD-P7kJ2ZzqlPAb0apWPHIuDDKks0EfrAUmNoRKkYtzxpOme6ro6Vl4SaL8jpbB1d2vEktzDGM2S_iCkfL_cqU8JZ6NEazAlqGL14RsZgs0EwcluWg3n3UTn5KEwyB2jZVVBl7sMdVffuhmBIQdd6mCIfArWTNP7yRgNOUlBoU3EFOMrJPavTRnXjw0MOmKjQmqqQ
p689
sVwidth
p690
I610
sVhtml_attributions
p691
(lp692
sVheight
p693
I423
sa(dp694
Vphoto_reference
p695
VCnRnAAAAU0bvl6qwZ3KpOrMulsAjyred6lKUuN0XZRa5pwkuqtObK5flmJLYJTUEOm2I3UrdjTejFQbcriPjsqjwSQXUDrfL-fXq71TBBtXgzG0gKeo9rxjdCLtL00RZDIos84IJOqIyHqaw8plkTay_TX4kMRIQ9IZTWUjgCFa6Rq3VjD0QThoU_PMyfNPvdl9QkyL5vmH3K4RMSzw
p696
sVwidth
p697
I610
sVhtml_attributions
p698
(lp699
sVheight
p700
I423
sa(dp701
Vphoto_reference
p702
VCnRnAAAAu98Y3v-KMzZ7LO8YGMhCg3BZJ_biycmzmdI1dvLmTSKthz1RWbq3hY6HritEkKbHdLJbcbCL-mXX3qPPWhijNnK7yENQaGmK6xLWJiUJfFNGKIjTaHl85oOFccgR_LBc58slvn5xu0nu_gPjklTADBIQOvwJM0JxNH6iSYQS4LK74RoUyHheEZlMvjrS7v1IAFYSvFxqSJw
p703
sVwidth
p704
I610
sVhtml_attributions
p705
(lp706
sVheight
p707
I423
sa(dp708
Vphoto_reference
p709
VCnRnAAAAZvFq-9GBc2lVW5UskNbnWAJz6MEogJOxQbWmozgjAlqryQYN4Q2hYCm-NiZi-FHgu1qkQoqcdSUI22saFB7ZoQAgkx4X1RctteG697Cr91SkPcK8EcNnU_EGujH4NIbYMEGfV2q5bCLjxOmu0Tkr3RIQTAkb1DXX2upRr_VLkYpgghoUJvKW-P6F2z7mOqAWstj6O6oxclI
p710
sVwidth
p711
I610
sVhtml_attributions
p712
(lp713
sVheight
p714
I423
sa(dp715
Vphoto_reference
p716
VCpQBhQAAAOz3_3-HJQGs6vfTQDFJnQ5kVQRdXRC1KpgjSteLwcy6wKDO_EgtRitbujk0Qbq_8fxDQDYLaua20RBURgHIYgjX9IOMYBs6tVntvJRDh2BKuyW7G2vi7uXctSjFqw8QDPB6oGx_BOTWdR_3aUr8QFnz7NO8oJXjOCfqzEuZPxLeidlvuMhNj137OvsZhdGywRIQMGzl-Kx1rUxokIjEACnlYxoUyU5zHAt1kCqs-lg6pIduRdab3rQ
p717
sVwidth
p718
I610
sVhtml_attributions
p719
(lp720
sVheight
p721
I423
sa(dp722
Vphoto_reference
p723
VCnRnAAAA5PqhVMkarXVj67y6Sj1Rli6RmIvH-vypjj3C8xx0lSWfZA4MDczv8PNsrHWCmszaadznDCZ96PHjdufp1V6judLZGflIaYCZEUTrOyaBVQkRuiZnYou4ApA0TzKFmTXqC0zsBHf5lFXb8-RDR4yPdxIQAmm8ltIiQs9gCjuc7JhuWxoUz38v387q7YvA976YPXjk84q_pKs
p724
sVwidth
p725
I610
sVhtml_attributions
p726
(lp727
sVheight
p728
I423
sasVtypes
p729
(lp730
Vlodging
p731
aVestablishment
p732
asVicon
p733
Vhttp://maps.gstatic.com/mapfiles/place_api/icons/lodging-71.png
p734
sVname
p735
g10
sVgeometry
p736
(dp737
Vlocation
p738
(dp739
Vlat
p740
F37.785228
sVlng
p741
F-122.404389
sssVadr_address
p742
V<span class="street-address">780 Mission St</span>, <span class="locality">San Francisco</span>, <span class="region">CA</span> <span class="postal-code">94103</span>, <span class="country-name">United States</span>
p743
sVinternational_phone_number
p744
V+1 415-896-1600
p745
sVreviews
p746
(lp747
(dp748
Vrating
p749
I3
sVaspects
p750
(lp751
(dp752
Vrating
p753
I1
sVtype
p754
Voverall
p755
sasVlanguage
p756
Ven
p757
sVtext
p758
VI recently stayed at this hotel for a large conference. It is a good hotel, very large. However, I had mixed experiences with the customer service. We were 4 students staying there and needed to split the bill on 4 cards. We called ahead and told them this but they apparently ignored this, and $645 later in charges, I am frustrated. Upon calling the customer service, he was rude and interrupted me many times. We also needed a room to share with 4 people (we told them this before as well) and they gave us a tiny room, nothing like the suite we were promised. Thankfully, a room switch was done, but not without a hassle. Additionally, the costs were extremely ridiculous everywhere within. $7 a day for the gym and $15 a day for internet? Wow. I will think twice before staying here again. 
p759
sVauthor_name
p760
VBailey Wockner
p761
sVauthor_url
p762
Vhttps://plus.google.com/111872480398909637191
p763
sVtime
p764
I1416696856
sa(dp765
Vrating
p766
I1
sVaspects
p767
(lp768
(dp769
Vrating
p770
I0
sVtype
p771
Voverall
p772
sasVlanguage
p773
Ven
p774
sVtext
p775
VTo deal with customer service over an reservation issue was the most discriminatory and humiliating telephone event of my life so far two representatives hung up on me ( Iam Marriott rewards member too), made fun of my husband's name started screaming and yelling at me,would not give me her name and she also hung up on me yesterday evening. I will be filing a complaint with the better business admin and Ca Dept of Consumer Affairs.\u000a
p776
sVauthor_name
p777
VLidia Iannicelli
p778
sVauthor_url
p779
Vhttps://plus.google.com/113290576894401125156
p780
sVtime
p781
I1414440405
sa(dp782
Vrating
p783
I4
sVaspects
p784
(lp785
(dp786
Vrating
p787
I2
sVtype
p788
Voverall
p789
sasVlanguage
p790
Ven
p791
sVtext
p792
VEnjoyed the hotel and it's location was superb.  Great customer service.  The only problem was the bellhop service. They were rude and expected a tip for their rudeness. Other than that this hotel was amazing. 
p793
sVauthor_name
p794
VWilliam Birdshead
p795
sVauthor_url
p796
Vhttps://plus.google.com/106070413165326970187
p797
sVtime
p798
I1399848580
sa(dp799
Vrating
p800
I5
sVaspects
p801
(lp802
(dp803
Vrating
p804
I3
sVtype
p805
Voverall
p806
sasVlanguage
p807
Ven
p808
sVtext
p809
VThis is one of my favorite hotels in the City. In the last few times I have stayed there, not only have I received an email from Marriott in advance confirming my arrival, but an email from guest services from the hotel itself asking about any requests I might have. When I arrived I was greeted by a friendly, helpful staff and upgraded to a suite with an incredible view of San Francisco. Every wish I made was granted, and every time I stay there they comment on and appreciate my loyalty. \u000aThis is a well located hotel; walking distance to the Ferry Building and many other attractions. The restaurant is open and friendly, and the view from the appropriately named "View Lounge" is stunning. \u000aAfter leaving the hotel I received another email from guest services wanting to make sure my stay was satisfactory. I was happy to respond that it was beyond satisfactory. \u000aI highly recommend this hotel.
p810
sVauthor_name
p811
VColleen Brennan
p812
sVauthor_url
p813
Vhttps://plus.google.com/109644931818394502043
p814
sVtime
p815
I1405442127
sa(dp816
Vrating
p817
I3
sVaspects
p818
(lp819
(dp820
Vrating
p821
I1
sVtype
p822
Voverall
p823
sasVlanguage
p824
Ven
p825
sVtext
p826
VEarly check-in is not an uncommon thing to request, yet here the evening before my reservation, first I'm told that the phone number in the email is the wrong number, and then told by the hotel that I will need to call the morning of the reservation (at which point I'll be on a plane), and even then it's a 50/50 chance.  Service is what sets great hotels apart from just-ok hotels, and so far Marquis is ranking "just ok".
p827
sVauthor_name
p828
VDustin Mitchell
p829
sVauthor_url
p830
Vhttps://plus.google.com/105883044168332773236
p831
sVtime
p832
I1411346693
sasVformatted_phone_number
p833
V(415) 896-1600
p834
sVaddress_components
p835
(lp836
(dp837
Vlong_name
p838
V780
p839
sVtypes
p840
(lp841
Vstreet_number
p842
asVshort_name
p843
V780
p844
sa(dp845
Vlong_name
p846
VMission St
p847
sVtypes
p848
(lp849
Vroute
p850
asVshort_name
p851
VMission St
p852
sa(dp853
Vlong_name
p854
VSan Francisco
p855
sVtypes
p856
(lp857
Vlocality
p858
aVpolitical
p859
asVshort_name
p860
VSF
p861
sa(dp862
Vlong_name
p863
VCalifornia
p864
sVtypes
p865
(lp866
Vadministrative_area_level_1
p867
aVpolitical
p868
asVshort_name
p869
VCA
p870
sa(dp871
Vlong_name
p872
VUnited States
p873
sVtypes
p874
(lp875
Vcountry
p876
aVpolitical
p877
asVshort_name
p878
VUS
p879
sa(dp880
Vlong_name
p881
V94103
p882
sVtypes
p883
(lp884
Vpostal_code
p885
asVshort_name
p886
V94103
p887
sassba(ispot
Spot
p888
(dp889
g3
I200
sg4
(dp890
g6
F0.31129476584022037
sg23
F0.8055096418732782
sg8
F0.5305785123966942
sg9
F0.4975206611570248
sg10
F0.1674931129476584
sg7
F0.24848484848484848
sg11
F0.3338842975206612
sg13
F0.16363636363636364
sg14
F0.209366391184573
ssg15
(dp891
Vwebsite
p892
Vhttp://sanfrancisco.giants.mlb.com/sf/ballpark/
p893
sVrating
p894
F4.7
sVutc_offset
p895
I-480
sVuser_ratings_total
p896
I520
sVname
p897
g12
sVreference
p898
VCnRjAAAAz-tnpBKLneA3Mrl3YWXT0OFo1l5wBMbFu19T3wHx_GkGCA5aCyRRRSPIfatvkjL8y7M17WEnW15r-uw3EIiYKEx02-lHUwduVdIABk7SAKcuVlc_-vg9xaUS-v6DpPnDXzpi8ErwtDFaHYOBnXqvbhIQShW9JkBqddg3Ui9PzRa1GRoU9VNoygrJhPf2bjqFqy99TC4IC7c
p899
sVphotos
p900
(lp901
(dp902
Vphoto_reference
p903
VCnRtAAAAL-TpH_jm4K-9jE8VYfAqEtLqH0GXNGpdn8YVfCeGFc9u7uyEcecZRnQvmBLsegiytteupPqD0c-dsm-G5nPjvS_ePg2FcxZi2Y6IEUW-FJA6I4GQPLYkYOtJDLTyq-HZuHmKcPkRuLafXlz9URY_VhIQ__YDR1PcLqhphIs2y2jmRhoUVeZfCKUEZAqEyx8caZGyQgmD9jI
p904
sVwidth
p905
I1632
sVhtml_attributions
p906
(lp907
VFrom a Google User
p908
asVheight
p909
I1224
sa(dp910
Vphoto_reference
p911
VCpQBhgAAAGxdCDJQtN800_S-9Aa8EoIbErk7unWneFnhgWUxdMwqnGI9bBDA0ZtgJy0aWjv3CEBno4n15raX__oORnh2GjxSmzjoFriPI3Kgk6dI8Hanac6r4eWTdFRC3jyOCNSOKidO5cFBf23x3eYkPLNZsAwFzCto13QYWRwGdMPzNzWbS63dkTdP_fPA1G77lvuFWxIQSoNxtEsKV55b-1fNd7NJWhoUllGGn6qky2AbQQdCDexgxVHUURY
p912
sVwidth
p913
I2048
sVhtml_attributions
p914
(lp915
V<a href="https://plus.google.com/106170335079428053302">Corrie Davidson</a>
p916
asVheight
p917
I1536
sa(dp918
Vphoto_reference
p919
VCoQBdgAAAIQM01_5YXBiU0xZBA9XkJqowPKruwGkh4w6NM__8_9HJLs5lIAu1T7vE57cKVE2JH9J8Y5i56OIG8f2cuJy906tH3MR_QE4ki7-mkw4UFL6PNCzIy1mTbHbKrEHJTjggjxi22--tkfByUaq-rD7a4lro8KJoD-9LoYfluVLvjmyEhDaQZVdIwnHgz1C0csufcWbGhQ0-a9hIaeRJ145go4cxvGgaXV33A
p920
sVwidth
p921
I1024
sVhtml_attributions
p922
(lp923
VFrom a Google User
p924
asVheight
p925
I768
sa(dp926
Vphoto_reference
p927
VCoQBcQAAAGgccuO6uyDYncDgV2b0Z3E1YotcOwBz6ssqKgH_QkFg5RsTVLe7skYW4LpGUk3o4nlE2RGo59rSuWg1egRo6JyvkCddz6bHlFmJ06gAaRiDsAql2om-p_d0CB-tfmr_ARxbeS9bYTSV4Vbjp7XE9tdBXuVQ7CtZiQBZGi6nT7lZEhCVIaUlHA7-Jcj4FLJXUi-TGhRM1P3KcZTnXa6DLpSQCO2tJlvnDw
p928
sVwidth
p929
I2048
sVhtml_attributions
p930
(lp931
V<a href="https://plus.google.com/112095627515954870302">Garrett Messer</a>
p932
asVheight
p933
I1536
sa(dp934
Vphoto_reference
p935
VCnRoAAAAfcYMr_1i4o9UwE6L9llN4sKCqd3oKphqRj63tnx6eE59A3giueZKEMEKWDH_stlVmkMtkXAhsZY97Fqfw5wzvsMyk5EltC4Ao87lR3J_Fg1yk6sC2z1AsUn9zIN6JXsP13gEQ0oQboiT2El78c7TeRIQK_6ObhjnmJPPMxEAWsZ4zBoUN2Cv_sC_yKsSgI8O3HxqrhUWAJo
p936
sVwidth
p937
I1280
sVhtml_attributions
p938
(lp939
V<a href="https://plus.google.com/108152127945250235563">Michael Villalobos Gomez</a>
p940
asVheight
p941
I960
sa(dp942
Vphoto_reference
p943
VCnRtAAAAqzaLkzQHgYKcSGfUxD3P6CCxe0hGoj5RztFCNVPAadmHdNBYHnWKWHsN5S2oi4BufjZE_jBbUuKzYgnAQJ_18r-UQw9KqeJS0dmiKapc-QZXxkYS3JihMN5nDD2scNps15Wd58qRt9xjvaauSnlsIhIQ3eYR3cRwgRaWmSjxZ1hy-BoUn9QGktzFih5ka157nLChzl85qQs
p944
sVwidth
p945
I500
sVhtml_attributions
p946
(lp947
V<a href="https://plus.google.com/117701647401983318963">Piero Fusco</a>
p948
asVheight
p949
I332
sa(dp950
Vphoto_reference
p951
VCnRtAAAA-VukdYXbrVLb3b7oBbZJVAb_bAZbB7lH1rZ51wT-TJ8W422jQvriZ3l-DwGWvntFOrDtXMQiTzmEPvFaGFOiAxUVfV5p4wEX8pYGpuBCDHtxzDtaOAnLM9GEINuP_wNVnpk2TI6IYHiHKA9BhP1FbxIQn96JeukUupXd2CzCZyC98hoUuDjQhZoedyoxdg9PCQyksllgBRw
p952
sVwidth
p953
I394
sVhtml_attributions
p954
(lp955
VFrom a Google User
p956
asVheight
p957
I314
sa(dp958
Vphoto_reference
p959
VCpQBhgAAABb1VwPdW0F7LsLu_4uygEaKgjKPhLtTNeqN4d_SvdAv6j7Kx2ZedxFFRv5LmQHvhJI8XjTJa9A80qqLbTmPB9Ervcp4ig8j1PwGywEaWG40GNcN9k0jhaZ5mVYuhxeAGBw0HHalJDKfYE0rnQdx3rJr6QTYQpoX6daMnmA6ps1LG4zKetyR_F3q9A60wdLbvhIQfoxdigfubUx-_EF6YAQB1xoUw_igYW035zmUSLDcQi_fP45QVlI
p960
sVwidth
p961
I2048
sVhtml_attributions
p962
(lp963
V<a href="https://plus.google.com/106170335079428053302">Corrie Davidson</a>
p964
asVheight
p965
I1536
sa(dp966
Vphoto_reference
p967
VCnRoAAAARcaL0VkhZSXjZBqLFLA10gTr8pOKbvSJUzzW9g5LuHj_qEQAOskrR05P5JxqU14FqI6buy4D_btqDSIr_8E-oofsIgyPuCRhfivxjq94rLdwO67PAsaREK8mpG8WvodVXqHUlhuX9FAy6acrfMlYiRIQoAk9H99EXcswpmwo_KeV6xoU-ybGd32Nztl_WalZRvQ-Yh9xm9o
p968
sVwidth
p969
I2448
sVhtml_attributions
p970
(lp971
V<a href="https://plus.google.com/114499818319322887155">Tyler Inocencio</a>
p972
asVheight
p973
I3264
sa(dp974
Vphoto_reference
p975
VCnRtAAAABAbjCDYJ2h-jRz0UWFsdlp2TJak3mrE53HKOFlLbYEHCOL4-3wVBw8HwEROTBhqCjPPIb8zX8sFAMS05LiTv26wMW0Db_ce72CvQfrOQY1DKKe67Myt54BnviLbZOXp-brmj1sf2oxJSF4HW1yaB7hIQ8I4OHVhoGtk90MjexDzt2BoU1C0EJEpD8FB0OS5ito6zfMoR2zg
p976
sVwidth
p977
I1296
sVhtml_attributions
p978
(lp979
V<a href="https://plus.google.com/117454953906757170811">George Fosselius</a>
p980
asVheight
p981
I972
sasVgeometry
p982
(dp983
Vlocation
p984
(dp985
Vlat
p986
F37.778595
sVlng
p987
F-122.38927
sssVadr_address
p988
V<span class="street-address">24 Willie Mays Plaza</span>, <span class="locality">San Francisco</span>, <span class="region">CA</span> <span class="postal-code">94107</span>, <span class="country-name">United States</span>
p989
sVplace_id
p990
VChIJ_T25cNd_j4ARehGmHe0pT84
p991
sVinternational_phone_number
p992
V+1 415-972-2000
p993
sVvicinity
p994
V24 Willie Mays Plaza, San Francisco
p995
sVreviews
p996
(lp997
(dp998
Vrating
p999
I5
sVaspects
p1000
(lp1001
(dp1002
Vrating
p1003
I3
sVtype
p1004
Voverall
p1005
sasVlanguage
p1006
Ven
p1007
sVtext
p1008
VI've been here for Giants baseball game,  concerts, and corporate events. The place is very clean and easy to walk through. During games there's TVs all around the stadium near the the food stands and bathrooms so you don't miss any action. The lines for food may be long, and there's so many so it's not too bad! If you are lucky if you go the Virgin America club level you're treating to a great view of the field and even better access to food and drinks! The club level has so much space including a bowling ball alley, galleries of old baseball bats, etc. Try to take a tour of the place if you can! The garden in the back is a welcome addition.
p1009
sVauthor_name
p1010
VAprille Espinueva
p1011
sVauthor_url
p1012
Vhttps://plus.google.com/100822860986184584169
p1013
sVtime
p1014
I1413043156
sa(dp1015
Vrating
p1016
I5
sVaspects
p1017
(lp1018
(dp1019
Vrating
p1020
I3
sVtype
p1021
Voverall
p1022
sasVlanguage
p1023
Ven
p1024
sVtext
p1025
VGreat stadium - and in the middle of SOMA as well!  The parking can be a bit annoying though as an FYI.\u000a\u000aThe stadium itself is great - I've only come for Giants games, and I've sat usually in the Virgin Airlines area (there's a separate escalator for this).  I really enjoy the food here - I love the garlic fries and I love how clean this stadium is even though it's been open for some time!  \u000a\u000aIt can get very cold here - most people don't realize how cold San Francisco can get at night without the sun, so definitely bring a jacket!  The wine can be really pricey as well so watch out for that. 
p1026
sVauthor_name
p1027
VSally Zhao
p1028
sVauthor_url
p1029
Vhttps://plus.google.com/112631984024381153921
p1030
sVtime
p1031
I1412978141
sa(dp1032
Vrating
p1033
I5
sVaspects
p1034
(lp1035
(dp1036
Vrating
p1037
I3
sVtype
p1038
Voverall
p1039
sasVlanguage
p1040
Ven
p1041
sVtext
p1042
VBeautiful park, awesome time! We went to the Giants vs. Dodgers game, we're Dodger fans, and people were actually pretty civil, considering how big of a game it was. People were telling me before I went, "try the garlic fries," NASTY!! I only took 6 bites or so, and that's only because they were $8!! I tossed them. And I like garlic. But overall, it was a great experience, pricey, just like any other professional game, but worth it.
p1043
sVauthor_name
p1044
VAmy Blaisdell
p1045
sVauthor_url
p1046
Vhttps://plus.google.com/100327111590932161816
p1047
sVtime
p1048
I1410903632
sa(dp1049
Vrating
p1050
I5
sVaspects
p1051
(lp1052
(dp1053
Vrating
p1054
I3
sVtype
p1055
Voverall
p1056
sasVlanguage
p1057
Ven
p1058
sVtext
p1059
VWhat can I say about AT&T park?! Anywhere you sit or stand is awesome!!! Entertainment galore! I love their crab cake sandwiches and of course, their garlic fries. The best thing about AT&T Park - The San Francisco Giants!!!!
p1060
sVauthor_name
p1061
VSharon Bee
p1062
sVauthor_url
p1063
Vhttps://plus.google.com/112933525571389870098
p1064
sVtime
p1065
I1413243471
sa(dp1066
Vrating
p1067
I5
sVaspects
p1068
(lp1069
(dp1070
Vrating
p1071
I3
sVtype
p1072
Voverall
p1073
sasVlanguage
p1074
Ven
p1075
sVtext
p1076
VMy favorite place in San Francisco. Such a beautiful ballpark with amazing energy. Tons of delicious and unique food options. So much to see and do, you will never be bored. Depending on time of the year you can get tickets for pretty inexpensive. Try the garlic fries!
p1077
sVauthor_name
p1078
VBrendon Nemeth
p1079
sVauthor_url
p1080
Vhttps://plus.google.com/105213255561655655900
p1081
sVtime
p1082
I1413257141
sasVformatted_phone_number
p1083
V(415) 972-2000
p1084
sVurl
p1085
Vhttps://plus.google.com/114995991922311473611/about?hl=en-US
p1086
sVscope
p1087
VGOOGLE
p1088
sVaddress_components
p1089
(lp1090
(dp1091
Vlong_name
p1092
V24
p1093
sVtypes
p1094
(lp1095
Vstreet_number
p1096
asVshort_name
p1097
V24
p1098
sa(dp1099
Vlong_name
p1100
VWillie Mays Plaza
p1101
sVtypes
p1102
(lp1103
Vroute
p1104
asVshort_name
p1105
VWillie Mays Plaza
p1106
sa(dp1107
Vlong_name
p1108
VSan Francisco
p1109
sVtypes
p1110
(lp1111
Vlocality
p1112
aVpolitical
p1113
asVshort_name
p1114
VSF
p1115
sa(dp1116
Vlong_name
p1117
VCalifornia
p1118
sVtypes
p1119
(lp1120
Vadministrative_area_level_1
p1121
aVpolitical
p1122
asVshort_name
p1123
VCA
p1124
sa(dp1125
Vlong_name
p1126
VUnited States
p1127
sVtypes
p1128
(lp1129
Vcountry
p1130
aVpolitical
p1131
asVshort_name
p1132
VUS
p1133
sa(dp1134
Vlong_name
p1135
V94107
p1136
sVtypes
p1137
(lp1138
Vpostal_code
p1139
asVshort_name
p1140
V94107
p1141
sasVformatted_address
p1142
V24 Willie Mays Plaza, San Francisco, CA 94107, United States
p1143
sVid
p1144
V2fabca457541277971b0bc91a40bbad02ecbb5ba
p1145
sVtypes
p1146
(lp1147
Vstadium
p1148
aVestablishment
p1149
asVicon
p1150
Vhttp://maps.gstatic.com/mapfiles/place_api/icons/stadium-71.png
p1151
ssba(ispot
Spot
p1152
(dp1153
g3
I250
sg4
(dp1154
g6
F0.209366391184573
sg23
F0.715702479338843
sg8
F0.48705234159779615
sg9
F0.4539944903581267
sg14
F0.08870523415977961
sg7
F0.1140495867768595
sg11
F0.3856749311294766
sg12
F0.1746556473829201
sg10
F0.03581267217630854
ssg15
(dp1155
Vrating
p1156
I4
sVreference
p1157
VCqQBkQAAALrcBmYFm-8ynV-9KkOOfFxRHJf7O7YVfyM3w5v4rNKOKLvZJuJEeHxWeOi9jPNyGD18xQmDIocdJtyvYVQScBIDGejsgH_Wy3FtcdRwdHRwmyVcZ2lEsWVGjll55OPV8SBzaibBm5vIobvp-ECLnJdywCpm7zXRQa5TIqk1MsXOv4ZU5nAiWgj9neNipvpdQj75666xDjfQA8QHZQHSe6oSEA6eJDxTxgkOarDd-UqrLswaFBd4x-5Fx9Igewqed0_O5d4I0xrG
p1158
sVprice_level
p1159
I4
sVplace_id
p1160
VChIJ150MH4iAhYARy399PwjhCb4
p1161
sVurl
p1162
Vhttps://plus.google.com/118209841820254113466/about?hl=en-US
p1163
sVformatted_address
p1164
V2 New Montgomery St, San Francisco, CA 94105, United States
p1165
sVid
p1166
Vf62741e305ade8cf3fab5b364cd7aafb1ce89f58
p1167
sVvicinity
p1168
V2 New Montgomery St, San Francisco
p1169
sVscope
p1170
VGOOGLE
p1171
sVwebsite
p1172
Vhttp://www.sfpalace.com/
p1173
sVutc_offset
p1174
I-480
sVuser_ratings_total
p1175
I196
sVphotos
p1176
(lp1177
(dp1178
Vphoto_reference
p1179
VCnRnAAAAfgazL7PXOroh3L9atPhxbWfjsxMYMtsA815UBHnejxRsADQuNPf5vMBVxVU1IKVKekRJhr0DarERyj2cvG29_5qp9ntdfVjUfh49AVA4BzGSK-OFFDknG7oQ23_xNearmAWvkFL6IamkqPOa0HlJ2xIQ1Q-qXvcU3543IgiyPQpwehoUkPOeZF7jlI-48-K1Iq9q-YU9ZJw
p1180
sVwidth
p1181
I343
sVhtml_attributions
p1182
(lp1183
sVheight
p1184
I230
sa(dp1185
Vphoto_reference
p1186
VCnRqAAAAXZ0ywxs-_H6fbu4h4aD_YWZKg1k8uoWs2mS-PCejH0jBrSJ3-q4gpiyxryG-YAzEjjOLNEsNPoQytpTvtFlIBuBMQn89ib3IbUbGcY20QSdYH4WilgWCN_RGwKrxrmda6v5oPw7UCotjppZmezkIoRIQCQ_IqxYaP_o_-Evw35rRaxoUfjRBwWNV1ZzbNYRYsOouCPWxRCg
p1187
sVwidth
p1188
I343
sVhtml_attributions
p1189
(lp1190
sVheight
p1191
I230
sa(dp1192
Vphoto_reference
p1193
VCnRnAAAAN_D9E_7pWaJ48E-7ZMClz6_TpHH4wzd4IaHZxZ7r4eVTqdmitYkkSkR2AVf11TEeAXtn_xWmQud7vO-jOPAcCK4xa6UXfc9ZuPXWmjMtTjqHSiN5yJ31uEJDVqXmSFdZhG47rW0a_l4XUUlBnHV3WBIQgL6oCjmMJ9pRTe6zP2_bUxoU1Y8MTiTy0f7ZcSdJ53-w1GaoSwY
p1194
sVwidth
p1195
I343
sVhtml_attributions
p1196
(lp1197
sVheight
p1198
I230
sa(dp1199
Vphoto_reference
p1200
VCnRnAAAAwPMm7ONQd27513nW2u3asqRDeZ5N6ttZLpmPcZGTTq8RXKqujfxU47Y3A65nI1YOO8a5IvQma6XlJaPX8ZMsevy3ifxyDvSA1LvjvVAGSRoyYgjmAR6U0woBiEt6uBlJzP0EllZaS2NIkHFEIManCRIQC0zABC001wgRh3zI57PBGhoUAoY_GnZFmIuW-BxcDzP3_6Az3qI
p1201
sVwidth
p1202
I343
sVhtml_attributions
p1203
(lp1204
sVheight
p1205
I230
sa(dp1206
Vphoto_reference
p1207
VCnRnAAAADyIv4ArYozv8X-0ivvNxzfLet5NM9tHHBQr3V5-dKXNuO0ZmIDH9cOs9iorC33j0szi18YKAZY47VaBe8r7vkCrbFEsqqMPoEQgeeFy31CNoQQbCh1lCNEWDzwi1sOKv-iG3HmTON469wVmmZIy5tRIQr28yCT4we8IVWt1CeW0dLRoUd8nJx4d3BW4_sclDe_87eSVA5Vc
p1208
sVwidth
p1209
I343
sVhtml_attributions
p1210
(lp1211
sVheight
p1212
I230
sa(dp1213
Vphoto_reference
p1214
VCnRnAAAAGjDHwmIkJwindxeEKxvbGAzo7zijg1KKSJQEHwZT46-c8ar8jpTvpMWftnh98maLpuV1_Pijq9FlCmN8oYK1a-JTIQqtw88vFoOlgNoO9Ou6qd9lU-oC8Ofzhv8Tbhb8lqhcblx3ek681Rs-QMSY2BIQmjueRKsTBeW0FA-xDO-nuRoUoLC3Kib74zqIDiSMFr6uSV0Ov9E
p1215
sVwidth
p1216
I343
sVhtml_attributions
p1217
(lp1218
sVheight
p1219
I230
sa(dp1220
Vphoto_reference
p1221
VCnRqAAAAaUy2YQxywwrEzFDgLnOLuac92lmmiCDlyoS7iUXLR6QKUb3rAs6y4mmo-mNg_y_EOPPj-vzPFijlKB_gd1rfZr_-gALoMlhlW_y6WQrS4DKQuEJG2_v33kOo7ReSOgg0NbdbZ0DP6bzi4NZB28azexIQCaP0Nq3561RjONVh0wTUOBoUb3zIkvVgI8qpwdnWnVeKNP3SfzY
p1222
sVwidth
p1223
I343
sVhtml_attributions
p1224
(lp1225
sVheight
p1226
I230
sa(dp1227
Vphoto_reference
p1228
VCnRqAAAAslFMqDoefYrlr62LmC9YS2Wkim4RQ9Ou4KNb46oPcl673tgbrlBNF3rXA1lIX3TuLv4dkJ5vumiEH1JoxnVKHRzx0gXtlMfxINxRYAVq2Pw6Z-AZAa94dO-w3CX44FrQBBRw9AEO0TvPmxtxerwhVhIQJq5dRDOqQiy4SrUZeyOVXhoUPpJ00XTr_2nZSOXvJRbrG22kK9E
p1229
sVwidth
p1230
I343
sVhtml_attributions
p1231
(lp1232
sVheight
p1233
I230
sa(dp1234
Vphoto_reference
p1235
VCnRqAAAAkCK37hgqW9Pr7F4D8iWgePJxlXRlqk5zKyJeI_qxUF7RttBRvTluvkYQeKLymLatJOw1_k_2pA6HT3MfUjaaTuOwr81p2140KOY8Ca-n5ljHSNr0IyN3UwdfsmH9UOPGMk266snFToYGuUR9fyO_phIQ_l9fcn3dwAcmKSHbBbia3xoUCCy9Y5puSpJvjG2KA2m7nxcMLuM
p1236
sVwidth
p1237
I343
sVhtml_attributions
p1238
(lp1239
sVheight
p1240
I230
sa(dp1241
Vphoto_reference
p1242
VCnRqAAAA91tRGOv9nKv03qs2GAtLclhB9iljnHHWHL5mHpEWPte78iEULJBK4gH-0b-6jOUk95oYR3sJ4X5T8URTECz1IqGjwYdC-Wb0g6fIs1FuBv3xw21GnbGr2FHZVRPS6IB_S7ccNzQQesA5_jny5R-uJBIQkDdu30jV2hUopsEEiCoJpBoUNJABwoaO0pLiFdwKFOeba8tDvw0
p1243
sVwidth
p1244
I343
sVhtml_attributions
p1245
(lp1246
sVheight
p1247
I230
sasVtypes
p1248
(lp1249
Vlodging
p1250
aVestablishment
p1251
asVicon
p1252
Vhttp://maps.gstatic.com/mapfiles/place_api/icons/lodging-71.png
p1253
sVname
p1254
g13
sVgeometry
p1255
(dp1256
Vlocation
p1257
(dp1258
Vlat
p1259
F37.788599
sVlng
p1260
F-122.402019
sssVadr_address
p1261
V<span class="street-address">2 New Montgomery St</span>, <span class="locality">San Francisco</span>, <span class="region">CA</span> <span class="postal-code">94105</span>, <span class="country-name">United States</span>
p1262
sVinternational_phone_number
p1263
V+1 415-512-1111
p1264
sVreviews
p1265
(lp1266
(dp1267
Vrating
p1268
I5
sVaspects
p1269
(lp1270
(dp1271
Vrating
p1272
I3
sVtype
p1273
Voverall
p1274
sasVlanguage
p1275
Ven
p1276
sVtext
p1277
VI've only been here for events in the Grand Ballroom and to Tea.  So this review is based on those experiences, which have been superior!  Tea at the Sheraton Palace should be on everyone's bucket list.  The room is over the top elegant, as is the service.  This experience sets you back to another place and time, it is truly a respite from the frantic life we all seem to be rushing around in.  Reservations for tea are a must. 
p1278
sVauthor_name
p1279
VYoni Mayeri
p1280
sVauthor_url
p1281
Vhttps://plus.google.com/105820450885180571966
p1282
sVtime
p1283
I1412953438
sa(dp1284
Vrating
p1285
I5
sVaspects
p1286
(lp1287
(dp1288
Vrating
p1289
I3
sVtype
p1290
Voverall
p1291
sasVlanguage
p1292
Ven
p1293
sVtext
p1294
VThe hotel is beautiful, and the staff is very friendly and helpful.  I recently proposed at the hotel to my girlfriend, and the plan required some coordination with the hotel.  Prior to my arrival I called to coordinate with the hotel, the receptionist connected me with Adriana.  Adriana told me she had me covered. Just to start, she made it possible for me to do the check-in process over the phone and via a secure site so that when I arrived I'd just need to show my ID in exchange for the keycard, and had a bucket of ice placed in the room along with chocolate covered strawberries minutes prior to our timed arrival.  She made the entire experience flawless for me, and extremely special for the two of us.  My fiance was head over heals.  Thank you, Adriana.  We look forward coming back to stay for our anniversaries to come.  
p1295
sVauthor_name
p1296
VDaniel Garzia
p1297
sVauthor_url
p1298
Vhttps://plus.google.com/102573460518502520362
p1299
sVtime
p1300
I1409678518
sa(dp1301
Vrating
p1302
I4
sVaspects
p1303
(lp1304
(dp1305
Vrating
p1306
I2
sVtype
p1307
Voverall
p1308
sasVlanguage
p1309
Ven
p1310
sVtext
p1311
VDon't miss this lobby and restaurant. The food is good. Especially the Sunday Brunch. But just to sit in this three story atrium is the treat. Imagine this was used over 150 years ago. Plus the bar is a throw back to 100 years ago. Enjoy. 
p1312
sVauthor_name
p1313
VTom Flood
p1314
sVauthor_url
p1315
Vhttps://plus.google.com/115575784208091767568
p1316
sVtime
p1317
I1405422502
sa(dp1318
Vrating
p1319
I4
sVaspects
p1320
(lp1321
(dp1322
Vrating
p1323
I2
sVtype
p1324
Voverall
p1325
sasVlanguage
p1326
Ven
p1327
sVtext
p1328
VBeautiful hotel, center of the city. Room was average size with high ceilings, very nice bathroom and comfortable bed. Gorgeous inside the lobby (there was a wedding or something happening during our stay). Lots of traffic getting there to the valet but otherwise great. 
p1329
sVauthor_name
p1330
VShaw Levin
p1331
sVauthor_url
p1332
Vhttps://plus.google.com/117722603808387603069
p1333
sVtime
p1334
I1411845235
sa(dp1335
Vrating
p1336
I5
sVaspects
p1337
(lp1338
(dp1339
Vrating
p1340
I3
sVtype
p1341
Voverall
p1342
sasVlanguage
p1343
Ven
p1344
sVtext
p1345
VBeautiful, well preserved, old Hotel. Other old hotels in this city should take note. Old does not have to mean run down. Class act.
p1346
sVauthor_name
p1347
VJoAnn Gamma
p1348
sVauthor_url
p1349
Vhttps://plus.google.com/110299714971709099718
p1350
sVtime
p1351
I1414738296
sasVformatted_phone_number
p1352
V(415) 512-1111
p1353
sVaddress_components
p1354
(lp1355
(dp1356
Vlong_name
p1357
V2
p1358
sVtypes
p1359
(lp1360
Vstreet_number
p1361
asVshort_name
p1362
V2
p1363
sa(dp1364
Vlong_name
p1365
VNew Montgomery St
p1366
sVtypes
p1367
(lp1368
Vroute
p1369
asVshort_name
p1370
VNew Montgomery St
p1371
sa(dp1372
Vlong_name
p1373
VSouth Beach
p1374
sVtypes
p1375
(lp1376
Vneighborhood
p1377
aVpolitical
p1378
asVshort_name
p1379
VSouth Beach
p1380
sa(dp1381
Vlong_name
p1382
VSan Francisco
p1383
sVtypes
p1384
(lp1385
Vlocality
p1386
aVpolitical
p1387
asVshort_name
p1388
VSF
p1389
sa(dp1390
Vlong_name
p1391
VSan Francisco County
p1392
sVtypes
p1393
(lp1394
Vadministrative_area_level_2
p1395
aVpolitical
p1396
asVshort_name
p1397
VSan Francisco County
p1398
sa(dp1399
Vlong_name
p1400
VCalifornia
p1401
sVtypes
p1402
(lp1403
Vadministrative_area_level_1
p1404
aVpolitical
p1405
asVshort_name
p1406
VCA
p1407
sa(dp1408
Vlong_name
p1409
VUnited States
p1410
sVtypes
p1411
(lp1412
Vcountry
p1413
aVpolitical
p1414
asVshort_name
p1415
VUS
p1416
sa(dp1417
Vlong_name
p1418
V94105
p1419
sVtypes
p1420
(lp1421
Vpostal_code
p1422
asVshort_name
p1423
V94105
p1424
sassba(ispot
Spot
p1425
(dp1426
g3
I300
sg4
(dp1427
g6
F0.6556473829201102
sg23
F0.5344352617079889
sg9
F0.029201101928374655
sg10
F0.5162534435261708
sg7
F0.49421487603305786
sg11
F0.6198347107438017
sg12
F0.509641873278237
sg13
F0.5377410468319559
sg14
F0.47988980716253443
ssg15
(dp1428
Vrating
p1429
F4.3
sVreference
p1430
VCnRoAAAA2mMq9Zb3Lyxiz7LaXVoihzlDJszfn3M-au7ZrOow8c2kj8EmvvhlPmNxSYPN-44eCNSs3g1JPbJQl1nwasAnopaEu92-qUG9MrsNw_ay22NrgjXlJp4uT9xWVz5PC6BwJIR7pnF51Sf1E9dbdWjWvhIQ7WxPNyzfcuwkP6xlqxuK_hoUcl9VFQbzVWvyqKhZe07C39RoLag
p1431
sVplace_id
p1432
VChIJI7NivpmAhYARSuRPlbbn_2w
p1433
sVurl
p1434
Vhttps://plus.google.com/104010277220168946324/about?hl=en-US
p1435
sVformatted_address
p1436
V50 Hagiwara Tea Garden Dr, San Francisco, CA 94118, United States
p1437
sVid
p1438
V2a7464f9faa0b872fcc3132045a4b29e7661f83c
p1439
sVopening_hours
p1440
(dp1441
Vweekday_text
p1442
(lp1443
VMonday: Closed
p1444
aVTuesday: 9:30 am \u2013 5:15 pm
p1445
aVWednesday: 9:30 am \u2013 5:15 pm
p1446
aVThursday: 9:30 am \u2013 5:15 pm
p1447
aVFriday: 9:30 am \u2013 8:45 pm
p1448
aVSaturday: 9:30 am \u2013 5:15 pm
p1449
aVSunday: 9:30 am \u2013 5:15 pm
p1450
asVopen_now
p1451
I00
sVperiods
p1452
(lp1453
(dp1454
Vclose
p1455
(dp1456
Vday
p1457
I0
sVtime
p1458
V1715
p1459
ssVopen
p1460
(dp1461
Vday
p1462
I0
sVtime
p1463
V0930
p1464
ssa(dp1465
Vclose
p1466
(dp1467
Vday
p1468
I2
sVtime
p1469
V1715
p1470
ssVopen
p1471
(dp1472
Vday
p1473
I2
sVtime
p1474
V0930
p1475
ssa(dp1476
Vclose
p1477
(dp1478
Vday
p1479
I3
sVtime
p1480
V1715
p1481
ssVopen
p1482
(dp1483
Vday
p1484
I3
sVtime
p1485
V0930
p1486
ssa(dp1487
Vclose
p1488
(dp1489
Vday
p1490
I4
sVtime
p1491
V1715
p1492
ssVopen
p1493
(dp1494
Vday
p1495
I4
sVtime
p1496
V0930
p1497
ssa(dp1498
Vclose
p1499
(dp1500
Vday
p1501
I5
sVtime
p1502
V2045
p1503
ssVopen
p1504
(dp1505
Vday
p1506
I5
sVtime
p1507
V0930
p1508
ssa(dp1509
Vclose
p1510
(dp1511
Vday
p1512
I6
sVtime
p1513
V1715
p1514
ssVopen
p1515
(dp1516
Vday
p1517
I6
sVtime
p1518
V0930
p1519
ssassVvicinity
p1520
V50 Hagiwara Tea Garden Dr, San Francisco
p1521
sVscope
p1522
VGOOGLE
p1523
sVwebsite
p1524
Vhttp://deyoung.famsf.org/
p1525
sVutc_offset
p1526
I-480
sVuser_ratings_total
p1527
I121
sVphotos
p1528
(lp1529
(dp1530
Vphoto_reference
p1531
VCnRwAAAAnAhQlWOfto5CoIgaDgyOio4ougDuBT4sckU-DymWD8d-dkTP0L7F_jZl9hec_F4icvmSw-_9mZfOvqQwCJP4ZAQb9yV6iEFJhd0duhsXG4GfoEx4pywtHo-d6uqHEV07RE5C8RrCQgtoNow0eHzK0xIQ2CXi2l5fg_fvTQgBozCSuhoUyBY_gLEsXejSPmiDQX5fCdCHuqY
p1532
sVwidth
p1533
I953
sVhtml_attributions
p1534
(lp1535
sVheight
p1536
I953
sa(dp1537
Vphoto_reference
p1538
VCnRqAAAAixlqECY39j9wKVt28XXEE8euMSD_AMHDYqy3GGiIcZULWSPBbfr7y6c7UpKPvVoP-l8wgpYejnjgcISAo7BihLqS-8BGRWvgzQAIXH7RbkPf0O0jQiiX_bpEx7-UA80ZuY7z7l8ZBdj7zcw04XO2ixIQG_uySOOfuIdukEQWR5XECBoU4j306G1rgdbHKv340f3-rhMrCck
p1539
sVwidth
p1540
I2048
sVhtml_attributions
p1541
(lp1542
V<a href="https://plus.google.com/107703067300113514526">Cornelius O&#39;Leary Jr</a>
p1543
asVheight
p1544
I1361
sa(dp1545
Vphoto_reference
p1546
VCnRqAAAAW7vflc4oBsp_Opja_0h0vlcvraq7GPmNDXiJ7KxrUoe8XPIIgmG0TY0w4VrbDWneINW1EK-Y4z40CxIAVdl6gMXzgOGA3xPmuvsZPv4X95oKAnyIELt_Cpgq5WmmNbYZw0Duo1IHVurf2ePQH6E5-RIQPE9sdbU4VV5BNABqYShqGRoUtbbKdwFO85TEDbcuFdEX7pbrJ_8
p1547
sVwidth
p1548
I1984
sVhtml_attributions
p1549
(lp1550
V<a href="https://plus.google.com/113173931251785215708">Henning Nielsen</a>
p1551
asVheight
p1552
I1488
sa(dp1553
Vphoto_reference
p1554
VCnRqAAAAEX3bZVxF_9d2jPYZQSDk_mYyYavPbIk3U22yD-pGesO6zZpmgpJd6aT3dwmgM1-TGxlUB0jNMsPf4GMKgXMBYILdSnXkjieYkRBl6Lr7GJ50ADe37601qlOr_DwSyyMn_uDcxYTelqU25qFI2951GxIQCTv0HE6_GTaO1vel5-v06BoU-DAqK4gVofPGochAy61nkIBQwoA
p1555
sVwidth
p1556
I380
sVhtml_attributions
p1557
(lp1558
V<a href="https://plus.google.com/100146962083959904819">Sarah White</a>
p1559
asVheight
p1560
I276
sa(dp1561
Vphoto_reference
p1562
VCnRqAAAAGS6nfI0wahnzuyf5S3V6YhOpRCCweOqgyFJt89ZcAstUf8IQY-iMpKOpm_1IVgLw7m4m1IFQp_hGmoJJQWKKm4wyP_3kmnzZDTpSx9cbF9oDDTKyuvMJZGb80DfiIzsDrCJFJZgkTmllglafjoCOjRIQ9J2aL2qDGEp6cwiElKtxXxoU3fRijp3bzDjmq3UXyCJzrEk_6Q8
p1563
sVwidth
p1564
I2048
sVhtml_attributions
p1565
(lp1566
V<a href="https://plus.google.com/107703067300113514526">Cornelius O&#39;Leary Jr</a>
p1567
asVheight
p1568
I1361
sa(dp1569
Vphoto_reference
p1570
VCnRqAAAAedhsq0gppfzcupldKXKRhoAZ_pPnxQX4ZFk-_uwa0YuM_Mi__x2_GPvT48TGvNiMer6gj8XGBVzhbbxpphItnJNnY9iS2hglzCcT9P6LZpdcpw3YPQTICqCQ078UJAFuLLW2L7MTe5xjrAnJF2FAzRIQAqaVEmcRX7bKjYHBA3aX-BoUVFYyJLJO4OAMkt9ZefwvOuPeJSE
p1571
sVwidth
p1572
I2048
sVhtml_attributions
p1573
(lp1574
V<a href="https://plus.google.com/107703067300113514526">Cornelius O&#39;Leary Jr</a>
p1575
asVheight
p1576
I1361
sa(dp1577
Vphoto_reference
p1578
VCnRqAAAAqDTjv_r9ij9L1BgU0svao0vUQfpvjxTF2Qlv96q4yeqPhEccxZzgZZVE8vxlVTX2npJYXnS__YGl2tBG-dGssnvinm1fQU1sfsKnfa9olaCLWi7WRZhG4tLDvBme_B03nMmNNFTFAzMikQoUQuiRChIQy6-deJwdAYxUjqlbUqcJ7RoUzjiFOqdKntIQgKwDr8CO_tgj-ls
p1579
sVwidth
p1580
I2048
sVhtml_attributions
p1581
(lp1582
V<a href="https://plus.google.com/107703067300113514526">Cornelius O&#39;Leary Jr</a>
p1583
asVheight
p1584
I1361
sa(dp1585
Vphoto_reference
p1586
VCnRqAAAAh16UQrJlF0zIMKTC4d9d_waxbAJAQG5PeI_ywkjPTMunRd01wnvW8l8tLnrUjRNjgQ4wnDL68P-8MRaRYQupAZ7Ugl5J8a9LQ7Abt41m-c6tFr8k_b9VFG-2ZIhtUehkbzG_2HdjM0DpGAvgyfj8BxIQO_s-sVA7_xuD__RAQ36mYhoUz5EpvUjPimM17jvFUnNu8W6Si-o
p1587
sVwidth
p1588
I2048
sVhtml_attributions
p1589
(lp1590
V<a href="https://plus.google.com/107703067300113514526">Cornelius O&#39;Leary Jr</a>
p1591
asVheight
p1592
I1361
sa(dp1593
Vphoto_reference
p1594
VCnRqAAAAl58V3cSwC08cftI1IRKe6WejkoXQ-5VsZJVxs0VD350lCcQVBXDJ_46pR6H4Lu0zE5oYC0S3crAaKcbi8imN5Jor-RpekCV_j5DSz7V1iWs1OJzabsr0V00LqZaxK13m_joix_WYCFTL_gFgSAmkIxIQHX0ivYw29xtPFSuK9BMR2BoUn1mmtGNJRutm5ErghDQcrbKCVt4
p1595
sVwidth
p1596
I2048
sVhtml_attributions
p1597
(lp1598
V<a href="https://plus.google.com/107703067300113514526">Cornelius O&#39;Leary Jr</a>
p1599
asVheight
p1600
I1361
sa(dp1601
Vphoto_reference
p1602
VCnRqAAAAMn2E1t79mHB07b_zIQtRO1GONE8vGzj012YuBw2_CrT72Gf5lHiGjqUTDmR5ixIprjzpgBYfRwSmNaddHn_nqqxSlAcXwDlpTB60B5mWZN-f-o24tw_3wPbWmTTf0KWrRKvjrWmbS6yWtccO6cJSDBIQiuif5gWKB283AtIUr7KhbBoUeZko9WIc832ViYxXoiuwfe_yQuU
p1603
sVwidth
p1604
I2048
sVhtml_attributions
p1605
(lp1606
V<a href="https://plus.google.com/107703067300113514526">Cornelius O&#39;Leary Jr</a>
p1607
asVheight
p1608
I1361
sasVtypes
p1609
(lp1610
Vmuseum
p1611
aVestablishment
p1612
asVicon
p1613
Vhttp://maps.gstatic.com/mapfiles/place_api/icons/museum-71.png
p1614
sVname
p1615
g8
sVgeometry
p1616
(dp1617
Vlocation
p1618
(dp1619
Vlat
p1620
F37.771517
sVlng
p1621
F-122.468733
sssVadr_address
p1622
V<span class="street-address">50 Hagiwara Tea Garden Dr</span>, <span class="locality">San Francisco</span>, <span class="region">CA</span> <span class="postal-code">94118</span>, <span class="country-name">United States</span>
p1623
sVinternational_phone_number
p1624
V+1 415-750-3600
p1625
sVreviews
p1626
(lp1627
(dp1628
Vrating
p1629
I5
sVaspects
p1630
(lp1631
(dp1632
Vrating
p1633
I3
sVtype
p1634
Voverall
p1635
sasVlanguage
p1636
Ven
p1637
sVtext
p1638
VGreat collection of American Art, fantastic location and fun place to visit.  Shows change regularly, the permanent collection of glass, silver and furniture on the second floor is not to be missed. You can take the elevator to the top floor tower and see a 360 degree view of Golden Gate Park, The GG Bridge and all the neighborhoods surrounding the park.  Wonderful gardens around the museum too.  The cafe is super, lots of choices and fast, friendly service; dine inside or take your food to the lovely outdoor tables.  
p1639
sVauthor_name
p1640
VYoni Mayeri
p1641
sVauthor_url
p1642
Vhttps://plus.google.com/105820450885180571966
p1643
sVtime
p1644
I1412362196
sa(dp1645
Vrating
p1646
I5
sVaspects
p1647
(lp1648
(dp1649
Vrating
p1650
I3
sVtype
p1651
Voverall
p1652
sasVlanguage
p1653
Ven
p1654
sVtext
p1655
VI have been to a few major exhibits at this museum and I have to say that it is probably my favorite art museum in San Francisco. The staff here does a great job of presenting their classic collection along with an incredible mixture of popular exhibits and temporary installations that very confidently speak to the zeitgeist of the city. This is an amazing accomplishment. Consider how difficult this must be in a city as cool in San Francisco. But with things like the Warhol exhibit and the Jean Paul Gaultier design timeline tour, the DeYoung maintains its place at the pinnacle of the hyper-cool. Having met the people that work there I can also say that they are truly passionate about translating the method, practice, value, and study of art to their community. This is visible in the balance of fun to academic observation and analysis they have in every showing. There is something here for everyone and it's very presentation and curation is art of an incredible caliber. I could go on.....
p1656
sVauthor_name
p1657
VMisha Metrikin
p1658
sVauthor_url
p1659
Vhttps://plus.google.com/114890117672430115819
p1660
sVtime
p1661
I1413260271
sa(dp1662
Vrating
p1663
I4
sVaspects
p1664
(lp1665
(dp1666
Vrating
p1667
I2
sVtype
p1668
Voverall
p1669
sasVlanguage
p1670
Ven
p1671
sVtext
p1672
VWas lucky enough to visit the O'Keefe exhibit earlier this year and this is museum going at its finest (helped by the fact that the SF MoMa is closed for the next two years so options are currently slim).\u000aOnly giving it four stars since at $25 a pop for admission, this place isn't exactly a bargain. \u000aMake time to visit the Japanese Tea Garden next door and also be sure to go up to the viewing floor for unmatched views of the Presidio and Golden Gate Park.
p1673
sVauthor_name
p1674
VElmer Ayala
p1675
sVauthor_url
p1676
Vhttps://plus.google.com/103969904087092883134
p1677
sVtime
p1678
I1413179353
sa(dp1679
Vrating
p1680
I5
sVaspects
p1681
(lp1682
(dp1683
Vrating
p1684
I3
sVtype
p1685
Voverall
p1686
sasVlanguage
p1687
Ven
p1688
sVtext
p1689
VThe de Young is a beautiful and modern museum. Highly recommended; houses a full collection of African art, Native American textiles, modernism, and more. The tower in the de Young also offers access to an expansive view of both Golden Gate Park and the city.
p1690
sVauthor_name
p1691
VJoyce Tang
p1692
sVauthor_url
p1693
Vhttps://plus.google.com/101092365012450853182
p1694
sVtime
p1695
I1414996654
sa(dp1696
Vrating
p1697
I4
sVaspects
p1698
(lp1699
(dp1700
Vrating
p1701
I2
sVtype
p1702
Voverall
p1703
sasVlanguage
p1704
Ven
p1705
sVtext
p1706
VThis museum has great architecture.   There is a 360 degree overlook in the tower, that is free to access.    The views of the park and bay area are spectacular, but of course dependant on the weather. There are also a sculpture court and maze garden that are free.
p1707
sVauthor_name
p1708
VAnna Hautzinger
p1709
sVauthor_url
p1710
Vhttps://plus.google.com/116136613716129316971
p1711
sVtime
p1712
I1415130977
sasVformatted_phone_number
p1713
V(415) 750-3600
p1714
sVaddress_components
p1715
(lp1716
(dp1717
Vlong_name
p1718
V50
p1719
sVtypes
p1720
(lp1721
Vstreet_number
p1722
asVshort_name
p1723
V50
p1724
sa(dp1725
Vlong_name
p1726
VHagiwara Tea Garden Dr
p1727
sVtypes
p1728
(lp1729
Vroute
p1730
asVshort_name
p1731
VHagiwara Tea Garden Dr
p1732
sa(dp1733
Vlong_name
p1734
VSan Francisco
p1735
sVtypes
p1736
(lp1737
Vlocality
p1738
aVpolitical
p1739
asVshort_name
p1740
VSF
p1741
sa(dp1742
Vlong_name
p1743
VCalifornia
p1744
sVtypes
p1745
(lp1746
Vadministrative_area_level_1
p1747
aVpolitical
p1748
asVshort_name
p1749
VCA
p1750
sa(dp1751
Vlong_name
p1752
VUnited States
p1753
sVtypes
p1754
(lp1755
Vcountry
p1756
aVpolitical
p1757
asVshort_name
p1758
VUS
p1759
sa(dp1760
Vlong_name
p1761
V94118
p1762
sVtypes
p1763
(lp1764
Vpostal_code
p1765
asVshort_name
p1766
V94118
p1767
sassba(ispot
Spot
p1768
(dp1769
g3
I350
sg4
(dp1770
g23
F0.6534435261707989
sg8
F0.6556473829201102
sg9
F0.6225895316804407
sg10
F0.30578512396694213
sg7
F0.1840220385674931
sg11
F0.6661157024793388
sg12
F0.3674931129476584
sg13
F0.2396694214876033
sg14
F0.2798898071625344
ssg15
(dp1771
Vwebsite
p1772
Vhttp://sfrecpark.org/destination/telegraph-hill-pioneer-park/coit-tower/
p1773
sVrating
p1774
F4.1
sVutc_offset
p1775
I-480
sVuser_ratings_total
p1776
I441
sVname
p1777
g6
sVreference
p1778
VCnRkAAAAeRYaE0nKyEWjzOxm-5-M5eccXGwJcRDdkQUC99ExXY_mK1cTNS3JLR6ppB0CP0PeYEBhwFYfXuztKhKpQMaG0RdsXqD5Suy6eBJ0rfzyLt3rTWLUFTjBX710rTC5_tB_8zSzUYSBl0m4RiJKpj6KzBIQJPO-5TWyJzszc-CiuGAziRoU7rM0LYiZ7jPZx93Jljjwe3UFA40
p1779
sVgeometry
p1780
(dp1781
Vlocation
p1782
(dp1783
Vlat
p1784
F37.802395
sVlng
p1785
F-122.405822
sssVadr_address
p1786
V<span class="street-address">1 Telegraph Hill Blvd</span>, <span class="locality">San Francisco</span>, <span class="region">CA</span> <span class="postal-code">94133</span>, <span class="country-name">United States</span>
p1787
sVplace_id
p1788
VChIJAQAAQIyAhYARRN3yIQG4hd4
p1789
sVvicinity
p1790
V1 Telegraph Hill Blvd, San Francisco
p1791
sVreviews
p1792
(lp1793
(dp1794
Vrating
p1795
I4
sVaspects
p1796
(lp1797
(dp1798
Vrating
p1799
I2
sVtype
p1800
Voverall
p1801
sasVlanguage
p1802
Ven
p1803
sVtext
p1804
VCoit tower has recently undergone some renovations.  (Thanks National Trust for Historic Preservation)   The WPA murals on the ground floor are freshly cleaned, and present interesting visions of life in the 1930's SF.   The stairs are out of commission, so you have to take the small elevator up.   The views are spectacular, particularly on a clear day.  The view from the ground level parking area is also not bad.   On the way down,  try the steps toward the Embarcadero,  very great insights into lush backyards.
p1805
sVauthor_name
p1806
VAnna Hautzinger
p1807
sVauthor_url
p1808
Vhttps://plus.google.com/116136613716129316971
p1809
sVtime
p1810
I1415218790
sa(dp1811
Vrating
p1812
I4
sVaspects
p1813
(lp1814
(dp1815
Vrating
p1816
I2
sVtype
p1817
Voverall
p1818
sasVlanguage
p1819
Ven
p1820
sVtext
p1821
VAn understated icon of San Francisco. Perched on a rocky hill in the middle of the city's core, this art deco styled tower has impressive views from both it's base and it's viewing platform. Well worth the hike up the hill. Parking anywhere nearby is not going to happen, so take that into account.
p1822
sVauthor_name
p1823
VTyler Harding
p1824
sVauthor_url
p1825
Vhttps://plus.google.com/110357160824479158301
p1826
sVtime
p1827
I1412053153
sa(dp1828
Vrating
p1829
I4
sVaspects
p1830
(lp1831
(dp1832
Vrating
p1833
I2
sVtype
p1834
Voverall
p1835
sasVlanguage
p1836
Ven
p1837
sVtext
p1838
VAlthough no amazing heights, it's worth a trip if visiting SF.  Tickets are inexpensive and usually a short wait for the elevator ride up.  The inside at the bottom of the tower has beautifully painted murals and the gift shop has all the typical touristy stuff (mugs, maps, shirts, etc).  Depending on your journey to the tower, you can walk to the steep hill from North Beach for added exercise.  \u000aAnd the view from the top is nice, provided it's a clear day!  Pretty small, so be prepared to share windows to look out.
p1839
sVauthor_name
p1840
VLauren Pinheiro
p1841
sVauthor_url
p1842
Vhttps://plus.google.com/106990768782331898857
p1843
sVtime
p1844
I1400785941
sa(dp1845
Vrating
p1846
I5
sVaspects
p1847
(lp1848
(dp1849
Vrating
p1850
I3
sVtype
p1851
Voverall
p1852
sasVlanguage
p1853
Ven
p1854
sVtext
p1855
VToughed it up the stairs. Enjoyed the view from the base and the stiff breeze. Didn't bother to go to the top. 
p1856
sVauthor_name
p1857
VYvette Skinner
p1858
sVauthor_url
p1859
Vhttps://plus.google.com/116618204309104641755
p1860
sVtime
p1861
I1414728878
sa(dp1862
Vrating
p1863
I5
sVaspects
p1864
(lp1865
(dp1866
Vrating
p1867
I3
sVtype
p1868
Voverall
p1869
sasVlanguage
p1870
Ven
p1871
sVtext
p1872
VOne of, if not best view of city skyline along with both bridges(if no fog, of course) saw one of last full moon eclipses there years ago. Magical it lasted so long. Got a good contact high, too. No rag-weed, for sure.
p1873
sVauthor_name
p1874
VRaymond Alvarez
p1875
sVauthor_url
p1876
Vhttps://plus.google.com/113755175842025386880
p1877
sVtime
p1878
I1405827204
sasVphotos
p1879
(lp1880
(dp1881
Vphoto_reference
p1882
VCnRoAAAATN_neHlMHl8CSxJ2F1HLEQNZ1d4HeLTr-goJb8tqH3bRLw6s4XdT4eEZy9c0gbCa1aOZd6UpPjkqnrVApkC2BcR_S79asyTAvLlU_a8z2pOvKI_NsPW_xQW_RVnlEs3FQ_n9caIYuciw-LgjYAEpbBIQcdeyY2BE6EK0q0WF7sbn6hoUqo0YFadcYyn-nEmAMOMywLtEd88
p1883
sVwidth
p1884
I1268
sVhtml_attributions
p1885
(lp1886
V<a href="https://plus.google.com/116596226154549124014">Kee Wook Lee</a>
p1887
asVheight
p1888
I947
sa(dp1889
Vphoto_reference
p1890
VCnRqAAAAXPD1bleIUIHttWz3uBwg8z3iOn4zgJfdpI1lOP5T4nc8t0pVbXxpxDxUq7peWbdYjbhhquu-s4lGh6qgdCZ1iDr432TJN15bZx1yB-kK-brsrL-fDOK5CtJRC3QmUKEK5NZDN-C_Ol9G6Wm_s2MY7xIQZIlRyI4RdjzUTeLuCVF4rhoUS58ZvpISlN-KbU58H_xCx-At_v8
p1891
sVwidth
p1892
I768
sVhtml_attributions
p1893
(lp1894
VFrom a Google User
p1895
asVheight
p1896
I1024
sa(dp1897
Vphoto_reference
p1898
VCnRlAAAAuze7YtsgfqA-Fj8Fl83-BCjaFJ0SzhmPn53PkeU3qOD-CxAPpZ433eW8W2Lui60M1H2cBDNdR6-WVxRE6bpoxWqil5ZHy8h3Gv9N7Mr8yMPYFT8fM5SKhReyl-h0gxevXNVN1KXSVMkAHLgwzUXObhIQJz4P5GPLs25lN6JqxO093RoU7PNqWqkobNpcn3uRLM5Yk88VlNw
p1899
sVwidth
p1900
I4608
sVhtml_attributions
p1901
(lp1902
V<a href="https://plus.google.com/113186450052791933529">Joseph D&#39;Angelo</a>
p1903
asVheight
p1904
I3456
sa(dp1905
Vphoto_reference
p1906
VCnRqAAAAJy7rGF2rdzSjnUIlArmiL6fuEc7anLgTQIEF-ti8xsd03VJl9jiOc8ZPbn8naTLT_zGsp5ExgEGJ6B93R0DQNJZE37NIuTFtHlfasmw-mWZBfUkEgjgDAvYL2ASknYx-u0YZjjvsOI-TadMT8NFZOBIQBdR_Ty7Lj3QAdydyAZQphBoUwpcZ8t9p1WWHr83C62EiXBS2b8I
p1907
sVwidth
p1908
I1296
sVhtml_attributions
p1909
(lp1910
V<a href="https://plus.google.com/114529464953149651619">Kim Nath</a>
p1911
asVheight
p1912
I776
sa(dp1913
Vphoto_reference
p1914
VCpQBigAAACTgRHSqpUxLhelxNNRr567T_cix_ANRw2LGjSx3qR0zjV10Jr1nau6UaHZeXsooYKYPzjsAu9jZpYeebdFk-2Hnu5-MCymVetkS2BHjtzIYuDcHQg6GFwlFrcS7SLyAOV8SC_58IH2yU2ZScnakdM4zpe4YKBPVB8fn50ig5ClgO-j8nFCKzPLB_3nrBsE5-xIQOzuTrnRiBxfvd2dyb6HrERoUdU2q5XTz92d9SJIpbel1o_4vFO0
p1915
sVwidth
p1916
I2048
sVhtml_attributions
p1917
(lp1918
V<a href="https://plus.google.com/102156534886423108007">Peter Rehberg</a>
p1919
asVheight
p1920
I1362
sa(dp1921
Vphoto_reference
p1922
VCnRqAAAAqz3_5lNhu878TRq_tDQGfPqWdIrQksf-vEWsP3rEOX3fRtml5olyZFblGoyQYOM526RwLMSdECs2KkDd0KnN8KSXRU8CAX3n3Y2q8ArnDAhNMA6nB95akAQXv7uQa2wx60RRvS5PAiaWCeb_fFhBmRIQ-ea-YYG9SPbrf2ay4n3_cRoUqWh82A4RjVr5bNwAN5q4fOomppM
p1923
sVwidth
p1924
I768
sVhtml_attributions
p1925
(lp1926
V<a href="https://plus.google.com/108274069435520984069">cesar maldonado</a>
p1927
asVheight
p1928
I1024
sa(dp1929
Vphoto_reference
p1930
VCuQB1wAAAFHkBjHuFbByMm0aydmqTmo8gR9mBCHCi542KGMQqnz1NkP-ys54fgcmVtZ660RTrWJk9A-fjDCopAZHBYpwh6VgiT_AmjuAU4DsoFVHFg24u7_tkRIsNd1JYRuAqodP4inzfhmdAe8MWmzWnwURHykS97OTEFDMtGOTb_DYJdPqtR6FT5Jgrxne_Vm9Q0nJJ9okhYlLvrtZfPzstPu8Cc6wsfY2hTWfg57HGR5TSimauM3SWnmnugxJi-z5pEq0979bgomJTOFiXZiZWzzgqeUtf1Cmaa9aMiA-_g_CjM7YEhD3QhxJBKje_O4yUXqjvxLtGhS5LLsCfwZwtSSXY0kT9qV2A5sLzQ
p1931
sVwidth
p1932
I1866
sVhtml_attributions
p1933
(lp1934
V<a href="https://plus.google.com/113837235805581391057">P Kusserow</a>
p1935
asVheight
p1936
I2048
sa(dp1937
Vphoto_reference
p1938
VCnRoAAAAyiiFIkdB3CdCyL8Xfl3MKENjiPktqzrCd6FO8_peOPeAPSITSDF3cU7xIbXNdRf6GGMHCtmXCykjquhVZDMqbCnlDadoTh5VG5sTQtK_vq2V6nLClhkTN03vXvscQ-H1Wg7Jc7Xp0K90A4o7hff-oxIQqeOntpIT6Bdwg5LzAkgsNBoU1XVOiD1uq8GXSDXN3LBoKJEYqgI
p1939
sVwidth
p1940
I949
sVhtml_attributions
p1941
(lp1942
V<a href="https://plus.google.com/108568994711421183759">Harish S</a>
p1943
asVheight
p1944
I1265
sa(dp1945
Vphoto_reference
p1946
VCrQBowAAAGMPs91XNxhD4091b9BFaSjdO6z2O50o_TUwzjKTRTLQRVQSvqjjPm_A7bBTOYv20UXq9nkicsid0MsmcpBfDlR4xZRmUmL4oOEV-9VkljCLNkEW_DiQ5uBqx_jVTHSUeAAYngpjLocYFVDna25zeXLR0Jye4SzGLluVvT2fXJIv1-M0pgoQXW99kdtjArw5z8brWg7EMj3zaPqrAQLU04-dWxZMdDfnAP9SnM1rQG-uEhAp37LgTrmcvag758HabgQbGhTCc4COlacS2lMPR1m5Kh1w5GsuJQ
p1947
sVwidth
p1948
I2048
sVhtml_attributions
p1949
(lp1950
V<a href="https://plus.google.com/104908431756212890221">Jay E. Jenkins</a>
p1951
asVheight
p1952
I1468
sa(dp1953
Vphoto_reference
p1954
VCnRsAAAAnfTAY4EVTiFxzNLxWXwC-QddeTGCOowJTbw0JV_jWNUQhpmIIGzqVqlrtTTz6_qCFSvKTeJfEYKPw-fnZLYk9E4o2CcdvVoMbpojZhLKY55JLMz6gFbX6u9BH35mQZKlJSOHOMrTwP_64H8EYJ0L-RIQGwvVaLUoudKqmhSpd7XVJhoUM9lxtKN0y2ZvcFng35yCMAqmEcs
p1955
sVwidth
p1956
I512
sVhtml_attributions
p1957
(lp1958
V<a href="https://plus.google.com/106558039864076309587">Fototaker Sf</a>
p1959
asVheight
p1960
I768
sasVurl
p1961
Vhttps://plus.google.com/101183959756635433266/about?hl=en-US
p1962
sVscope
p1963
VGOOGLE
p1964
sVaddress_components
p1965
(lp1966
(dp1967
Vlong_name
p1968
V1
p1969
sVtypes
p1970
(lp1971
Vstreet_number
p1972
asVshort_name
p1973
V1
p1974
sa(dp1975
Vlong_name
p1976
VTelegraph Hill Blvd
p1977
sVtypes
p1978
(lp1979
Vroute
p1980
asVshort_name
p1981
VTelegraph Hill Blvd
p1982
sa(dp1983
Vlong_name
p1984
VSan Francisco
p1985
sVtypes
p1986
(lp1987
Vlocality
p1988
aVpolitical
p1989
asVshort_name
p1990
VSF
p1991
sa(dp1992
Vlong_name
p1993
VCalifornia
p1994
sVtypes
p1995
(lp1996
Vadministrative_area_level_1
p1997
aVpolitical
p1998
asVshort_name
p1999
VCA
p2000
sa(dp2001
Vlong_name
p2002
VUnited States
p2003
sVtypes
p2004
(lp2005
Vcountry
p2006
aVpolitical
p2007
asVshort_name
p2008
VUS
p2009
sa(dp2010
Vlong_name
p2011
V94133
p2012
sVtypes
p2013
(lp2014
Vpostal_code
p2015
asVshort_name
p2016
V94133
p2017
sasVformatted_address
p2018
V1 Telegraph Hill Blvd, San Francisco, CA 94133, United States
p2019
sVid
p2020
Vb29bfcfc1c01d4fb92de2cb3e5bc1c18fc3fb446
p2021
sVtypes
p2022
(lp2023
Vestablishment
p2024
asVicon
p2025
Vhttp://maps.gstatic.com/mapfiles/place_api/icons/generic_business-71.png
p2026
ssba(ispot
Spot
p2027
(dp2028
g3
I400
sg4
(dp2029
g6
F0.6887052341597796
sg23
F0.5674931129476584
sg8
F0.0
sg10
F0.5493112947658402
sg7
F0.5278236914600551
sg11
F0.6534435261707989
sg12
F0.5432506887052342
sg13
F0.5707988980716253
sg14
F0.5129476584022039
ssg15
(dp2030
Vrating
p2031
F4.4
sVreference
p2032
VCoQBdwAAANxwRBfth1UgPIPI1Z3LLKhelAc-paBFqVCQX1TUNkitCFfms8kaAyPyb0J9bZ-rLhW9wh2a4fKDo0NrrFr1IqBh5yN-zRl83k7dl6B8u5kyqbmUxSXk80llEDKhUa324qbwVQeFPFn4Z0z5I_HCnnRpJzhzrBnxSwrD9-AmMHvhEhA6yITbsa_wKrO2gFx_ti3rGhRundtYwG3XHLUHDDi7yXOBtG4P-Q
p2033
sVprice_level
p2034
I3
sVplace_id
p2035
VChIJIUT7rEOHhYARucp3wM-HhBs
p2036
sVurl
p2037
Vhttps://plus.google.com/116851551368109810342/about?hl=en-US
p2038
sVformatted_address
p2039
V55 Music Concourse Dr, San Francisco, CA 94118, United States
p2040
sVid
p2041
Vd920c64674d4af2f684358adccbdf3f04eb70002
p2042
sVopening_hours
p2043
(dp2044
Vweekday_text
p2045
(lp2046
VMonday: 9:30 am \u2013 5:00 pm
p2047
aVTuesday: 9:30 am \u2013 5:00 pm
p2048
aVWednesday: 9:30 am \u2013 5:00 pm
p2049
aVThursday: 9:30 am \u2013 5:00 pm
p2050
aVFriday: 9:30 am \u2013 5:00 pm
p2051
aVSaturday: 9:30 am \u2013 5:00 pm
p2052
aVSunday: 11:00 am \u2013 5:00 pm
p2053
asVopen_now
p2054
I00
sVperiods
p2055
(lp2056
(dp2057
Vclose
p2058
(dp2059
Vday
p2060
I0
sVtime
p2061
V1700
p2062
ssVopen
p2063
(dp2064
Vday
p2065
I0
sVtime
p2066
V1100
p2067
ssa(dp2068
Vclose
p2069
(dp2070
Vday
p2071
I1
sVtime
p2072
V1700
p2073
ssVopen
p2074
(dp2075
Vday
p2076
I1
sVtime
p2077
V0930
p2078
ssa(dp2079
Vclose
p2080
(dp2081
Vday
p2082
I2
sVtime
p2083
V1700
p2084
ssVopen
p2085
(dp2086
Vday
p2087
I2
sVtime
p2088
V0930
p2089
ssa(dp2090
Vclose
p2091
(dp2092
Vday
p2093
I3
sVtime
p2094
V1700
p2095
ssVopen
p2096
(dp2097
Vday
p2098
I3
sVtime
p2099
V0930
p2100
ssa(dp2101
Vclose
p2102
(dp2103
Vday
p2104
I4
sVtime
p2105
V1700
p2106
ssVopen
p2107
(dp2108
Vday
p2109
I4
sVtime
p2110
V0930
p2111
ssa(dp2112
Vclose
p2113
(dp2114
Vday
p2115
I5
sVtime
p2116
V1700
p2117
ssVopen
p2118
(dp2119
Vday
p2120
I5
sVtime
p2121
V0930
p2122
ssa(dp2123
Vclose
p2124
(dp2125
Vday
p2126
I6
sVtime
p2127
V1700
p2128
ssVopen
p2129
(dp2130
Vday
p2131
I6
sVtime
p2132
V0930
p2133
ssassVvicinity
p2134
V55 Music Concourse Dr, San Francisco
p2135
sVscope
p2136
VGOOGLE
p2137
sVwebsite
p2138
Vhttp://www.calacademy.org/
p2139
sVutc_offset
p2140
I-480
sVuser_ratings_total
p2141
I629
sVphotos
p2142
(lp2143
(dp2144
Vphoto_reference
p2145
VCnRnAAAAnpfh_dEC_vplz_ZuLluj1ILg9Oacr1wvWs_I0Fi5YuQSZgjb2dA2P1iQasMZiyKhX0Rj6rDcbxPzIqjWxNDFzrnD9Me6wlnZerVijDoTEA-m9Xi3AxyHyq01c0_9C70JPsQUvAs6IM5-CCrF6JtuEBIQSIcOS1cEBBeMxjxQ1bJN6BoUDNsttpa97ciltTu6wXB9AnTxj_U
p2146
sVwidth
p2147
I640
sVhtml_attributions
p2148
(lp2149
sVheight
p2150
I427
sa(dp2151
Vphoto_reference
p2152
VCnRnAAAArLnwjUJBwfDVs_gIMj4vHSnYqY7OJfwOP5WsTepI2VxuxcXankMCcXRy1431kImI9-JWIvmhlFGSSruEWkYVYb0LqcfIm-7x_1iFqsGfKhH96XIoAoogfLCHrXGzZkmCmmB_T_d5Jq0Jn2wzZW1s6hIQ8fCYct5RALjwmnzAiIIjnBoUy3WD1cD8cAioBtrlCkTYRSISxGg
p2153
sVwidth
p2154
I482
sVhtml_attributions
p2155
(lp2156
sVheight
p2157
I640
sa(dp2158
Vphoto_reference
p2159
VCnRnAAAAklYu1z-ZmCTJ6ULgh8IKop4QU7w12P8GwegRid3VgZ4YkripGuJX6TPitL94-H1pBDqxbV5it2sf3WySqpOYQQgOF2lsfaqo68_ot2XYco3xIJrWy6Vn671yfVM_QCgTUFyWdlidPWYEeLwvYloFjBIQuU37BnOfrR02syJxEci82xoUzTM-rj8dEMSqHV8Kb2Qwo6tvW3I
p2160
sVwidth
p2161
I640
sVhtml_attributions
p2162
(lp2163
sVheight
p2164
I427
sa(dp2165
Vphoto_reference
p2166
VCnRnAAAA5oQSG3VQbRZoz2Bl6JuM1nzHnT0Be25XugXKF4e-dXyBoJIOQ5_Tr5hfsm_Fne09nvhUtXH-dMeybgYFT_JnGeuYMY0-7wFlF0wChf9GsCv4rApZlTwa7yZnFvdyMT9y96pR4qXHBnOcYtu0zdnwAhIQ7s359HsiEYBDSvIXWiJniBoUySpcXDvb4NSRhFbsjSQhEZFHomA
p2167
sVwidth
p2168
I640
sVhtml_attributions
p2169
(lp2170
sVheight
p2171
I427
sa(dp2172
Vphoto_reference
p2173
VCnRnAAAANd6xQVAlzO88XKMJCTFG8WJu1AAP1A57t7_5l64n1aOEtnk7ZCrB_FJsuiFcEF0BKGknO_d9AhV46bZQMl64QStN8u9pmeIroLPTB8k7LxU67wUqNWQZe_i_QABmdm1evZFtinM-DFf24HWNbDlHtBIQgFfJJ2vqxsxI9kUO3PSxrBoUngObSQujeA_X5GvJFq_fXj-vYak
p2174
sVwidth
p2175
I640
sVhtml_attributions
p2176
(lp2177
sVheight
p2178
I457
sa(dp2179
Vphoto_reference
p2180
VCnRnAAAAO0i3cmb_M1SzgEE1iwBDWD9aA7SFcQbf1cQ8GeXM7QWeVKgmJFvx5rNcwUSR9Cfqe6W4ccQ_qvQwHJd6ZiGVFZQK7PLfrY1H4J9QMgIGgG9Ib7z4CJRd5DTF9JvmQPybmWgTWMQlVOhKQGVbdV2SRRIQjrGnJ7qiA7aJ8VHEckOwaRoUnUBGBlp7kYNnbO9NOQZqpb7-K8s
p2181
sVwidth
p2182
I640
sVhtml_attributions
p2183
(lp2184
sVheight
p2185
I480
sa(dp2186
Vphoto_reference
p2187
VCnRnAAAAT4y2gJ7pJX3ouV0b_xrrO7mMx-lZ8nXmTCrW72faXVzwEs-zqQG-L5gH4HIZVkgfd2_-Tav4HoThCEzsHOyXb1Ty25BwdEXhrIPVTHhCO301WhUEFFi3M0DAcz-WwvA6M3LkZfyeGazGT0gdkPK-IBIQ0kEfJ5NyvC4-_GXvKSeR7xoUOT5gEmxxKL8XE504ePrhyw5sKXQ
p2188
sVwidth
p2189
I562
sVhtml_attributions
p2190
(lp2191
sVheight
p2192
I640
sa(dp2193
Vphoto_reference
p2194
VCnRnAAAAyhvWs84rdqlS19WgcW3uqq-tv5p4z0eDeT0WTml8qcP1VUvFpGnRXzSi8Jcd52lY1eEVhqah8H0qUi3XPFexLBk2NT8igHQjgyvfR-F9l1sSid8dq5c9ujc1l0A2mN6KbTPus9vVMt6fvJS8kzT0aBIQ2sw66mld5Ghx6XEU-waOlhoUhdrHoUPXZeoAL22KHdozEtHEmt0
p2195
sVwidth
p2196
I640
sVhtml_attributions
p2197
(lp2198
sVheight
p2199
I443
sa(dp2200
Vphoto_reference
p2201
VCnRqAAAA0f9Yx5hYGNsFaIq9V9RtLxOuz55ZQt9nUu6p51P8OfH3F2CF6nFVdvkziV5OOl-3PfTdNC00cFFMc2rI3Ay2pSHCrQy0vC_A_Eyq4Bk1eGvwhCUlD3O-4kuuIcSCEwi4gLXoq4OILqhUoMaRntfstRIQjC8oWHnAFMkSxOSIQyiRWRoUI3nu6JtZshyQENnt-O7s3jvIL24
p2202
sVwidth
p2203
I2048
sVhtml_attributions
p2204
(lp2205
V<a href="https://plus.google.com/104847770319584345133">Shiraz Siddiqui</a>
p2206
asVheight
p2207
I1536
sa(dp2208
Vphoto_reference
p2209
VCnRmAAAAd1wRt_6HV3IPUDWf1HrFBUCezQF8-qT0cYoa9WkIVfv79UgjkMKJtjvHWfnL0agsqtk91m7aCUDT0yTZPwiHT0uf7hxo81pqCZoCVxujRoIk3E8610F6xN1mhot4Olr-zRTvYXtKRMH6KfYYInGhuhIQpZN90WRPC-_xpYAQiM0DgRoUufO985A5xOc3JYKhpSH0wX4PEBQ
p2210
sVwidth
p2211
I533
sVhtml_attributions
p2212
(lp2213
V<a href="https://plus.google.com/116600105708585783882">Edwin Ragadio</a>
p2214
asVheight
p2215
I400
sasVtypes
p2216
(lp2217
Vaquarium
p2218
aVmuseum
p2219
aVestablishment
p2220
asVicon
p2221
Vhttp://maps.gstatic.com/mapfiles/place_api/icons/aquarium-71.png
p2222
sVname
p2223
g9
sVgeometry
p2224
(dp2225
Vlocation
p2226
(dp2227
Vlat
p2228
F37.769865
sVlng
p2229
F-122.466095
sssVadr_address
p2230
V<span class="street-address">55 Music Concourse Dr</span>, <span class="locality">San Francisco</span>, <span class="region">CA</span> <span class="postal-code">94118</span>, <span class="country-name">United States</span>
p2231
sVinternational_phone_number
p2232
V+1 415-379-8000
p2233
sVreviews
p2234
(lp2235
(dp2236
Vrating
p2237
I5
sVaspects
p2238
(lp2239
(dp2240
Vrating
p2241
I3
sVtype
p2242
Voverall
p2243
sasVlanguage
p2244
Ven
p2245
sVtext
p2246
VThis is one of the best experiences and values in the city.  This has great night time programs for young adults with music and drinks.  During the daytime this museum showcases the diversity of the whole Bay Area.  You get to explore ecology through the wonderful ECO-dome (biosphere).  The planetarium is fabulous and you get to see the pendulum.  Overall great experience and wonderful for both kids and adults.  Buy the year long membership for your best value.
p2247
sVauthor_name
p2248
Vrobert leung
p2249
sVauthor_url
p2250
Vhttps://plus.google.com/115943204529468844278
p2251
sVtime
p2252
I1416256114
sa(dp2253
Vrating
p2254
I4
sVaspects
p2255
(lp2256
(dp2257
Vrating
p2258
I2
sVtype
p2259
Voverall
p2260
sasVlanguage
p2261
Ven
p2262
sVtext
p2263
VThe Academy of sciences has an amazing aquarium complex that takes a long time to explore and see completely. The layout can be a bit confusing at first, but the high quality exhibits and the signage help. I really like their super small mini aquarium showcasing one tiny type of shrimp or crab, they are very detailed and neat.\u000aTheir biosphere/dome is really cool too, it has a lot to see and spend time in. It's a one way trip: when you get in, you look at things, walk to the top, and take an elevator to exit into the aquarium.\u000aI expected more hands-on things but I guess that's for the Exploratorium.\u000aTheir planetarium, while limited in seats (get a pass as soon as you arrive!) is cool. \u000aI went for the 21+ Thursday night events, which are great, and with a theme, but get very very crowded.
p2264
sVauthor_name
p2265
VJulian Fessard
p2266
sVauthor_url
p2267
Vhttps://plus.google.com/112118270664425522168
p2268
sVtime
p2269
I1412989932
sa(dp2270
Vrating
p2271
I5
sVaspects
p2272
(lp2273
(dp2274
Vrating
p2275
I3
sVtype
p2276
Voverall
p2277
sasVlanguage
p2278
Ven
p2279
sVtext
p2280
VUPDATING TO 5 stars!!!\u000aGot to go here for a city experts event... it was amazing! We got to listen to the tank diver talk about the awesome reef tank, and the older lady docent was awesome about telling us about all the fish and the alligators. Now that I'm expecting I can't wait to take my daughter here to watch all the fish swim by in the tanks, then travel to african savanna and see the zebras\u000a\u000aPrevious:\u000aOk so we all go here on field trips as kids and that's a memory that we hold dear. So you can imagine my surprise as an adult when I came here for one of their nightlife events and the whole inside was changed. It was really disorienting, but I do have to say they new design was still really awesome.\u000a\u000aHOWEVER, once I got acclimated to the changes, I actually had a pretty good time. I took glass with me and my favorite part was the tide pools. The staff were awesome and let me record them talking about the starfish. It made my night really special!!\u000a\u000aDefinitely checkout the nightlife events!!! Fish,dancing, & fun how can you go wrong???
p2281
sVauthor_name
p2282
VShauna Mork
p2283
sVauthor_url
p2284
Vhttps://plus.google.com/110513218467589779477
p2285
sVtime
p2286
I1411720448
sa(dp2287
Vrating
p2288
I5
sVaspects
p2289
(lp2290
(dp2291
Vrating
p2292
I3
sVtype
p2293
Voverall
p2294
sasVlanguage
p2295
Ven
p2296
sVtext
p2297
VI dined there last night for the first time and were very happy with the food and the service! He loved the Cioppino with lots of Maine lobster / shrimp / mussels / clams / fish calamari / scallops and shellfish vegetable broth! I loved my Chilean Sea Bass and we both love our Field Greens Salad! We'll be back!
p2298
sVauthor_name
p2299
VElinor Newell
p2300
sVauthor_url
p2301
Vhttps://plus.google.com/106242117275472828307
p2302
sVtime
p2303
I1416251545
sa(dp2304
Vrating
p2305
I5
sVaspects
p2306
(lp2307
(dp2308
Vrating
p2309
I3
sVtype
p2310
Voverall
p2311
sasVlanguage
p2312
Ven
p2313
sVtext
p2314
VThis place is amazing and one of the most impressive places to take a brainy date to. They have these Night-Life events that take place every Thursday and the theme is basically, science meets pop culture, meets a ginger tonic. It is incredibly fun and very hipster approved in my opinion. The drinks are not cheap of course, but the entrance tickets are at only $12 per person. They even have live-ostrich babies! If you can't win date of the year here then you're standing in the wrong museum. OH! and check out the starlight from the living roof exhibit, and get there early to catch the planetarium as it fills up in an instant.
p2315
sVauthor_name
p2316
VMisha Metrikin
p2317
sVauthor_url
p2318
Vhttps://plus.google.com/114890117672430115819
p2319
sVtime
p2320
I1413259773
sasVformatted_phone_number
p2321
V(415) 379-8000
p2322
sVaddress_components
p2323
(lp2324
(dp2325
Vlong_name
p2326
V55
p2327
sVtypes
p2328
(lp2329
Vstreet_number
p2330
asVshort_name
p2331
V55
p2332
sa(dp2333
Vlong_name
p2334
VMusic Concourse Dr
p2335
sVtypes
p2336
(lp2337
Vroute
p2338
asVshort_name
p2339
VMusic Concourse Dr
p2340
sa(dp2341
Vlong_name
p2342
VSan Francisco
p2343
sVtypes
p2344
(lp2345
Vlocality
p2346
aVpolitical
p2347
asVshort_name
p2348
VSF
p2349
sa(dp2350
Vlong_name
p2351
VCalifornia
p2352
sVtypes
p2353
(lp2354
Vadministrative_area_level_1
p2355
aVpolitical
p2356
asVshort_name
p2357
VCA
p2358
sa(dp2359
Vlong_name
p2360
VUnited States
p2361
sVtypes
p2362
(lp2363
Vcountry
p2364
aVpolitical
p2365
asVshort_name
p2366
VUS
p2367
sa(dp2368
Vlong_name
p2369
V94118
p2370
sVtypes
p2371
(lp2372
Vpostal_code
p2373
asVshort_name
p2374
V94118
p2375
sassba(ispot
Spot
p2376
(dp2377
g3
I450
sg4
(dp2378
g6
F0.2440771349862259
sg23
F0.6462809917355372
sg8
F0.41818181818181815
sg9
F0.3851239669421488
sg10
F0.0765840220385675
sg7
F0.06942148760330578
sg11
F0.4132231404958678
sg12
F0.22258953168044077
sg13
F0.09807162534435261
ssg15
(dp2379
Vrating
p2380
F3.7
sVreference
p2381
VCoQBegAAANC4u2Pxbb_j0u8gkhhRh0PamI1Z3ZVC8JCsNiD4xQVEm_WG_6qd9IHpUlLFu9GgJ6ccvv1dwTJDXyfyMnqJX1_DIDbWvPjJIdXkBT1no4YzrUq0pqZrIwGNqqzSSudjVoJfIQACaK0eKectOhBJ-lXdfb9kFeSTe0o01bQozKTREhCCwM42OmQAgykrIwh2MKxJGhR1vTxgN1AsPuDZSTwJK-m9WnAM2w
p2382
sVplace_id
p2383
VChIJeSJHoI-AhYARembxZUVcNEk
p2384
sVurl
p2385
Vhttps://plus.google.com/107152743865247750438/about?hl=en-US
p2386
sVformatted_address
p2387
V333 O'Farrell St, San Francisco, CA 94102, United States
p2388
sVid
p2389
Vaaf2a7c4b9188218ab8dcb935cad388ab21ca4ab
p2390
sVopening_hours
p2391
(dp2392
Vweekday_text
p2393
(lp2394
VMonday: Open 24 hours
p2395
aVTuesday: Open 24 hours
p2396
aVWednesday: Open 24 hours
p2397
aVThursday: Open 24 hours
p2398
aVFriday: Open 24 hours
p2399
aVSaturday: Open 24 hours
p2400
aVSunday: Open 24 hours
p2401
asVopen_now
p2402
I01
sVperiods
p2403
(lp2404
(dp2405
Vopen
p2406
(dp2407
Vday
p2408
I0
sVtime
p2409
V0000
p2410
ssassVvicinity
p2411
V333 O'Farrell St, San Francisco
p2412
sVscope
p2413
VGOOGLE
p2414
sVwebsite
p2415
Vhttp://www3.hilton.com/en/hotels/california/hilton-san-francisco-union-square-SFOFHHH/index.html?WT.mc_id=zMKWASR0AA1HN2OLS3GooglePlusBusiness4GPBPT5SFOFHHH
p2416
sVutc_offset
p2417
I-480
sVuser_ratings_total
p2418
I206
sVphotos
p2419
(lp2420
(dp2421
Vphoto_reference
p2422
VCnRnAAAAuSfP3vLhIGmKotsucrl58_qXTXUSzbnJKUkHOf1HtYtrDofI34701LT3z4-wrY1fnHCUum--E0Al-ekybOEt4RzNHIAgaLTg2040L6mUh52rDt6g2QKkI3_BC2c1cZ7ZroPeS37TyhHll0_ngys6uxIQgcGstpyCt_bgQua24y1xOBoUOYD_ybYEhSZvKX3caIwYje-r6fg
p2423
sVwidth
p2424
I2048
sVhtml_attributions
p2425
(lp2426
sVheight
p2427
I1365
sa(dp2428
Vphoto_reference
p2429
VCnRnAAAAsfwKu6gqqGmOzCATCKAdyQVAZhTJnXup-avULLbVD5-uzTsKdbhrCOH1OqKaOyUHZXfFM-PTGlPGG04AhYdiwm0XXuGkKOAe0FJgYM9zup6yOY9Sd-hYeS4Y3lQXBAy6Dwhr-inJdNaDeLeh-cDQZxIQ967x6V_fqkzw8uzXJhaoBBoUpIzriWMkx6YvpADdN1bDJn5TJjw
p2430
sVwidth
p2431
I2048
sVhtml_attributions
p2432
(lp2433
sVheight
p2434
I1365
sa(dp2435
Vphoto_reference
p2436
VCnRnAAAAdHJPKjpnWCSR5K5hpDRf0t0hlwM9mtbSrVniETzdAnXLDJYtAiBrF43gD3UprJ1dtcM5RtK7CC2dauYrWxcsorVeZoTb5B36eC_pWxbToUxCM6hecbMWIHPioSn0ou9qMrCcLU199Q4xv9ErZ0udkRIQNHFwvZoeLmVV8eTXCKTduhoU3d_RqC8xIgzyeH1CeCJXqfhF1i0
p2437
sVwidth
p2438
I1312
sVhtml_attributions
p2439
(lp2440
sVheight
p2441
I2048
sa(dp2442
Vphoto_reference
p2443
VCnRnAAAAQiXErPvMePIgFsVNUEacOloqRKuKb9vJwoBTvLb8Kb5CnsTiMclU1Q26mGKuRoVfQ-v1zk3cLCDur1P1ICqQk1wjcyYSz0v-UZbl0-TMrRFOiiFPKekAdGbE2Q9fDsf4pd0R7W2NDRdhcYlYYTb_mBIQmsJ0yky_CZbZSPh2mw1VJhoUVtWebUWCbL5NUItxHA5-m8yZ9kE
p2444
sVwidth
p2445
I2048
sVhtml_attributions
p2446
(lp2447
sVheight
p2448
I1365
sa(dp2449
Vphoto_reference
p2450
VCnRnAAAAw3LHs5gXTqMHWLL8gKbA35CFfWp79E0Pb_hfzRYm-ygJKuYB8EbZkvgMlRSmUko-QMBwZLxNg26GrvJ8WupEN0DO57sNsbOxs7Du2QMzTJvR9GnBAVifQBvTZcQTR3huaoxsGd6OOkSvqOjpExtmrBIQIO_-HxkcPh3ff5w0C0h5iBoUzW4pFiljY3S09H3gVXvmaxrW464
p2451
sVwidth
p2452
I2048
sVhtml_attributions
p2453
(lp2454
sVheight
p2455
I1365
sa(dp2456
Vphoto_reference
p2457
VCnRnAAAA8HZ_FIb4z2d5K8APB9y73WdP6MetaRMCC_4v8i_GwWtHl4jQZ2UKc_Q0xIP8qhczdmTNwLPHZp-7h4kjLAEnoz17Dte10mPo03tuvkAjSmwZ1XeXCxh9OcGnrG8NrKkjsLtqt7INDN0kx4KLZDNgERIQ9I02tb-0bLb1dqD7FsxyWhoUXRPfHdnclDGSBTeHKTCDew4YbDc
p2458
sVwidth
p2459
I2048
sVhtml_attributions
p2460
(lp2461
sVheight
p2462
I1365
sa(dp2463
Vphoto_reference
p2464
VCnRnAAAAt4d61HuHFteQWpRi9UjJXpbfryR6h5dbG4SPYDRVIttfeL6TCFijmePzusrN5pGAN5PHyzgSgRkxTLOcAkQeSNLTQhXn3uCmi2sItrEVWCqpx0aPwWxrUkjYjR8tfu5KFt8pqhs8WShhq7pI5Be9-xIQ44VRYjXIk-D1OGl9PehHbhoUXcu0Xb0KIpxLSat7miMyhMhCgoY
p2465
sVwidth
p2466
I1280
sVhtml_attributions
p2467
(lp2468
sVheight
p2469
I855
sa(dp2470
Vphoto_reference
p2471
VCnRnAAAAvE9i_FASsocxwsEFL9hjdRMpMpR_voCv1UgHAapq6JsOYUIO9TrBIfozLjTkT6dnDb8560-UbAZMSspKq1LmriOpgzZeF6wjBjI19qB83S6AU9ndl7NxecLS71t60tygzb6Vz4B3vNGbAA6DxMBsKBIQ7lr2hb3diw1j-YctCd8VxBoUv1gUsCVG0sS4TxPg1Pk7oUFBH4s
p2472
sVwidth
p2473
I1280
sVhtml_attributions
p2474
(lp2475
sVheight
p2476
I855
sa(dp2477
Vphoto_reference
p2478
VCnRnAAAAuq29VWf-Lf5hZoxOMTOmbK2O0ATBEOYPHTqGR7SuynMTg66r7i50PV5_tMN7PyXjB9wQ_mR7_LSKBiXw_NxIlskkH5MCG6rKwpxaXzRKTvFviybLu4Rm5JLZx2aNrLjp7d3f5av5IvsMnLYutfZ0gBIQ45pbbZPdb4G5bqmN4FYZGRoUb4RJtZ5g36jgzYwJY-Acg-_GBtg
p2479
sVwidth
p2480
I1280
sVhtml_attributions
p2481
(lp2482
sVheight
p2483
I855
sa(dp2484
Vphoto_reference
p2485
VCnRnAAAAbbbuN8Y6EZ19BrRPCsBzfHob7DSBVlq8Dq1ZsUjVqAoyZ4e0xOl87NQ6Fv4Zbk5aSa7SNNd7jpojdf529hESex1sPRPUoGMqWWcI8ms-Xllj3Zx4yMIIdW05Yh-iiwMnlXx063Dxg45c77-bdvlUKhIQL2P1fq6IxNA94DF0xo-rexoUZzm36I5W2z2N5eZxZVjKo7Vkp9Y
p2486
sVwidth
p2487
I1280
sVhtml_attributions
p2488
(lp2489
sVheight
p2490
I855
sasVtypes
p2491
(lp2492
Vlodging
p2493
aVestablishment
p2494
asVicon
p2495
Vhttp://maps.gstatic.com/mapfiles/place_api/icons/lodging-71.png
p2496
sVname
p2497
g14
sVgeometry
p2498
(dp2499
Vlocation
p2500
(dp2501
Vlat
p2502
F37.785628
sVlng
p2503
F-122.410385
sssVadr_address
p2504
V<span class="street-address">333 O&#39;Farrell St</span>, <span class="locality">San Francisco</span>, <span class="region">CA</span> <span class="postal-code">94102</span>, <span class="country-name">United States</span>
p2505
sVinternational_phone_number
p2506
V+1 415-771-1400
p2507
sVreviews
p2508
(lp2509
(dp2510
Vrating
p2511
I3
sVaspects
p2512
(lp2513
(dp2514
Vrating
p2515
I1
sVtype
p2516
Voverall
p2517
sasVlanguage
p2518
Ven
p2519
sVtext
p2520
VAfter reading some less than stellar reviews, I was preparing for the worst. Thankfully, the harshest thing encountered within the hotel was the dated decorations of the suite (which was quite large, clean, and with a lovely view of San Francisco Bay). The staff was always quick to say hello, and the cleaning ladies were quick to replace pillow feathers after we talked to them about allergy concerns. \u000a\u000aI will echo previous reviewers, and say that the surrounding area (the Tenderloin) is not a nice neighborhood. There are vagrants and questionable characters roaming around, at all hours of the day. \u000a\u000aThe Starbucks within the hotel does charge more than the average chain, and the restaurant there (Urban Tavern) was a nice spot (also reviewed). \u000a\u000aMany people balk at the thought of paying for in-room WiFi, but that was never an issue for us. Connecting to a free, ATT&T hotspot was possible, even from the 43rd floor!
p2521
sVauthor_name
p2522
VNan Carde
p2523
sVauthor_url
p2524
Vhttps://plus.google.com/114777535440994791985
p2525
sVtime
p2526
I1416785471
sa(dp2527
Vrating
p2528
I1
sVaspects
p2529
(lp2530
(dp2531
Vrating
p2532
I0
sVtype
p2533
Voverall
p2534
sasVlanguage
p2535
Ven
p2536
sVtext
p2537
V"Many Bug Bites" & "Incapable Manager & Management"\u000a\u000aI stayed at this hotel from Nov 8th - 13th for business. When I woke up on the morning of Nov 10th, I noticed a bug bite bigger than the size of a quarter on my tummy. Because I wasn't very aware of bed bug issues and I was very busy during this trip, I didn't pay enough attention to the bites. Then on Nov 11th, I woke up with 6 bug bites (neck, arms, and tummy); each is no smaller than the size of a quarter. \u000a\u000aI was shocked and reported it to the front desk, and he reported it to the manager. I didn't know if the manager was too busy or what, he didn't come out to talk to me; instead he sent the front desk to change my room and to tell me that the would do a formal report with me in the afternoon, send people for inspection and follow up with me later. I was very busy that morning, and didn't have time to insist seeing the manager. The front desk gave me the keys to the new room and didn't offer any help moving my stuff. I moved my stuff, but I felt like this was not the right way to deal with the issue 'cause it might spread the bugs to the new room through my luggage; but apparently, they didn't care as much as I do. \u000a\u000aLater that afternoon, I called the manager about the security report. However, he seemed to be too busy to remember/care, as when I mentioned this issue, his first response was like what bug bite, which made me feel very disappointed, as I feel like I was being ignored. But anyway, the security finally came, asked me filled out a piece of paper, and left without asking questions.\u000a\u000aI waited till check-out for the manager or somebody to follow up on the inspection, but there was no calls or any official apology. I was really angry, but I didn't want to be rude either, so I asked to see the manager as I was checking out. However, the front the desk told me that all the managers were in a meeting, so I had to leave a note because I had a flight to catch. The manager left me a voice message when I was in the plane. I called him later and left message, but he didn't call me back. I called again today, but it went to the mailbox, which again made me feel like I was being ignored.\u000a\u000aI'm afraid to carry the bugs home, so I tossed away all the un-washable stuff, and spent hours doing laundry after nearly 8 hours of travel across the country!!! I really wish to wash my laptop too (I finally left it outside in my car, hoping that the cold weather here can kill the bugs if there's any)...\u000a\u000aI feel very angry and disappointed right now by their incapable and indifferent response to this whole issue!!! BTW, they charged the same price as a big room after switching me to a smaller one. \u000a\u000aFYI. The rooms that I stayed at are 1-4077 (first 3 nights) and 1-3075 (the last 2 nights). I suggest you stay away from those 2 rooms if you still want to stay in this hotel after you see this.\u000a\u000aGood luck, travelers!
p2538
sVauthor_name
p2539
VJosh Xi
p2540
sVauthor_url
p2541
Vhttps://plus.google.com/108146486311107430763
p2542
sVtime
p2543
I1416278124
sa(dp2544
Vrating
p2545
I1
sVaspects
p2546
(lp2547
(dp2548
Vrating
p2549
I0
sVtype
p2550
Voverall
p2551
sasVlanguage
p2552
Ven
p2553
sVtext
p2554
VWarning! the worst Hilton. i ever stayed. low class service, dirty and things are broken and no one can fixs them. the employee speak and act ,4 stars but they have zero quality.  Very disappointed , we will never stay in this Hilton. I will not recommend this  location. all photos deceiving . The management should review this ho el because it does not represent the Hilton.
p2555
sVauthor_name
p2556
VRemy Lethaby
p2557
sVauthor_url
p2558
Vhttps://plus.google.com/100663971883775825431
p2559
sVtime
p2560
I1417270134
sa(dp2561
Vrating
p2562
I4
sVaspects
p2563
(lp2564
(dp2565
Vrating
p2566
I2
sVtype
p2567
Voverall
p2568
sasVlanguage
p2569
Ven
p2570
sVtext
p2571
VWhat a nice hotel! There are three things that drop this from a five star review to a four star review so let's get those three things over with first: The air vent that was in the corner by the shower had a lot of obvious dust all over it - ew! The other negative was that I had learned from visiting San Francisco that the smoking rule there is that if you go outside to smoke, you have to stand at the curb or if there is no curb in front of the building you have to be at least 15 feet from the door.  Apparently, that doesn't apply here because at the main entrance there were at some points a good 20 people standing right at the door smoking.  It's like welcome to the Hilton! Each time you enter you're greeted with the smell of cigarettes! Um, no thank you! Lastly, the air condition did not work the best in our room.  We would set the thermostat for instance to 74 when it said the current temperature was 76 and then it 40 minutes it would be 77 degrees in the room. Weird! None of my negatives were too big of a deal.\u000a\u000aOkay, now on to the positives: Check-in was pretty smooth, there's rental car garage right across the street so we were able to drop off our car and then just walk to the hotel.  Because we're Hilton Honors members, we got to go that check-in line was a quarter of the length of the regular line and we got lucky again because we got to stay at the newly renovated Hilton Honors members exclusive floor. I noticed the floors color scheme was the same color scheme of the Hilton Honors program branding colors - I thought that was cool! I forget which tower we stayed in but it was the one with the pool and whatever tower that was we were on the top floor of that tower. Whether it is 6 in the morning or midnight, the main (and maybe only - I'm not sure) lobby is always PACKED. That wasn't necessarily an issue for me because whenever I was in the lobby I was always able to find at least one seat and an outlet for charging my phone. Wi-Fi is of course free in the lobby and because we were gold members we got free Wi-Fi in the room. Speaking of Wi-Fi, like all Hilton brand hotels I've ever stayed at, the Wi-Fi is slow and there was no exception here. All the staff members who I encountered throughout my stay were nice.  Another plus was that there was always a lot of security, especially by the elevators and entrance. Here's a weird, random story from when I was here: when I was walking down the hallway from my room to the elevators I could easily hear from one of the rooms what sounded like someone playing the violin. It was extremely loud. Did I mention this was at around 8 in morning!  I would hate to have been in a room on either side or across the hall.  When I went back to my room a half an hour later, I could still hear the violin music. Also as Hilton Honors member, I think only gold and diamond members, we got two vouchers a day to get one free pastry/danish, one free fruit, and one free beverage per voucher from the Starbucks in the lobby.  The line is extremely long but it moves pretty quickly.  The hotel's location was pretty good.  It's located within walking distance of both the Yerba Buena Gardens area and about a 30 minutes or less walk to the Ferry Building area. The pool area was very nice.  When I wen swimming at about 9 am it was practically empty. I was there in July and at that the time the temperature was in the 60s but the pool was heated and comfortable and refreshing. Overall, my stay was good and next time I visit San Francisco I would stay here again.
p2572
sVauthor_name
p2573
VMichael Giskin
p2574
sVauthor_url
p2575
Vhttps://plus.google.com/103832599587201585955
p2576
sVtime
p2577
I1413817325
sa(dp2578
Vrating
p2579
I2
sVaspects
p2580
(lp2581
(dp2582
Vrating
p2583
I0
sVtype
p2584
Voverall
p2585
sasVlanguage
p2586
Ven
p2587
sVtext
p2588
VHilton hotel is fed ex office, the hilton id is garbage ad to psrties thst are said pick thrm up. This toddleetubbs what I go as sees that itd a plscr of suicidal sexual affiliate,  that Pelosi its internet or Medicare services unto others that had or end up titles guardian qualities. Tyrant ldiotic lease situations within thr building code templates they hand bill dea, atf where the places they went, orvsignaled.
p2589
sVauthor_name
p2590
VT.L TUBBS
p2591
sVauthor_url
p2592
Vhttps://plus.google.com/117504501064276275248
p2593
sVtime
p2594
I1413526751
sasVformatted_phone_number
p2595
V(415) 771-1400
p2596
sVaddress_components
p2597
(lp2598
(dp2599
Vlong_name
p2600
V333
p2601
sVtypes
p2602
(lp2603
Vstreet_number
p2604
asVshort_name
p2605
V333
p2606
sa(dp2607
Vlong_name
p2608
VO'Farrell St
p2609
sVtypes
p2610
(lp2611
Vroute
p2612
asVshort_name
p2613
VO'Farrell St
p2614
sa(dp2615
Vlong_name
p2616
VSan Francisco
p2617
sVtypes
p2618
(lp2619
Vlocality
p2620
aVpolitical
p2621
asVshort_name
p2622
VSF
p2623
sa(dp2624
Vlong_name
p2625
VCalifornia
p2626
sVtypes
p2627
(lp2628
Vadministrative_area_level_1
p2629
aVpolitical
p2630
asVshort_name
p2631
VCA
p2632
sa(dp2633
Vlong_name
p2634
VUnited States
p2635
sVtypes
p2636
(lp2637
Vcountry
p2638
aVpolitical
p2639
asVshort_name
p2640
VUS
p2641
sa(dp2642
Vlong_name
p2643
V94102
p2644
sVtypes
p2645
(lp2646
Vpostal_code
p2647
asVshort_name
p2648
V94102
p2649
sassba.