(lp0
(ispot
Spot
p1
(dp2
S'duration'
p3
I0
sS'data'
p4
(dp5
Vwebsite
p6
Vhttp://www.nps.gov/goga/index.htm
p7
sVrating
p8
F4.7
sVutc_offset
p9
I-480
sVplace_id
p10
VChIJxdYX1GGOhYARiIigVMJ9TOY
p11
sVname
p12
VGolden Gate National Recreation Area
p13
sVreference
p14
VCoQBfgAAACVzAk7iV4VchhNXw308fga_B9AfJXw06Ip2xyhK-DlTCXiD3_fBe9pw5zOyGZExzaZ00RUkujvaMFxvGtzmAHc13JL0ygkITqRtwkpiffKvpVj4W6nS0hdyWPp6NpOaN4pXjiSZIGTqFxQ02hdZF700QpYn-5ddO-zjVWk5kT3rEhDmzDkoYDYoYZ31AvE5KKHBGhRwuSOfgNYO5ZCkDeHLkwVALmZexA
p15
sVformatted_phone_number
p16
V(415) 561-4700
p17
sVgeometry
p18
(dp19
Vlocation
p20
(dp21
Vlat
p22
F37.834504
sVlng
p23
F-122.504792
sssVadr_address
p24
V<span class="locality">San Francisco</span>, <span class="region">CA</span> <span class="postal-code">94123</span>, <span class="country-name">United States</span>
p25
sVuser_ratings_total
p26
I102
sVinternational_phone_number
p27
V+1 415-561-4700
p28
sVvicinity
p29
VSan Francisco
p30
sVreviews
p31
(lp32
(dp33
Vrating
p34
I5
sVaspects
p35
(lp36
(dp37
Vrating
p38
I3
sVtype
p39
Voverall
p40
sasVlanguage
p41
Ven
p42
sVtext
p43
VGreat hilly cycling with not too many cars. Very windy and steep in places so if you're a novice then take note of the signs that indicate the grade of a hill.
p44
sVauthor_name
p45
VDavid Doherty
p46
sVauthor_url
p47
Vhttps://plus.google.com/101425938795714023572
p48
sVtime
p49
I1410649425
sa(dp50
Vrating
p51
I5
sVaspects
p52
(lp53
(dp54
Vrating
p55
I3
sVtype
p56
Voverall
p57
sasVlanguage
p58
Ven
p59
sVtext
p60
VAbsolutely beautiful, hilly wilderness area just north of the city.  I ran a half marathon here in March and loved it. Lots of hills but wonderful, rewarding views along the ridge-line.  I'm hoping to come back to take some pictures of the city / Sutro tower from here.
p61
sVauthor_name
p62
VMax Heinritz
p63
sVauthor_url
p64
Vhttps://plus.google.com/102217125735823374958
p65
sVtime
p66
I1396213984
sa(dp67
Vrating
p68
I5
sVaspects
p69
(lp70
(dp71
Vrating
p72
I3
sVtype
p73
Voverall
p74
sasVlanguage
p75
Ven
p76
sVtext
p77
VIs one of the best tours and fun in SF.\u000aBotanical Garde, Museums, and beautiful place if you would like have cup of tea in the Japan Garden.
p78
sVauthor_name
p79
VCarol E
p80
sVauthor_url
p81
Vhttps://plus.google.com/106028332943283658842
p82
sVtime
p83
I1403275611
sa(dp84
Vrating
p85
I5
sVaspects
p86
(lp87
(dp88
Vrating
p89
I3
sVtype
p90
Voverall
p91
sasVlanguage
p92
Ven
p93
sVtext
p94
VBeautiful area with some nice hikes that is quite accessible from San Francisco.  Though, if you have time for the trip, mount tam to the north is even nicer.
p95
sVauthor_name
p96
VAndrew Duchi
p97
sVauthor_url
p98
Vhttps://plus.google.com/117034590178289719142
p99
sVtime
p100
I1390611829
sa(dp101
Vrating
p102
I5
sVaspects
p103
(lp104
(dp105
Vrating
p106
I3
sVtype
p107
Vquality
p108
sasVlanguage
p109
Ven
p110
sVtext
p111
VEverytime I come down to the Bay Area, is to show my visiting friends actually how beautiful this area is.\u000aIt's been given a bad rep over the years, mainly to peoples lifestyles. Well lifestyles are a huge part of life, if we can only enjoy ourselves because it matches only the way we think it should be, I suggest you stay home!\u000aSan Francisco has many beautiful places to go; such as any of the old Military Forts, Buildings, parks, museums, scenery for the photo enthuisists..\u000aCome and enjoy the coast line and see history unfold all around you!
p112
sVauthor_name
p113
VEldon Henry
p114
sVauthor_url
p115
Vhttps://plus.google.com/111000134307967374586
p116
sVtime
p117
I1361392098
sasVphotos
p118
(lp119
(dp120
Vwidth
p121
I1280
sVheight
p122
I960
sVhtml_attributions
p123
(lp124
V<a href="https://plus.google.com/111000134307967374586">Eldon Henry</a>
p125
asVphoto_reference
p126
VCnRoAAAAViuWEQ71ZwK19KSSKzYCK2xYpB4-Tpa6pmTEvVM013I8JB7ZKZL3hb1wPKjnXxxRlgRWdF_a_pLSjxaijA52d0v5c6LJfw85Ok1_ENhfUB2uwjI5tmz8vfGa6TAGT1qWzG_XNtFWFLqWuJRYVlpiaxIQHE0rnMRaerzOBc58NhbhixoUj5wo2YPdm1VsxS4cXT86NHzYtUc
p127
sa(dp128
Vwidth
p129
I1265
sVheight
p130
I949
sVhtml_attributions
p131
(lp132
V<a href="https://plus.google.com/106518442561481308596">Elliot Britton</a>
p133
asVphoto_reference
p134
VCpQBiwAAACEJxIA8XACTp9JgofUrQUTEqczs5eC7mf1xCNtiglMaNk_bSE5nF6ILSxfuk6Z2jkFNQG8W488YaJNqKw5lf9nBsPvLIr4W1D_J4zWBOAm_XtUGahtiaiK_9FhJRP6LphoOenKBddfCEt982rhF7q_tORs3_wzf-i23pLe1D06y5Urf4EriPxXehLMuwSoeYBIQXLj41rryewEiqabur0S90xoUUYS_dZ8UKOptc1P9vNaWA-uk-Eg
p135
sa(dp136
Vwidth
p137
I1296
sVheight
p138
I972
sVhtml_attributions
p139
(lp140
VFrom a Google User
p141
asVphoto_reference
p142
VCpQBiwAAAMf5mjX9EkEP0CbPxPiFoeMo728VG3Rci39jwQoOJtMisgckkGufYy_qoh_-iTmLebNJFx5szEnaXrz6NkzDg2U-umthcDxzEnYYE82Aq4BrQdGN-laeEB4KP_6bSOUA9PVkZ-KGyZurF_olrHqcC9MmxhoEsk1P7RcK26wM5HTWsEAKSPOF2qgv48SP5k5nLRIQUUqQyUT0ox_igm3Hgf0yoRoU68caFIUyr_v39KwWtyG1ALRwneU
p143
sa(dp144
Vwidth
p145
I2000
sVheight
p146
I1125
sVhtml_attributions
p147
(lp148
V<a href="https://plus.google.com/116913548795972454248">Zhongliang Xu</a>
p149
asVphoto_reference
p150
VCnRoAAAArWMxjRLzZT03rCXrx0KTPFFhnLAS5mNY65Ki299N4_NncQrsuufcxPnG3K3aXmdmaFR1959zzsbZ6d3_NAcaMSI2dNAEDgXbLJpEQa4wvMWrYhDXPYmArMNQYa9bKxrRUxKpIG6kJB3K1BP5DalMhBIQZ8CNez-2ZlEeZ7S9Jp-QaxoUnQ64Sb4hj-eq8T8dFrZ7W4Wnx8s
p151
sa(dp152
Vwidth
p153
I1344
sVheight
p154
I760
sVhtml_attributions
p155
(lp156
V<a href="https://plus.google.com/106965600540781805193">Jose C</a>
p157
asVphoto_reference
p158
VCpQBiwAAAElEKRTSsWtuY3B5UhZ5oj_3wv56YUQm_5DSBnvQv0nb01ditIeHo5V-V0w_CZAue_ARBBnJOaLckpC6tsOUn-iziIf3I8_hKwvhQz_VJTZao_ID033iMFfVDSJNuDgaQXSyEcrxljQLt2ysclO5eH_IehojpaQspuJTaU1r5a1jVGVia0Xjszw-f84mFUFfihIQWY_MwgzjCnjNg37H7h7VBRoUEWlbAjqq3aCYzkxmKGrwNiaetuA
p159
sa(dp160
Vwidth
p161
I2048
sVheight
p162
I1536
sVhtml_attributions
p163
(lp164
V<a href="https://plus.google.com/106521304996220499103">Ming Mak</a>
p165
asVphoto_reference
p166
VCnRoAAAAS1F0Y096T3MwxWfcgdnv8IcxT9YiQq1tBcyv5dvujdro_So_kxIvQgeAk_pGX-nSFOUOpIV1dzqjQWWlOfWJxWbOa4OIMtwi-QURIEahfdLMkV2FHW7ArjKyxpbVAF9sTTt7RkJypmzLgjGoh_QWiRIQFrt2RkbfBdnG4Qz7DlICjxoUgz3DK7gPI9BDWSmlknKgksBtA1Y
p167
sa(dp168
Vwidth
p169
I1296
sVheight
p170
I972
sVhtml_attributions
p171
(lp172
V<a href="https://plus.google.com/113872060182239393125">Srimahesh Talatam</a>
p173
asVphoto_reference
p174
VCpQBiwAAAPVaxZ0UnbklbQlBSPAbEKtEgzgGOVYdBIfhZwd7XHh2jzy5jINiU0NRXf_5Ze2QFJlio9XKCwbi_fspQFQBbMxMcP88GwLNzkS1JCXXuYRxOkozEAhvc1q65Hc3_mztRY_YMRBdwrzb0N6PfS-248h8VEJo8XYZ4imc2Sp2ATLapxz3ISyd946fl5o1tlixoBIQBKX1HVL3wUqYr0nFmNtbCBoUtePbPPVO7YU0gO3DNNJdIdXMOSg
p175
sa(dp176
Vwidth
p177
I816
sVheight
p178
I459
sVhtml_attributions
p179
(lp180
V<a href="https://plus.google.com/113221385464453900204">william vidal</a>
p181
asVphoto_reference
p182
VCnRoAAAAZI5CIdX2r6tOTEdKlOAwkArWfb38gJINMiUZWZzE9KVv77-Or_SnxFeeh8Q_zoWPyrKpYu4BEF7rEespZtqfzVTbZf-6TfIlijHnChfTyvBeAj-ea8OtsCrQz8_LvUhmh3az4LjRdn-JGJhzcBVf5RIQlVdvTXoMkzkJ0aa_y2gFbRoUFRCZdVmouzraB8DJo2wNc1U7CWA
p183
sa(dp184
Vwidth
p185
I1296
sVheight
p186
I972
sVhtml_attributions
p187
(lp188
V<a href="https://plus.google.com/113872060182239393125">Srimahesh Talatam</a>
p189
asVphoto_reference
p190
VCpQBiwAAANlrGC_Wzm3X5wmz2a7vTLb8wttOrpg8LBGI6v6wqltES0QIs3VipnGHpBwNqDQrACJHEhNa-Le09FNA2BU1Fe9w4qyIETy1l_plv7jEXYQ1T_HHIPPM_S1XHxAwkTiFeZ_DezP2KuDVhkySLZqooT5cNykkTH8wLMnlCrPuF5EETACE5FKZwEV4gmGfvY8OZhIQiKsipC4AFozOkA__wOmWaRoUKSG7N2btwfbwdDzv3Yw7rojGOV4
p191
sa(dp192
Vwidth
p193
I4000
sVheight
p194
I3000
sVhtml_attributions
p195
(lp196
V<a href="https://plus.google.com/109363976560217503323">Steven La Vinger</a>
p197
asVphoto_reference
p198
VCnRvAAAAPqSQmmaKgBY5S-48KNUlFiKkP0VWN-yr47iYUGVsWb2CoEdvPmM78GsvZazkAhX4ApDpLDbkSY84CvURboqj2TR6JW4UDDXNQbebPaibvV8jTRaYWbDdoTKYukYP3CScdOWup3nkPU-_xYD9PxElyBIQAtyBi4dXjfs5AR5yOY7NqxoU26iXjljfPNhi9XonCogP2DqOUU4
p199
sasVurl
p200
Vhttps://plus.google.com/100583653707384517268/about?hl=en-US
p201
sVaddress_components
p202
(lp203
(dp204
Vlong_name
p205
VSan Francisco
p206
sVshort_name
p207
VSF
p208
sVtypes
p209
(lp210
Vlocality
p211
aVpolitical
p212
asa(dp213
Vlong_name
p214
VCalifornia
p215
sVshort_name
p216
VCA
p217
sVtypes
p218
(lp219
Vadministrative_area_level_1
p220
aVpolitical
p221
asa(dp222
Vlong_name
p223
VUnited States
p224
sVshort_name
p225
VUS
p226
sVtypes
p227
(lp228
Vcountry
p229
aVpolitical
p230
asa(dp231
Vlong_name
p232
V94123
p233
sVshort_name
p234
V94123
p235
sVtypes
p236
(lp237
Vpostal_code
p238
asa(dp239
Vlong_name
p240
V0022
p241
sVshort_name
p242
V0022
p243
sVtypes
p244
(lp245
Vpostal_code_suffix
p246
asasVscope
p247
VGOOGLE
p248
sVformatted_address
p249
VSan Francisco, CA 94123, United States
p250
sVid
p251
Va086663663c933df7081560fc939b31d45bd4df9
p252
sVtypes
p253
(lp254
Vpark
p255
aVestablishment
p256
asVicon
p257
Vhttp://maps.gstatic.com/mapfiles/place_api/icons/generic_business-71.png
p258
ssba(ispot
Spot
p259
(dp260
g3
I50
sg4
(dp261
Vname
p262
VBayview
p263
sVreference
p264
VCpQBggAAAFe1waYP4kcJKl58DsuyCetsAtG-_xyq4_g_BUTDJ18PUOf9pGLIvNDY8pxW5RK4VJkmACNHzz4WFID1i8Horef4aof-xHCf3I-TcmvHE0WGL9lbtqM1wBneMYaIAdoE7HWzBDUobz4AvW0jUklpWgoKS1U8JKs1udvqAE_nIvCayPS_SNnpYtp3rYc5iRuqBBIQadhJlQXwE7hMuUxvQd2aNBoUU1ft180vcteChOrrTVrWKSqo4T8
p265
sVgeometry
p266
(dp267
Vlocation
p268
(dp269
Vlat
p270
F37.730416
sVlng
p271
F-122.384424
ssVviewport
p272
(dp273
Vnortheast
p274
(dp275
Vlat
p276
F37.7522488
sVlng
p277
F-122.3569669
ssVsouthwest
p278
(dp279
Vlat
p280
F37.7083844
sVlng
p281
F-122.4080732
ssssVadr_address
p282
VBayview, <span class="locality">San Francisco</span>, <span class="region">CA</span>, <span class="country-name">USA</span>
p283
sVplace_id
p284
VChIJVTQNsxt_j4ARYEXVGCqV7Mw
p285
sVvicinity
p286
VSan Francisco
p287
sVurl
p288
Vhttps://maps.google.com/maps/place?q=Bayview,+San+Francisco,+CA,+USA&ftid=0x808f7f1bb30d3455:0xccec952a18d54560
p289
sVaddress_components
p290
(lp291
(dp292
Vlong_name
p293
VBayview
p294
sVshort_name
p295
VBayview
p296
sVtypes
p297
(lp298
Vneighborhood
p299
aVpolitical
p300
asa(dp301
Vlong_name
p302
VSan Francisco
p303
sVshort_name
p304
VSF
p305
sVtypes
p306
(lp307
Vlocality
p308
aVpolitical
p309
asa(dp310
Vlong_name
p311
VSan Francisco County
p312
sVshort_name
p313
VSan Francisco County
p314
sVtypes
p315
(lp316
Vadministrative_area_level_2
p317
aVpolitical
p318
asa(dp319
Vlong_name
p320
VCalifornia
p321
sVshort_name
p322
VCA
p323
sVtypes
p324
(lp325
Vadministrative_area_level_1
p326
aVpolitical
p327
asa(dp328
Vlong_name
p329
VUnited States
p330
sVshort_name
p331
VUS
p332
sVtypes
p333
(lp334
Vcountry
p335
aVpolitical
p336
asasVscope
p337
VGOOGLE
p338
sVformatted_address
p339
VBayview, San Francisco, CA, USA
p340
sVid
p341
V918511e2a071071132a372542250079ff49fe0a9
p342
sVtypes
p343
(lp344
Vneighborhood
p345
aVpolitical
p346
asVicon
p347
Vhttp://maps.gstatic.com/mapfiles/place_api/icons/geocode-71.png
p348
ssba(ispot
Spot
p349
(dp350
g3
I100
sg4
(dp351
Vwebsite
p352
Vhttp://www.fairmont.com/san-francisco
p353
sVrating
p354
F4.2
sVutc_offset
p355
I-480
sVplace_id
p356
VChIJN2S4EI2AhYAR9J4Qeh1U8Aw
p357
sVname
p358
VThe Fairmont San Francisco
p359
sVreference
p360
VCoQBcwAAAL4AyuAAVF_vP8mQIIL1Bf0wLCCUQZt0TAqYJGK22PKy_UQ8dyNIqksrjNdFVZbogY3WCY-aYTeo0hawuYOL2OpfJC91Bk7WYJY_-t92EnMEQ34xT2jvLWkeF9Jc7PqK4yEyzizYNawsZ8Q04JBlYqFRBPPIpGeqdskIy8GXtCyjEhAKVSJ5ed6qC_iOhCLbo522GhRbFy4eo9TkJT7wZw5O7kaHyTZMBw
p361
sVformatted_phone_number
p362
V(415) 772-5000
p363
sVgeometry
p364
(dp365
Vlocation
p366
(dp367
Vlat
p368
F37.792396
sVlng
p369
F-122.410504
sssVadr_address
p370
V<span class="street-address">950 Mason St</span>, <span class="locality">San Francisco</span>, <span class="region">CA</span> <span class="postal-code">94108</span>, <span class="country-name">United States</span>
p371
sVuser_ratings_total
p372
I216
sVinternational_phone_number
p373
V+1 415-772-5000
p374
sVvicinity
p375
V950 Mason St, San Francisco
p376
sVreviews
p377
(lp378
(dp379
Vrating
p380
I5
sVaspects
p381
(lp382
(dp383
Vrating
p384
I3
sVtype
p385
Voverall
p386
sasVlanguage
p387
Ven
p388
sVtext
p389
VThis hotel is stunning. I've only been in the lobby area and to some of the meeting / event rooms. They are flawless and breathtaking. If you're in the area, drop by for a quick peek. If you like grand rooms with a historical feel you will not be disappointed.  
p390
sVauthor_name
p391
VAmy Meyer
p392
sVauthor_url
p393
Vhttps://plus.google.com/102690091571148307715
p394
sVtime
p395
I1407802650
sa(dp396
Vrating
p397
I3
sVaspects
p398
(lp399
(dp400
Vrating
p401
I1
sVtype
p402
Voverall
p403
sasVlanguage
p404
Ven
p405
sVtext
p406
VBeautiful place, especially the main lobby. This continues with renovated, beautiful rooms, and yellow marble bathrooms. Service here is okay, but not up to 'par' as used to Fairmonts. We have stayed at Fairmont in D.C. and NYC, and have always had great experience. Staff here is not as good as typical. Doormen outside seem understaffed, and there are a ton of people standing around. They can't really tell who is coming and going. Front desk with very young girls in the evening, that were not very helpful when I approached with a simple question. Also, it is a little uncomfortable having to break up their huddle around a cell phone. Not a big deal, and probably more a reflection of their age. I just stayed at a hotel for $150/night, and staff was much friendlier and responsive. \u000a\u000aWalls are paper thin, and I can literally hear and understand every word of the neighbor's words. Probably not management's fault, it's an old building.\u000a\u000aI feel bad with negative remarks, but management and staff that do an outstanding job should be rewarded. Had a great time here in SF, however.\u000a\u000a
p407
sVauthor_name
p408
VBrian Modena
p409
sVauthor_url
p410
Vhttps://plus.google.com/116551189392506282628
p411
sVtime
p412
I1406489780
sa(dp413
Vrating
p414
I5
sVaspects
p415
(lp416
(dp417
Vrating
p418
I3
sVtype
p419
Voverall
p420
sasVlanguage
p421
Ven
p422
sVtext
p423
VAs if you're walking back in time\u2026 a beautiful and thoughtfully orchestrated building with a rich history. Had a wonderful time at a fundraiser here recently. The thoughtful and detail oriented architecture was definitely noticed by all. Modernism is a part of our time now, but there is something that is easily appreciated by all when it comes to thoughtfulness- even when it's architecture. Highly recommended for a nice reminder of creativity and beauty from a great period in time. 
p424
sVauthor_name
p425
VLillian Chan
p426
sVauthor_url
p427
Vhttps://plus.google.com/111958487714652939736
p428
sVtime
p429
I1402737720
sa(dp430
Vrating
p431
I5
sVaspects
p432
(lp433
(dp434
Vrating
p435
I3
sVtype
p436
Voverall
p437
sasVlanguage
p438
Ven
p439
sVtext
p440
VStayed here 2 weeks ago, for 5 days. I was SHOCKED!!!! in a good way\u2026. I've stayed at many hotels in San Fran. By far, these rooms were the biggest I've ever seen! And that says a lot for the city by the bay\u2026. Had room to hang all clothes in the closet, and even an extra rack for our luggage. Temperature was well controlled throughout the hotel. Bell service was great, and the people at the front desk were always helpful. The only bad thing is the Valet Parking price. $60 per day is a bit steep, but I probably shouldn't have had a rental car in the city anyway. But I will definitely stay here again on my next trip! Well wort the price!
p441
sVauthor_name
p442
VRobert Peterson
p443
sVauthor_url
p444
Vhttps://plus.google.com/100510007029790173763
p445
sVtime
p446
I1408297701
sa(dp447
Vrating
p448
I1
sVaspects
p449
(lp450
(dp451
Vrating
p452
I0
sVtype
p453
Voverall
p454
sasVlanguage
p455
Ven
p456
sVtext
p457
VCrazy paranoid Security who are rude and accusatory to friends of guests. I went to go visit a friend of mine at night. I couldn't find the room number. Since no hotel staff could be found I asked the only person I could find. The man I asked was part of a painting crew. To my surprise they all spoke Cantonese and barely a word of English. I showed one of the men the room number and with much effort and hand signals the kind Chinese man told me where I could find the room. When I started to turn left instead of right the man shouted out to me. But because of his strong Cantonese accent the "No" sounded like a loud "Uhhhh".  Then from out of nowhere this 6'4" Caucasian man with a thick brown mustache and brown blazer comes out and says, "Why is he YELLING at you?!" I responded saying, "What? Who?" Then the security pointed to the group of Chinese painters. I had no idea what he was talking about because even with the thick Cantonese accent I still heard a "No". I didn't register that anyone was yelling at me. As I tried to process the words of this 41 year old Security guy as hovered his 6'4" 270 lb body over my 5'6" 125lb frame and staring at me as if he was about to beat me up. "Do you have the room number?" he asked. I said yeah. But this Security guy actually looked kinda crazy and I could only guess what he might do to my friend. I mean was stopped for no reason, perhaps this paranoid Security would hurt my friend. Then as I tried to form the words through the intimidation Security man said, "Let's walk this way." Then walked me to the exit as if he was doing a perp walk and walking slightly behind me and so close that he gave me the feeling that if I so much as paused he'd throw me to the ground. When he had me at the exit there was a cab waiting and he watched me get in the cab and stood there staring at me like a mad dog even while I sat in the taxi until it had driven out of sight.  All I wanted to do was see my friend and all my friend wanted was to have a romantic visit with an old girlfriend and the Fairmont Security ruined everything.  
p458
sVauthor_name
p459
VRuby Garcia
p460
sVauthor_url
p461
Vhttps://plus.google.com/105570168439947872947
p462
sVtime
p463
I1404804429
sasVphotos
p464
(lp465
(dp466
Vwidth
p467
I576
sVheight
p468
I574
sVhtml_attributions
p469
(lp470
sVphoto_reference
p471
VCoQBfAAAAFX2xtlGlZSky_bDHtmRYJSIuV-mqOynNPyU9ykuY7hXrX9nPIhM_JUMIk32HJF7Md0hFMRcQ68xyuWDzj-mWcAgix78aBEM7i0G1V_b9DFW6u9j5GifUCNOEewmRiNEgxo50glG0edLVqQxSvVozM2980s6Wnou6B8Fq0aN2Az2EhArUlXNaYG9Zp4LXDh4-dxgGhQkKj9__hGAwE2cTKj4d9H1m98CDw
p472
sa(dp473
Vwidth
p474
I1190
sVheight
p475
I960
sVhtml_attributions
p476
(lp477
sVphoto_reference
p478
VCnRqAAAAJI36pJuEiB-33Ir6t9jZj2AzXGsV4BZQGMKlSDetFnIbCd2VZA5uupsD2aeyWdHPLgCMnRsynelKFRO8jX-YUOwVlp-EF2aIexMD_QvTwBmM8zk4n_P8CXZJOLw6pSZGOAUDeSbNHtTcz9cQMh035RIQUuNsJ6mIec-xGeALlrnUchoUB3ckcPUm3E7L9cipsfiIJp53Q3s
p479
sa(dp480
Vwidth
p481
I1280
sVheight
p482
I645
sVhtml_attributions
p483
(lp484
sVphoto_reference
p485
VCnRnAAAAkRSd9XngVMiCPo9rRHG3FXW972_8iGW9saEuPHZaITQHeKk3hilY4x0xS1bDIgyzfWCDD09WL4cb7cgwb4W--ze8nX2bw73mZJF2OH5YipBkvQuYvaUVOTM7qInGv1auKhENJAU-eDVALD1huqhSBhIQhQua8XBJto6NZ944YXK8qhoUIHvY1KvF9M6aVJ7ziilAU1f3M5o
p486
sa(dp487
Vwidth
p488
I1200
sVheight
p489
I800
sVhtml_attributions
p490
(lp491
sVphoto_reference
p492
VCnRnAAAAjdUJW6gdT3vWSzd7BbtMM6QkgRdZyBybGQaO_VpBtYjxkbAYbmpIA5ea2JH0Q9cyBeBiscsxTdCUvsH34v1ZPVOGFmkcoSyvbhkFueHL1RygSZLXBVtDqGF1yxDiKM92vbxWMnbEVQQdSaDKrac1PRIQAyV22Q3e1Ojm3zQUxMr1nBoUYN-2lowV8OLimEmDdkpihkkMPv0
p493
sa(dp494
Vwidth
p495
I1200
sVheight
p496
I800
sVhtml_attributions
p497
(lp498
sVphoto_reference
p499
VCnRnAAAATa5bImz-VgwGZVMckg2EwIqK_bil5Wi0h_E7WuRTBxLEIytcx62lHLE1hobH-4hR8pL94RuPFJ2BifyOZEBmhKi0tDe2KQmtcgw1_6JlNO23m4NpUBmkEHt-fMy7U0Ufri0PTolpMjslEhqFA7r9yxIQZweyt4TDowNC6IRjR74ALBoUts6r-WXnDryIyUEG6kCAY5Ewb8w
p500
sa(dp501
Vwidth
p502
I1200
sVheight
p503
I800
sVhtml_attributions
p504
(lp505
sVphoto_reference
p506
VCnRnAAAAXfVVfmwq8b6YTtDY6bREeAFS9BEq0s6csFuI0MWbiod0msP-Fwta_5jVf-AdlrHDDxSNKH248anynHeauQdUKmFdcjHD9u5qoA1hbTFyZKUjXExjo_qd7h8_6Xj38mJea9AGABUxk-4WJ3xR9EwwnBIQlfgHlDr6BaTKVUCiXZ7LKRoUiCG0WCFo_fRwCXkpP-eoy-zDmzg
p507
sa(dp508
Vwidth
p509
I1200
sVheight
p510
I800
sVhtml_attributions
p511
(lp512
sVphoto_reference
p513
VCnRnAAAA7CSIhKx4ArDAoHgVQph1uYQThSeVcCw7a5XFCTLayU3wOqQ_V_mf7QFmAp-JKAishvEB2mucVuJE0rN9ykWTBlGDZePzht7DprzsGV1FEZlCQeB7aPgsdrmArltCSu9SjrWR4wIM0h7JDVNrPGbDwBIQ4kVly4GhVyEyuwvIGocw0RoUgeRn7CHHU5j6690Nrx00rJvPFT4
p514
sa(dp515
Vwidth
p516
I1200
sVheight
p517
I800
sVhtml_attributions
p518
(lp519
sVphoto_reference
p520
VCnRnAAAAepkcefOKM9ONPlnoWRMie5hhCfoxn4eTxvplN6aT7w3_tQks8Ynw8t1QLPmfR9VxurSK6bT9DXeL_e_icdl_bocOUyXFGfbgf2_T1CzbS8xIGbKUkbz_KdEs82qyd1o-TPaAOpGNb8YHmkm6uVpmeRIQheBdbNoTHOAr4E9am1OQvBoUbWpz8dD1yvZANycCZYIarhRCjfs
p521
sa(dp522
Vwidth
p523
I1200
sVheight
p524
I902
sVhtml_attributions
p525
(lp526
sVphoto_reference
p527
VCnRnAAAARli9KyOIfall_A6LzuageVud-GcMZ7zwc1BAU_ArZsj96Gkdz3BGGCLBEWIJnUEJUXrZNGU_z7JEQrL5s0m32seZTQ61FE_TeeoGGM5tq1KFlOVb-vDbol8mtxsjXKt5sZowJpehpyBtfpN1uZsqxhIQDZr114K9BASPBlBBZf9FYRoU4VdPKfuMp1KozQBn77eutV4qR6Q
p528
sa(dp529
Vwidth
p530
I1200
sVheight
p531
I960
sVhtml_attributions
p532
(lp533
sVphoto_reference
p534
VCpQBigAAAEaRgipY-h7NVEkTQceHbdva0b4UUoXpsV7k0zmXQRpZ73_QqRdv2Vav8bfPD2zdXWJaHQ-p9_44Vqs3sTZblU0MnJcfRgPTRJgEIV14RyXNpQIxXnZLDsL_32pejykj_ah4xw0wAcxDWD3l7Y_fGPblQOGnD4S6v_11zeME8srT4R8enTXCK1-dYOmaJzC2fRIQr2DH_Nfs7SwceESZFKdCnxoUuQqcsDiYisjMGf699wsmxkdN1-I
p535
sasVurl
p536
Vhttps://plus.google.com/114386282276154448100/about?hl=en-US
p537
sVaddress_components
p538
(lp539
(dp540
Vlong_name
p541
V950
p542
sVshort_name
p543
V950
p544
sVtypes
p545
(lp546
Vstreet_number
p547
asa(dp548
Vlong_name
p549
VMason St
p550
sVshort_name
p551
VMason St
p552
sVtypes
p553
(lp554
Vroute
p555
asa(dp556
Vlong_name
p557
VSan Francisco
p558
sVshort_name
p559
VSF
p560
sVtypes
p561
(lp562
Vlocality
p563
aVpolitical
p564
asa(dp565
Vlong_name
p566
VCalifornia
p567
sVshort_name
p568
VCA
p569
sVtypes
p570
(lp571
Vadministrative_area_level_1
p572
aVpolitical
p573
asa(dp574
Vlong_name
p575
VUnited States
p576
sVshort_name
p577
VUS
p578
sVtypes
p579
(lp580
Vcountry
p581
aVpolitical
p582
asa(dp583
Vlong_name
p584
V94108
p585
sVshort_name
p586
V94108
p587
sVtypes
p588
(lp589
Vpostal_code
p590
asasVscope
p591
VGOOGLE
p592
sVformatted_address
p593
V950 Mason St, San Francisco, CA 94108, United States
p594
sVid
p595
Va9dbcfebeadf2c2e488dd47116305abb181a0cbb
p596
sVtypes
p597
(lp598
Vlodging
p599
aVestablishment
p600
asVicon
p601
Vhttp://maps.gstatic.com/mapfiles/place_api/icons/lodging-71.png
p602
ssba(ispot
Spot
p603
(dp604
g3
I150
sg4
(dp605
Vrating
p606
F3.9
sVreference
p607
VCoQBeAAAADEDwocjHG2WFvyLKDB134psH_2NvjwRdmqx3M8kisNh1KrSLD7W0UxmffeUd0gB6m7XqBG0m8kL9nE6inyEISvkAkqVOGgVxTY4NYxnbipaAfjXDreHFs7HHCqKLbZ9zIDh89TEMYK6XFpBpZ7l_vliq8iXmhvCwQis8vlaS7UDEhCNFZm5GKygD9tZVUCXWbqEGhQVicNATHTUnWdRc_HBHMvmC912XA
p608
sVplace_id
p609
VChIJcT5nNoaAhYARVdbyW3zPwus
p610
sVgeometry
p611
(dp612
Vlocation
p613
(dp614
Vlat
p615
F37.785228
sVlng
p616
F-122.404389
sssVformatted_address
p617
V780 Mission St, San Francisco, CA 94103, United States
p618
sVid
p619
Vf007d2f91c0070ebdfec60275baa33623f0b771b
p620
sVopening_hours
p621
(dp622
Vweekday_text
p623
(lp624
VMonday: Open 24 hours
p625
aVTuesday: Open 24 hours
p626
aVWednesday: Open 24 hours
p627
aVThursday: Open 24 hours
p628
aVFriday: Open 24 hours
p629
aVSaturday: Open 24 hours
p630
aVSunday: Open 24 hours
p631
asVopen_now
p632
I01
sVperiods
p633
(lp634
(dp635
Vopen
p636
(dp637
Vday
p638
I0
sVtime
p639
V0000
p640
ssassVvicinity
p641
V780 Mission St, San Francisco
p642
sVscope
p643
VGOOGLE
p644
sVwebsite
p645
Vhttp://www.marriott.com/hotels/travel/sfodt-san-francisco-marriott-marquis/
p646
sVutc_offset
p647
I-480
sVuser_ratings_total
p648
I127
sVphotos
p649
(lp650
(dp651
Vwidth
p652
I610
sVheight
p653
I423
sVhtml_attributions
p654
(lp655
sVphoto_reference
p656
VCnRnAAAA33GttZKJcF3XZ9Xxu3L7SD3B1c1yzKIcuTwz8RjFF-GcuX4_6dWh1gzdAlWEM4szKoZ1r94j5SS0rWKYbLpZdHN6XTgw8U8sj-4f6qocrVzOs82p-Op3JKlor3CS-1qL_Nc65SRKqE24kKuAx5Bh6BIQorFUX_1SAZW1E3fuCANq5RoUuWV2RNGfF3aN7xpz8uOYajrLMWg
p657
sa(dp658
Vwidth
p659
I610
sVheight
p660
I423
sVhtml_attributions
p661
(lp662
sVphoto_reference
p663
VCnRnAAAAJjUJTwLV4qSn6HPh88NDJiffATkUSR5m3o-caFTf3UODeIGLJgGMLBmoUEpfzgdI5J0u-yn_Sv-Hgm3ZwQOkDCuZYKRfgts13AMkLbzgm5h-HXmDZRGhv1f8_vOp4R9adPug_k7UgpHY0xf30qoMMRIQvOozYWmhwALTDTM9d7LUvRoUm9G2v7dH1SoiBMaF_wp2f3yUScw
p664
sa(dp665
Vwidth
p666
I610
sVheight
p667
I423
sVhtml_attributions
p668
(lp669
sVphoto_reference
p670
VCnRnAAAADGV-c9uMGykMsrgnevNFxbf7srDmnedj0oXm3rOuJL5XorJedaeaWi_qa9lna7IPf0fMyoHJYwqb9CE-0d9wdvVGm4-cjOtLd9Z4n_j9amAVplR0j4alutnfhMud5rKKl4wHZs7ygfzUV9i-CImOShIQ8D9oDM7OWgKke2p96tsaxBoUZuJIcRFTNt5TlnjQ-vzBowBQ4Fc
p671
sa(dp672
Vwidth
p673
I610
sVheight
p674
I423
sVhtml_attributions
p675
(lp676
sVphoto_reference
p677
VCnRnAAAACi2_I7vTLls-f1KtS1Gagni6nlBSSX_IK4Cdjp6kBLywLjTQMgKtQzRC-n0POmj6E3NhUbztiw1dUW-fdg1uzlEYrfixcHWfrfkfn4-AdJ0rGFL5brwnhMM_yUOMwFAbAK6AGg66d4zAsoUA_nqPeRIQey1c43WKDJlu5t32RDFy6hoU6MmRYriCJgy7ma-FGxnafGdC8ds
p678
sa(dp679
Vwidth
p680
I610
sVheight
p681
I423
sVhtml_attributions
p682
(lp683
sVphoto_reference
p684
VCnRnAAAAv2SQUoeD-P7kJ2ZzqlPAb0apWPHIuDDKks0EfrAUmNoRKkYtzxpOme6ro6Vl4SaL8jpbB1d2vEktzDGM2S_iCkfL_cqU8JZ6NEazAlqGL14RsZgs0EwcluWg3n3UTn5KEwyB2jZVVBl7sMdVffuhmBIQdd6mCIfArWTNP7yRgNOUlBoU3EFOMrJPavTRnXjw0MOmKjQmqqQ
p685
sa(dp686
Vwidth
p687
I610
sVheight
p688
I423
sVhtml_attributions
p689
(lp690
sVphoto_reference
p691
VCnRnAAAAU0bvl6qwZ3KpOrMulsAjyred6lKUuN0XZRa5pwkuqtObK5flmJLYJTUEOm2I3UrdjTejFQbcriPjsqjwSQXUDrfL-fXq71TBBtXgzG0gKeo9rxjdCLtL00RZDIos84IJOqIyHqaw8plkTay_TX4kMRIQ9IZTWUjgCFa6Rq3VjD0QThoU_PMyfNPvdl9QkyL5vmH3K4RMSzw
p692
sa(dp693
Vwidth
p694
I610
sVheight
p695
I423
sVhtml_attributions
p696
(lp697
sVphoto_reference
p698
VCnRnAAAAu98Y3v-KMzZ7LO8YGMhCg3BZJ_biycmzmdI1dvLmTSKthz1RWbq3hY6HritEkKbHdLJbcbCL-mXX3qPPWhijNnK7yENQaGmK6xLWJiUJfFNGKIjTaHl85oOFccgR_LBc58slvn5xu0nu_gPjklTADBIQOvwJM0JxNH6iSYQS4LK74RoUyHheEZlMvjrS7v1IAFYSvFxqSJw
p699
sa(dp700
Vwidth
p701
I610
sVheight
p702
I423
sVhtml_attributions
p703
(lp704
sVphoto_reference
p705
VCnRnAAAAZvFq-9GBc2lVW5UskNbnWAJz6MEogJOxQbWmozgjAlqryQYN4Q2hYCm-NiZi-FHgu1qkQoqcdSUI22saFB7ZoQAgkx4X1RctteG697Cr91SkPcK8EcNnU_EGujH4NIbYMEGfV2q5bCLjxOmu0Tkr3RIQTAkb1DXX2upRr_VLkYpgghoUJvKW-P6F2z7mOqAWstj6O6oxclI
p706
sa(dp707
Vwidth
p708
I610
sVheight
p709
I423
sVhtml_attributions
p710
(lp711
sVphoto_reference
p712
VCpQBhQAAAOz3_3-HJQGs6vfTQDFJnQ5kVQRdXRC1KpgjSteLwcy6wKDO_EgtRitbujk0Qbq_8fxDQDYLaua20RBURgHIYgjX9IOMYBs6tVntvJRDh2BKuyW7G2vi7uXctSjFqw8QDPB6oGx_BOTWdR_3aUr8QFnz7NO8oJXjOCfqzEuZPxLeidlvuMhNj137OvsZhdGywRIQMGzl-Kx1rUxokIjEACnlYxoUyU5zHAt1kCqs-lg6pIduRdab3rQ
p713
sa(dp714
Vwidth
p715
I610
sVheight
p716
I423
sVhtml_attributions
p717
(lp718
sVphoto_reference
p719
VCnRnAAAA5PqhVMkarXVj67y6Sj1Rli6RmIvH-vypjj3C8xx0lSWfZA4MDczv8PNsrHWCmszaadznDCZ96PHjdufp1V6judLZGflIaYCZEUTrOyaBVQkRuiZnYou4ApA0TzKFmTXqC0zsBHf5lFXb8-RDR4yPdxIQAmm8ltIiQs9gCjuc7JhuWxoUz38v387q7YvA976YPXjk84q_pKs
p720
sasVtypes
p721
(lp722
Vlodging
p723
aVestablishment
p724
asVicon
p725
Vhttp://maps.gstatic.com/mapfiles/place_api/icons/lodging-71.png
p726
sVname
p727
VSan Francisco Marriott Marquis
p728
sVurl
p729
Vhttps://plus.google.com/106887444712850191170/about?hl=en-US
p730
sVadr_address
p731
V<span class="street-address">780 Mission St</span>, <span class="locality">San Francisco</span>, <span class="region">CA</span> <span class="postal-code">94103</span>, <span class="country-name">United States</span>
p732
sVinternational_phone_number
p733
V+1 415-896-1600
p734
sVreviews
p735
(lp736
(dp737
Vrating
p738
I3
sVaspects
p739
(lp740
(dp741
Vrating
p742
I1
sVtype
p743
Voverall
p744
sasVlanguage
p745
Ven
p746
sVtext
p747
VI recently stayed at this hotel for a large conference. It is a good hotel, very large. However, I had mixed experiences with the customer service. We were 4 students staying there and needed to split the bill on 4 cards. We called ahead and told them this but they apparently ignored this, and $645 later in charges, I am frustrated. Upon calling the customer service, he was rude and interrupted me many times. We also needed a room to share with 4 people (we told them this before as well) and they gave us a tiny room, nothing like the suite we were promised. Thankfully, a room switch was done, but not without a hassle. Additionally, the costs were extremely ridiculous everywhere within. $7 a day for the gym and $15 a day for internet? Wow. I will think twice before staying here again. 
p748
sVauthor_name
p749
VBailey Wockner
p750
sVauthor_url
p751
Vhttps://plus.google.com/111872480398909637191
p752
sVtime
p753
I1416696856
sa(dp754
Vrating
p755
I1
sVaspects
p756
(lp757
(dp758
Vrating
p759
I0
sVtype
p760
Voverall
p761
sasVlanguage
p762
Ven
p763
sVtext
p764
VTo deal with customer service over an reservation issue was the most discriminatory and humiliating telephone event of my life so far two representatives hung up on me ( Iam Marriott rewards member too), made fun of my husband's name started screaming and yelling at me,would not give me her name and she also hung up on me yesterday evening. I will be filing a complaint with the better business admin and Ca Dept of Consumer Affairs.\u000a
p765
sVauthor_name
p766
VLidia Iannicelli
p767
sVauthor_url
p768
Vhttps://plus.google.com/113290576894401125156
p769
sVtime
p770
I1414440405
sa(dp771
Vrating
p772
I4
sVaspects
p773
(lp774
(dp775
Vrating
p776
I2
sVtype
p777
Voverall
p778
sasVlanguage
p779
Ven
p780
sVtext
p781
VEnjoyed the hotel and it's location was superb.  Great customer service.  The only problem was the bellhop service. They were rude and expected a tip for their rudeness. Other than that this hotel was amazing. 
p782
sVauthor_name
p783
VWilliam Birdshead
p784
sVauthor_url
p785
Vhttps://plus.google.com/106070413165326970187
p786
sVtime
p787
I1399848580
sa(dp788
Vrating
p789
I5
sVaspects
p790
(lp791
(dp792
Vrating
p793
I3
sVtype
p794
Voverall
p795
sasVlanguage
p796
Ven
p797
sVtext
p798
VThis is one of my favorite hotels in the City. In the last few times I have stayed there, not only have I received an email from Marriott in advance confirming my arrival, but an email from guest services from the hotel itself asking about any requests I might have. When I arrived I was greeted by a friendly, helpful staff and upgraded to a suite with an incredible view of San Francisco. Every wish I made was granted, and every time I stay there they comment on and appreciate my loyalty. \u000aThis is a well located hotel; walking distance to the Ferry Building and many other attractions. The restaurant is open and friendly, and the view from the appropriately named "View Lounge" is stunning. \u000aAfter leaving the hotel I received another email from guest services wanting to make sure my stay was satisfactory. I was happy to respond that it was beyond satisfactory. \u000aI highly recommend this hotel.
p799
sVauthor_name
p800
VColleen Brennan
p801
sVauthor_url
p802
Vhttps://plus.google.com/109644931818394502043
p803
sVtime
p804
I1405442127
sa(dp805
Vrating
p806
I3
sVaspects
p807
(lp808
(dp809
Vrating
p810
I1
sVtype
p811
Voverall
p812
sasVlanguage
p813
Ven
p814
sVtext
p815
VEarly check-in is not an uncommon thing to request, yet here the evening before my reservation, first I'm told that the phone number in the email is the wrong number, and then told by the hotel that I will need to call the morning of the reservation (at which point I'll be on a plane), and even then it's a 50/50 chance.  Service is what sets great hotels apart from just-ok hotels, and so far Marquis is ranking "just ok".
p816
sVauthor_name
p817
VDustin Mitchell
p818
sVauthor_url
p819
Vhttps://plus.google.com/105883044168332773236
p820
sVtime
p821
I1411346693
sasVformatted_phone_number
p822
V(415) 896-1600
p823
sVaddress_components
p824
(lp825
(dp826
Vlong_name
p827
V780
p828
sVshort_name
p829
V780
p830
sVtypes
p831
(lp832
Vstreet_number
p833
asa(dp834
Vlong_name
p835
VMission St
p836
sVshort_name
p837
VMission St
p838
sVtypes
p839
(lp840
Vroute
p841
asa(dp842
Vlong_name
p843
VSan Francisco
p844
sVshort_name
p845
VSF
p846
sVtypes
p847
(lp848
Vlocality
p849
aVpolitical
p850
asa(dp851
Vlong_name
p852
VCalifornia
p853
sVshort_name
p854
VCA
p855
sVtypes
p856
(lp857
Vadministrative_area_level_1
p858
aVpolitical
p859
asa(dp860
Vlong_name
p861
VUnited States
p862
sVshort_name
p863
VUS
p864
sVtypes
p865
(lp866
Vcountry
p867
aVpolitical
p868
asa(dp869
Vlong_name
p870
V94103
p871
sVshort_name
p872
V94103
p873
sVtypes
p874
(lp875
Vpostal_code
p876
asassba(ispot
Spot
p877
(dp878
g3
I200
sg4
(dp879
Vwebsite
p880
Vhttp://sanfrancisco.giants.mlb.com/sf/ballpark/
p881
sVrating
p882
F4.7
sVutc_offset
p883
I-480
sVplace_id
p884
VChIJ_T25cNd_j4ARehGmHe0pT84
p885
sVname
p886
VAT&T Park
p887
sVreference
p888
VCnRjAAAAz-tnpBKLneA3Mrl3YWXT0OFo1l5wBMbFu19T3wHx_GkGCA5aCyRRRSPIfatvkjL8y7M17WEnW15r-uw3EIiYKEx02-lHUwduVdIABk7SAKcuVlc_-vg9xaUS-v6DpPnDXzpi8ErwtDFaHYOBnXqvbhIQShW9JkBqddg3Ui9PzRa1GRoU9VNoygrJhPf2bjqFqy99TC4IC7c
p889
sVformatted_phone_number
p890
V(415) 972-2000
p891
sVgeometry
p892
(dp893
Vlocation
p894
(dp895
Vlat
p896
F37.778595
sVlng
p897
F-122.38927
sssVadr_address
p898
V<span class="street-address">24 Willie Mays Plaza</span>, <span class="locality">San Francisco</span>, <span class="region">CA</span> <span class="postal-code">94107</span>, <span class="country-name">United States</span>
p899
sVuser_ratings_total
p900
I520
sVinternational_phone_number
p901
V+1 415-972-2000
p902
sVvicinity
p903
V24 Willie Mays Plaza, San Francisco
p904
sVreviews
p905
(lp906
(dp907
Vrating
p908
I5
sVaspects
p909
(lp910
(dp911
Vrating
p912
I3
sVtype
p913
Voverall
p914
sasVlanguage
p915
Ven
p916
sVtext
p917
VI've been here for Giants baseball game,  concerts, and corporate events. The place is very clean and easy to walk through. During games there's TVs all around the stadium near the the food stands and bathrooms so you don't miss any action. The lines for food may be long, and there's so many so it's not too bad! If you are lucky if you go the Virgin America club level you're treating to a great view of the field and even better access to food and drinks! The club level has so much space including a bowling ball alley, galleries of old baseball bats, etc. Try to take a tour of the place if you can! The garden in the back is a welcome addition.
p918
sVauthor_name
p919
VAprille Espinueva
p920
sVauthor_url
p921
Vhttps://plus.google.com/100822860986184584169
p922
sVtime
p923
I1413043156
sa(dp924
Vrating
p925
I5
sVaspects
p926
(lp927
(dp928
Vrating
p929
I3
sVtype
p930
Voverall
p931
sasVlanguage
p932
Ven
p933
sVtext
p934
VGreat stadium - and in the middle of SOMA as well!  The parking can be a bit annoying though as an FYI.\u000a\u000aThe stadium itself is great - I've only come for Giants games, and I've sat usually in the Virgin Airlines area (there's a separate escalator for this).  I really enjoy the food here - I love the garlic fries and I love how clean this stadium is even though it's been open for some time!  \u000a\u000aIt can get very cold here - most people don't realize how cold San Francisco can get at night without the sun, so definitely bring a jacket!  The wine can be really pricey as well so watch out for that. 
p935
sVauthor_name
p936
VSally Zhao
p937
sVauthor_url
p938
Vhttps://plus.google.com/112631984024381153921
p939
sVtime
p940
I1412978141
sa(dp941
Vrating
p942
I5
sVaspects
p943
(lp944
(dp945
Vrating
p946
I3
sVtype
p947
Voverall
p948
sasVlanguage
p949
Ven
p950
sVtext
p951
VBeautiful park, awesome time! We went to the Giants vs. Dodgers game, we're Dodger fans, and people were actually pretty civil, considering how big of a game it was. People were telling me before I went, "try the garlic fries," NASTY!! I only took 6 bites or so, and that's only because they were $8!! I tossed them. And I like garlic. But overall, it was a great experience, pricey, just like any other professional game, but worth it.
p952
sVauthor_name
p953
VAmy Blaisdell
p954
sVauthor_url
p955
Vhttps://plus.google.com/100327111590932161816
p956
sVtime
p957
I1410903632
sa(dp958
Vrating
p959
I5
sVaspects
p960
(lp961
(dp962
Vrating
p963
I3
sVtype
p964
Voverall
p965
sasVlanguage
p966
Ven
p967
sVtext
p968
VWhat can I say about AT&T park?! Anywhere you sit or stand is awesome!!! Entertainment galore! I love their crab cake sandwiches and of course, their garlic fries. The best thing about AT&T Park - The San Francisco Giants!!!!
p969
sVauthor_name
p970
VSharon Bee
p971
sVauthor_url
p972
Vhttps://plus.google.com/112933525571389870098
p973
sVtime
p974
I1413243471
sa(dp975
Vrating
p976
I5
sVaspects
p977
(lp978
(dp979
Vrating
p980
I3
sVtype
p981
Voverall
p982
sasVlanguage
p983
Ven
p984
sVtext
p985
VMy favorite place in San Francisco. Such a beautiful ballpark with amazing energy. Tons of delicious and unique food options. So much to see and do, you will never be bored. Depending on time of the year you can get tickets for pretty inexpensive. Try the garlic fries!
p986
sVauthor_name
p987
VBrendon Nemeth
p988
sVauthor_url
p989
Vhttps://plus.google.com/105213255561655655900
p990
sVtime
p991
I1413257141
sasVphotos
p992
(lp993
(dp994
Vwidth
p995
I1632
sVheight
p996
I1224
sVhtml_attributions
p997
(lp998
VFrom a Google User
p999
asVphoto_reference
p1000
VCnRtAAAAL-TpH_jm4K-9jE8VYfAqEtLqH0GXNGpdn8YVfCeGFc9u7uyEcecZRnQvmBLsegiytteupPqD0c-dsm-G5nPjvS_ePg2FcxZi2Y6IEUW-FJA6I4GQPLYkYOtJDLTyq-HZuHmKcPkRuLafXlz9URY_VhIQ__YDR1PcLqhphIs2y2jmRhoUVeZfCKUEZAqEyx8caZGyQgmD9jI
p1001
sa(dp1002
Vwidth
p1003
I2048
sVheight
p1004
I1536
sVhtml_attributions
p1005
(lp1006
V<a href="https://plus.google.com/106170335079428053302">Corrie Davidson</a>
p1007
asVphoto_reference
p1008
VCpQBhgAAAGxdCDJQtN800_S-9Aa8EoIbErk7unWneFnhgWUxdMwqnGI9bBDA0ZtgJy0aWjv3CEBno4n15raX__oORnh2GjxSmzjoFriPI3Kgk6dI8Hanac6r4eWTdFRC3jyOCNSOKidO5cFBf23x3eYkPLNZsAwFzCto13QYWRwGdMPzNzWbS63dkTdP_fPA1G77lvuFWxIQSoNxtEsKV55b-1fNd7NJWhoUllGGn6qky2AbQQdCDexgxVHUURY
p1009
sa(dp1010
Vwidth
p1011
I1024
sVheight
p1012
I768
sVhtml_attributions
p1013
(lp1014
VFrom a Google User
p1015
asVphoto_reference
p1016
VCoQBdgAAAIQM01_5YXBiU0xZBA9XkJqowPKruwGkh4w6NM__8_9HJLs5lIAu1T7vE57cKVE2JH9J8Y5i56OIG8f2cuJy906tH3MR_QE4ki7-mkw4UFL6PNCzIy1mTbHbKrEHJTjggjxi22--tkfByUaq-rD7a4lro8KJoD-9LoYfluVLvjmyEhDaQZVdIwnHgz1C0csufcWbGhQ0-a9hIaeRJ145go4cxvGgaXV33A
p1017
sa(dp1018
Vwidth
p1019
I2048
sVheight
p1020
I1536
sVhtml_attributions
p1021
(lp1022
V<a href="https://plus.google.com/112095627515954870302">Garrett Messer</a>
p1023
asVphoto_reference
p1024
VCoQBcQAAAGgccuO6uyDYncDgV2b0Z3E1YotcOwBz6ssqKgH_QkFg5RsTVLe7skYW4LpGUk3o4nlE2RGo59rSuWg1egRo6JyvkCddz6bHlFmJ06gAaRiDsAql2om-p_d0CB-tfmr_ARxbeS9bYTSV4Vbjp7XE9tdBXuVQ7CtZiQBZGi6nT7lZEhCVIaUlHA7-Jcj4FLJXUi-TGhRM1P3KcZTnXa6DLpSQCO2tJlvnDw
p1025
sa(dp1026
Vwidth
p1027
I1280
sVheight
p1028
I960
sVhtml_attributions
p1029
(lp1030
V<a href="https://plus.google.com/108152127945250235563">Michael Villalobos Gomez</a>
p1031
asVphoto_reference
p1032
VCnRoAAAAfcYMr_1i4o9UwE6L9llN4sKCqd3oKphqRj63tnx6eE59A3giueZKEMEKWDH_stlVmkMtkXAhsZY97Fqfw5wzvsMyk5EltC4Ao87lR3J_Fg1yk6sC2z1AsUn9zIN6JXsP13gEQ0oQboiT2El78c7TeRIQK_6ObhjnmJPPMxEAWsZ4zBoUN2Cv_sC_yKsSgI8O3HxqrhUWAJo
p1033
sa(dp1034
Vwidth
p1035
I500
sVheight
p1036
I332
sVhtml_attributions
p1037
(lp1038
V<a href="https://plus.google.com/117701647401983318963">Piero Fusco</a>
p1039
asVphoto_reference
p1040
VCnRtAAAAqzaLkzQHgYKcSGfUxD3P6CCxe0hGoj5RztFCNVPAadmHdNBYHnWKWHsN5S2oi4BufjZE_jBbUuKzYgnAQJ_18r-UQw9KqeJS0dmiKapc-QZXxkYS3JihMN5nDD2scNps15Wd58qRt9xjvaauSnlsIhIQ3eYR3cRwgRaWmSjxZ1hy-BoUn9QGktzFih5ka157nLChzl85qQs
p1041
sa(dp1042
Vwidth
p1043
I394
sVheight
p1044
I314
sVhtml_attributions
p1045
(lp1046
VFrom a Google User
p1047
asVphoto_reference
p1048
VCnRtAAAA-VukdYXbrVLb3b7oBbZJVAb_bAZbB7lH1rZ51wT-TJ8W422jQvriZ3l-DwGWvntFOrDtXMQiTzmEPvFaGFOiAxUVfV5p4wEX8pYGpuBCDHtxzDtaOAnLM9GEINuP_wNVnpk2TI6IYHiHKA9BhP1FbxIQn96JeukUupXd2CzCZyC98hoUuDjQhZoedyoxdg9PCQyksllgBRw
p1049
sa(dp1050
Vwidth
p1051
I2048
sVheight
p1052
I1536
sVhtml_attributions
p1053
(lp1054
V<a href="https://plus.google.com/106170335079428053302">Corrie Davidson</a>
p1055
asVphoto_reference
p1056
VCpQBhgAAABb1VwPdW0F7LsLu_4uygEaKgjKPhLtTNeqN4d_SvdAv6j7Kx2ZedxFFRv5LmQHvhJI8XjTJa9A80qqLbTmPB9Ervcp4ig8j1PwGywEaWG40GNcN9k0jhaZ5mVYuhxeAGBw0HHalJDKfYE0rnQdx3rJr6QTYQpoX6daMnmA6ps1LG4zKetyR_F3q9A60wdLbvhIQfoxdigfubUx-_EF6YAQB1xoUw_igYW035zmUSLDcQi_fP45QVlI
p1057
sa(dp1058
Vwidth
p1059
I2448
sVheight
p1060
I3264
sVhtml_attributions
p1061
(lp1062
V<a href="https://plus.google.com/114499818319322887155">Tyler Inocencio</a>
p1063
asVphoto_reference
p1064
VCnRoAAAARcaL0VkhZSXjZBqLFLA10gTr8pOKbvSJUzzW9g5LuHj_qEQAOskrR05P5JxqU14FqI6buy4D_btqDSIr_8E-oofsIgyPuCRhfivxjq94rLdwO67PAsaREK8mpG8WvodVXqHUlhuX9FAy6acrfMlYiRIQoAk9H99EXcswpmwo_KeV6xoU-ybGd32Nztl_WalZRvQ-Yh9xm9o
p1065
sa(dp1066
Vwidth
p1067
I1296
sVheight
p1068
I972
sVhtml_attributions
p1069
(lp1070
V<a href="https://plus.google.com/117454953906757170811">George Fosselius</a>
p1071
asVphoto_reference
p1072
VCnRtAAAABAbjCDYJ2h-jRz0UWFsdlp2TJak3mrE53HKOFlLbYEHCOL4-3wVBw8HwEROTBhqCjPPIb8zX8sFAMS05LiTv26wMW0Db_ce72CvQfrOQY1DKKe67Myt54BnviLbZOXp-brmj1sf2oxJSF4HW1yaB7hIQ8I4OHVhoGtk90MjexDzt2BoU1C0EJEpD8FB0OS5ito6zfMoR2zg
p1073
sasVurl
p1074
Vhttps://plus.google.com/114995991922311473611/about?hl=en-US
p1075
sVaddress_components
p1076
(lp1077
(dp1078
Vlong_name
p1079
V24
p1080
sVshort_name
p1081
V24
p1082
sVtypes
p1083
(lp1084
Vstreet_number
p1085
asa(dp1086
Vlong_name
p1087
VWillie Mays Plaza
p1088
sVshort_name
p1089
VWillie Mays Plaza
p1090
sVtypes
p1091
(lp1092
Vroute
p1093
asa(dp1094
Vlong_name
p1095
VSan Francisco
p1096
sVshort_name
p1097
VSF
p1098
sVtypes
p1099
(lp1100
Vlocality
p1101
aVpolitical
p1102
asa(dp1103
Vlong_name
p1104
VCalifornia
p1105
sVshort_name
p1106
VCA
p1107
sVtypes
p1108
(lp1109
Vadministrative_area_level_1
p1110
aVpolitical
p1111
asa(dp1112
Vlong_name
p1113
VUnited States
p1114
sVshort_name
p1115
VUS
p1116
sVtypes
p1117
(lp1118
Vcountry
p1119
aVpolitical
p1120
asa(dp1121
Vlong_name
p1122
V94107
p1123
sVshort_name
p1124
V94107
p1125
sVtypes
p1126
(lp1127
Vpostal_code
p1128
asasVscope
p1129
VGOOGLE
p1130
sVformatted_address
p1131
V24 Willie Mays Plaza, San Francisco, CA 94107, United States
p1132
sVid
p1133
V2fabca457541277971b0bc91a40bbad02ecbb5ba
p1134
sVtypes
p1135
(lp1136
Vstadium
p1137
aVestablishment
p1138
asVicon
p1139
Vhttp://maps.gstatic.com/mapfiles/place_api/icons/stadium-71.png
p1140
ssba(ispot
Spot
p1141
(dp1142
g3
I250
sg4
(dp1143
Vrating
p1144
I4
sVreference
p1145
VCqQBkQAAALrcBmYFm-8ynV-9KkOOfFxRHJf7O7YVfyM3w5v4rNKOKLvZJuJEeHxWeOi9jPNyGD18xQmDIocdJtyvYVQScBIDGejsgH_Wy3FtcdRwdHRwmyVcZ2lEsWVGjll55OPV8SBzaibBm5vIobvp-ECLnJdywCpm7zXRQa5TIqk1MsXOv4ZU5nAiWgj9neNipvpdQj75666xDjfQA8QHZQHSe6oSEA6eJDxTxgkOarDd-UqrLswaFBd4x-5Fx9Igewqed0_O5d4I0xrG
p1146
sVprice_level
p1147
I4
sVplace_id
p1148
VChIJ150MH4iAhYARy399PwjhCb4
p1149
sVformatted_address
p1150
V2 New Montgomery St, San Francisco, CA 94105, United States
p1151
sVid
p1152
Vf62741e305ade8cf3fab5b364cd7aafb1ce89f58
p1153
sVformatted_phone_number
p1154
V(415) 512-1111
p1155
sVvicinity
p1156
V2 New Montgomery St, San Francisco
p1157
sVscope
p1158
VGOOGLE
p1159
sVwebsite
p1160
Vhttp://www.sfpalace.com/
p1161
sVutc_offset
p1162
I-480
sVuser_ratings_total
p1163
I196
sVphotos
p1164
(lp1165
(dp1166
Vwidth
p1167
I343
sVheight
p1168
I230
sVhtml_attributions
p1169
(lp1170
sVphoto_reference
p1171
VCnRnAAAAfgazL7PXOroh3L9atPhxbWfjsxMYMtsA815UBHnejxRsADQuNPf5vMBVxVU1IKVKekRJhr0DarERyj2cvG29_5qp9ntdfVjUfh49AVA4BzGSK-OFFDknG7oQ23_xNearmAWvkFL6IamkqPOa0HlJ2xIQ1Q-qXvcU3543IgiyPQpwehoUkPOeZF7jlI-48-K1Iq9q-YU9ZJw
p1172
sa(dp1173
Vwidth
p1174
I343
sVheight
p1175
I230
sVhtml_attributions
p1176
(lp1177
sVphoto_reference
p1178
VCnRqAAAAXZ0ywxs-_H6fbu4h4aD_YWZKg1k8uoWs2mS-PCejH0jBrSJ3-q4gpiyxryG-YAzEjjOLNEsNPoQytpTvtFlIBuBMQn89ib3IbUbGcY20QSdYH4WilgWCN_RGwKrxrmda6v5oPw7UCotjppZmezkIoRIQCQ_IqxYaP_o_-Evw35rRaxoUfjRBwWNV1ZzbNYRYsOouCPWxRCg
p1179
sa(dp1180
Vwidth
p1181
I343
sVheight
p1182
I230
sVhtml_attributions
p1183
(lp1184
sVphoto_reference
p1185
VCnRnAAAAN_D9E_7pWaJ48E-7ZMClz6_TpHH4wzd4IaHZxZ7r4eVTqdmitYkkSkR2AVf11TEeAXtn_xWmQud7vO-jOPAcCK4xa6UXfc9ZuPXWmjMtTjqHSiN5yJ31uEJDVqXmSFdZhG47rW0a_l4XUUlBnHV3WBIQgL6oCjmMJ9pRTe6zP2_bUxoU1Y8MTiTy0f7ZcSdJ53-w1GaoSwY
p1186
sa(dp1187
Vwidth
p1188
I343
sVheight
p1189
I230
sVhtml_attributions
p1190
(lp1191
sVphoto_reference
p1192
VCnRnAAAAwPMm7ONQd27513nW2u3asqRDeZ5N6ttZLpmPcZGTTq8RXKqujfxU47Y3A65nI1YOO8a5IvQma6XlJaPX8ZMsevy3ifxyDvSA1LvjvVAGSRoyYgjmAR6U0woBiEt6uBlJzP0EllZaS2NIkHFEIManCRIQC0zABC001wgRh3zI57PBGhoUAoY_GnZFmIuW-BxcDzP3_6Az3qI
p1193
sa(dp1194
Vwidth
p1195
I343
sVheight
p1196
I230
sVhtml_attributions
p1197
(lp1198
sVphoto_reference
p1199
VCnRnAAAADyIv4ArYozv8X-0ivvNxzfLet5NM9tHHBQr3V5-dKXNuO0ZmIDH9cOs9iorC33j0szi18YKAZY47VaBe8r7vkCrbFEsqqMPoEQgeeFy31CNoQQbCh1lCNEWDzwi1sOKv-iG3HmTON469wVmmZIy5tRIQr28yCT4we8IVWt1CeW0dLRoUd8nJx4d3BW4_sclDe_87eSVA5Vc
p1200
sa(dp1201
Vwidth
p1202
I343
sVheight
p1203
I230
sVhtml_attributions
p1204
(lp1205
sVphoto_reference
p1206
VCnRnAAAAGjDHwmIkJwindxeEKxvbGAzo7zijg1KKSJQEHwZT46-c8ar8jpTvpMWftnh98maLpuV1_Pijq9FlCmN8oYK1a-JTIQqtw88vFoOlgNoO9Ou6qd9lU-oC8Ofzhv8Tbhb8lqhcblx3ek681Rs-QMSY2BIQmjueRKsTBeW0FA-xDO-nuRoUoLC3Kib74zqIDiSMFr6uSV0Ov9E
p1207
sa(dp1208
Vwidth
p1209
I343
sVheight
p1210
I230
sVhtml_attributions
p1211
(lp1212
sVphoto_reference
p1213
VCnRqAAAAaUy2YQxywwrEzFDgLnOLuac92lmmiCDlyoS7iUXLR6QKUb3rAs6y4mmo-mNg_y_EOPPj-vzPFijlKB_gd1rfZr_-gALoMlhlW_y6WQrS4DKQuEJG2_v33kOo7ReSOgg0NbdbZ0DP6bzi4NZB28azexIQCaP0Nq3561RjONVh0wTUOBoUb3zIkvVgI8qpwdnWnVeKNP3SfzY
p1214
sa(dp1215
Vwidth
p1216
I343
sVheight
p1217
I230
sVhtml_attributions
p1218
(lp1219
sVphoto_reference
p1220
VCnRqAAAAslFMqDoefYrlr62LmC9YS2Wkim4RQ9Ou4KNb46oPcl673tgbrlBNF3rXA1lIX3TuLv4dkJ5vumiEH1JoxnVKHRzx0gXtlMfxINxRYAVq2Pw6Z-AZAa94dO-w3CX44FrQBBRw9AEO0TvPmxtxerwhVhIQJq5dRDOqQiy4SrUZeyOVXhoUPpJ00XTr_2nZSOXvJRbrG22kK9E
p1221
sa(dp1222
Vwidth
p1223
I343
sVheight
p1224
I230
sVhtml_attributions
p1225
(lp1226
sVphoto_reference
p1227
VCnRqAAAAkCK37hgqW9Pr7F4D8iWgePJxlXRlqk5zKyJeI_qxUF7RttBRvTluvkYQeKLymLatJOw1_k_2pA6HT3MfUjaaTuOwr81p2140KOY8Ca-n5ljHSNr0IyN3UwdfsmH9UOPGMk266snFToYGuUR9fyO_phIQ_l9fcn3dwAcmKSHbBbia3xoUCCy9Y5puSpJvjG2KA2m7nxcMLuM
p1228
sa(dp1229
Vwidth
p1230
I343
sVheight
p1231
I230
sVhtml_attributions
p1232
(lp1233
sVphoto_reference
p1234
VCnRqAAAA91tRGOv9nKv03qs2GAtLclhB9iljnHHWHL5mHpEWPte78iEULJBK4gH-0b-6jOUk95oYR3sJ4X5T8URTECz1IqGjwYdC-Wb0g6fIs1FuBv3xw21GnbGr2FHZVRPS6IB_S7ccNzQQesA5_jny5R-uJBIQkDdu30jV2hUopsEEiCoJpBoUNJABwoaO0pLiFdwKFOeba8tDvw0
p1235
sasVtypes
p1236
(lp1237
Vlodging
p1238
aVestablishment
p1239
asVicon
p1240
Vhttp://maps.gstatic.com/mapfiles/place_api/icons/lodging-71.png
p1241
sVname
p1242
VPalace Hotel, a Luxury Collection Hotel, San Francisco
p1243
sVgeometry
p1244
(dp1245
Vlocation
p1246
(dp1247
Vlat
p1248
F37.788599
sVlng
p1249
F-122.402019
sssVadr_address
p1250
V<span class="street-address">2 New Montgomery St</span>, <span class="locality">San Francisco</span>, <span class="region">CA</span> <span class="postal-code">94105</span>, <span class="country-name">United States</span>
p1251
sVinternational_phone_number
p1252
V+1 415-512-1111
p1253
sVreviews
p1254
(lp1255
(dp1256
Vrating
p1257
I5
sVaspects
p1258
(lp1259
(dp1260
Vrating
p1261
I3
sVtype
p1262
Voverall
p1263
sasVlanguage
p1264
Ven
p1265
sVtext
p1266
VI've only been here for events in the Grand Ballroom and to Tea.  So this review is based on those experiences, which have been superior!  Tea at the Sheraton Palace should be on everyone's bucket list.  The room is over the top elegant, as is the service.  This experience sets you back to another place and time, it is truly a respite from the frantic life we all seem to be rushing around in.  Reservations for tea are a must. 
p1267
sVauthor_name
p1268
VYoni Mayeri
p1269
sVauthor_url
p1270
Vhttps://plus.google.com/105820450885180571966
p1271
sVtime
p1272
I1412953438
sa(dp1273
Vrating
p1274
I5
sVaspects
p1275
(lp1276
(dp1277
Vrating
p1278
I3
sVtype
p1279
Voverall
p1280
sasVlanguage
p1281
Ven
p1282
sVtext
p1283
VThe hotel is beautiful, and the staff is very friendly and helpful.  I recently proposed at the hotel to my girlfriend, and the plan required some coordination with the hotel.  Prior to my arrival I called to coordinate with the hotel, the receptionist connected me with Adriana.  Adriana told me she had me covered. Just to start, she made it possible for me to do the check-in process over the phone and via a secure site so that when I arrived I'd just need to show my ID in exchange for the keycard, and had a bucket of ice placed in the room along with chocolate covered strawberries minutes prior to our timed arrival.  She made the entire experience flawless for me, and extremely special for the two of us.  My fiance was head over heals.  Thank you, Adriana.  We look forward coming back to stay for our anniversaries to come.  
p1284
sVauthor_name
p1285
VDaniel Garzia
p1286
sVauthor_url
p1287
Vhttps://plus.google.com/102573460518502520362
p1288
sVtime
p1289
I1409678518
sa(dp1290
Vrating
p1291
I4
sVaspects
p1292
(lp1293
(dp1294
Vrating
p1295
I2
sVtype
p1296
Voverall
p1297
sasVlanguage
p1298
Ven
p1299
sVtext
p1300
VDon't miss this lobby and restaurant. The food is good. Especially the Sunday Brunch. But just to sit in this three story atrium is the treat. Imagine this was used over 150 years ago. Plus the bar is a throw back to 100 years ago. Enjoy. 
p1301
sVauthor_name
p1302
VTom Flood
p1303
sVauthor_url
p1304
Vhttps://plus.google.com/115575784208091767568
p1305
sVtime
p1306
I1405422502
sa(dp1307
Vrating
p1308
I4
sVaspects
p1309
(lp1310
(dp1311
Vrating
p1312
I2
sVtype
p1313
Voverall
p1314
sasVlanguage
p1315
Ven
p1316
sVtext
p1317
VBeautiful hotel, center of the city. Room was average size with high ceilings, very nice bathroom and comfortable bed. Gorgeous inside the lobby (there was a wedding or something happening during our stay). Lots of traffic getting there to the valet but otherwise great. 
p1318
sVauthor_name
p1319
VShaw Levin
p1320
sVauthor_url
p1321
Vhttps://plus.google.com/117722603808387603069
p1322
sVtime
p1323
I1411845235
sa(dp1324
Vrating
p1325
I5
sVaspects
p1326
(lp1327
(dp1328
Vrating
p1329
I3
sVtype
p1330
Voverall
p1331
sasVlanguage
p1332
Ven
p1333
sVtext
p1334
VBeautiful, well preserved, old Hotel. Other old hotels in this city should take note. Old does not have to mean run down. Class act.
p1335
sVauthor_name
p1336
VJoAnn Gamma
p1337
sVauthor_url
p1338
Vhttps://plus.google.com/110299714971709099718
p1339
sVtime
p1340
I1414738296
sasVurl
p1341
Vhttps://plus.google.com/118209841820254113466/about?hl=en-US
p1342
sVaddress_components
p1343
(lp1344
(dp1345
Vlong_name
p1346
V2
p1347
sVshort_name
p1348
V2
p1349
sVtypes
p1350
(lp1351
Vstreet_number
p1352
asa(dp1353
Vlong_name
p1354
VNew Montgomery St
p1355
sVshort_name
p1356
VNew Montgomery St
p1357
sVtypes
p1358
(lp1359
Vroute
p1360
asa(dp1361
Vlong_name
p1362
VSouth Beach
p1363
sVshort_name
p1364
VSouth Beach
p1365
sVtypes
p1366
(lp1367
Vneighborhood
p1368
aVpolitical
p1369
asa(dp1370
Vlong_name
p1371
VSan Francisco
p1372
sVshort_name
p1373
VSF
p1374
sVtypes
p1375
(lp1376
Vlocality
p1377
aVpolitical
p1378
asa(dp1379
Vlong_name
p1380
VSan Francisco County
p1381
sVshort_name
p1382
VSan Francisco County
p1383
sVtypes
p1384
(lp1385
Vadministrative_area_level_2
p1386
aVpolitical
p1387
asa(dp1388
Vlong_name
p1389
VCalifornia
p1390
sVshort_name
p1391
VCA
p1392
sVtypes
p1393
(lp1394
Vadministrative_area_level_1
p1395
aVpolitical
p1396
asa(dp1397
Vlong_name
p1398
VUnited States
p1399
sVshort_name
p1400
VUS
p1401
sVtypes
p1402
(lp1403
Vcountry
p1404
aVpolitical
p1405
asa(dp1406
Vlong_name
p1407
V94105
p1408
sVshort_name
p1409
V94105
p1410
sVtypes
p1411
(lp1412
Vpostal_code
p1413
asassba(ispot
Spot
p1414
(dp1415
g3
I300
sg4
(dp1416
Vrating
p1417
F4.3
sVreference
p1418
VCnRoAAAA2mMq9Zb3Lyxiz7LaXVoihzlDJszfn3M-au7ZrOow8c2kj8EmvvhlPmNxSYPN-44eCNSs3g1JPbJQl1nwasAnopaEu92-qUG9MrsNw_ay22NrgjXlJp4uT9xWVz5PC6BwJIR7pnF51Sf1E9dbdWjWvhIQ7WxPNyzfcuwkP6xlqxuK_hoUcl9VFQbzVWvyqKhZe07C39RoLag
p1419
sVplace_id
p1420
VChIJI7NivpmAhYARSuRPlbbn_2w
p1421
sVgeometry
p1422
(dp1423
Vlocation
p1424
(dp1425
Vlat
p1426
F37.771517
sVlng
p1427
F-122.468733
sssVformatted_address
p1428
V50 Hagiwara Tea Garden Dr, San Francisco, CA 94118, United States
p1429
sVid
p1430
V2a7464f9faa0b872fcc3132045a4b29e7661f83c
p1431
sVopening_hours
p1432
(dp1433
Vweekday_text
p1434
(lp1435
VMonday: Closed
p1436
aVTuesday: 9:30 am \u2013 5:15 pm
p1437
aVWednesday: 9:30 am \u2013 5:15 pm
p1438
aVThursday: 9:30 am \u2013 5:15 pm
p1439
aVFriday: 9:30 am \u2013 8:45 pm
p1440
aVSaturday: 9:30 am \u2013 5:15 pm
p1441
aVSunday: 9:30 am \u2013 5:15 pm
p1442
asVopen_now
p1443
I00
sVperiods
p1444
(lp1445
(dp1446
Vclose
p1447
(dp1448
Vday
p1449
I0
sVtime
p1450
V1715
p1451
ssVopen
p1452
(dp1453
Vday
p1454
I0
sVtime
p1455
V0930
p1456
ssa(dp1457
Vclose
p1458
(dp1459
Vday
p1460
I2
sVtime
p1461
V1715
p1462
ssVopen
p1463
(dp1464
Vday
p1465
I2
sVtime
p1466
V0930
p1467
ssa(dp1468
Vclose
p1469
(dp1470
Vday
p1471
I3
sVtime
p1472
V1715
p1473
ssVopen
p1474
(dp1475
Vday
p1476
I3
sVtime
p1477
V0930
p1478
ssa(dp1479
Vclose
p1480
(dp1481
Vday
p1482
I4
sVtime
p1483
V1715
p1484
ssVopen
p1485
(dp1486
Vday
p1487
I4
sVtime
p1488
V0930
p1489
ssa(dp1490
Vclose
p1491
(dp1492
Vday
p1493
I5
sVtime
p1494
V2045
p1495
ssVopen
p1496
(dp1497
Vday
p1498
I5
sVtime
p1499
V0930
p1500
ssa(dp1501
Vclose
p1502
(dp1503
Vday
p1504
I6
sVtime
p1505
V1715
p1506
ssVopen
p1507
(dp1508
Vday
p1509
I6
sVtime
p1510
V0930
p1511
ssassVvicinity
p1512
V50 Hagiwara Tea Garden Dr, San Francisco
p1513
sVscope
p1514
VGOOGLE
p1515
sVwebsite
p1516
Vhttp://deyoung.famsf.org/
p1517
sVutc_offset
p1518
I-480
sVuser_ratings_total
p1519
I121
sVphotos
p1520
(lp1521
(dp1522
Vwidth
p1523
I953
sVheight
p1524
I953
sVhtml_attributions
p1525
(lp1526
sVphoto_reference
p1527
VCnRwAAAAnAhQlWOfto5CoIgaDgyOio4ougDuBT4sckU-DymWD8d-dkTP0L7F_jZl9hec_F4icvmSw-_9mZfOvqQwCJP4ZAQb9yV6iEFJhd0duhsXG4GfoEx4pywtHo-d6uqHEV07RE5C8RrCQgtoNow0eHzK0xIQ2CXi2l5fg_fvTQgBozCSuhoUyBY_gLEsXejSPmiDQX5fCdCHuqY
p1528
sa(dp1529
Vwidth
p1530
I2048
sVheight
p1531
I1361
sVhtml_attributions
p1532
(lp1533
V<a href="https://plus.google.com/107703067300113514526">Cornelius O&#39;Leary Jr</a>
p1534
asVphoto_reference
p1535
VCnRqAAAAixlqECY39j9wKVt28XXEE8euMSD_AMHDYqy3GGiIcZULWSPBbfr7y6c7UpKPvVoP-l8wgpYejnjgcISAo7BihLqS-8BGRWvgzQAIXH7RbkPf0O0jQiiX_bpEx7-UA80ZuY7z7l8ZBdj7zcw04XO2ixIQG_uySOOfuIdukEQWR5XECBoU4j306G1rgdbHKv340f3-rhMrCck
p1536
sa(dp1537
Vwidth
p1538
I1984
sVheight
p1539
I1488
sVhtml_attributions
p1540
(lp1541
V<a href="https://plus.google.com/113173931251785215708">Henning Nielsen</a>
p1542
asVphoto_reference
p1543
VCnRqAAAAW7vflc4oBsp_Opja_0h0vlcvraq7GPmNDXiJ7KxrUoe8XPIIgmG0TY0w4VrbDWneINW1EK-Y4z40CxIAVdl6gMXzgOGA3xPmuvsZPv4X95oKAnyIELt_Cpgq5WmmNbYZw0Duo1IHVurf2ePQH6E5-RIQPE9sdbU4VV5BNABqYShqGRoUtbbKdwFO85TEDbcuFdEX7pbrJ_8
p1544
sa(dp1545
Vwidth
p1546
I380
sVheight
p1547
I276
sVhtml_attributions
p1548
(lp1549
V<a href="https://plus.google.com/100146962083959904819">Sarah White</a>
p1550
asVphoto_reference
p1551
VCnRqAAAAEX3bZVxF_9d2jPYZQSDk_mYyYavPbIk3U22yD-pGesO6zZpmgpJd6aT3dwmgM1-TGxlUB0jNMsPf4GMKgXMBYILdSnXkjieYkRBl6Lr7GJ50ADe37601qlOr_DwSyyMn_uDcxYTelqU25qFI2951GxIQCTv0HE6_GTaO1vel5-v06BoU-DAqK4gVofPGochAy61nkIBQwoA
p1552
sa(dp1553
Vwidth
p1554
I2048
sVheight
p1555
I1361
sVhtml_attributions
p1556
(lp1557
V<a href="https://plus.google.com/107703067300113514526">Cornelius O&#39;Leary Jr</a>
p1558
asVphoto_reference
p1559
VCnRqAAAAGS6nfI0wahnzuyf5S3V6YhOpRCCweOqgyFJt89ZcAstUf8IQY-iMpKOpm_1IVgLw7m4m1IFQp_hGmoJJQWKKm4wyP_3kmnzZDTpSx9cbF9oDDTKyuvMJZGb80DfiIzsDrCJFJZgkTmllglafjoCOjRIQ9J2aL2qDGEp6cwiElKtxXxoU3fRijp3bzDjmq3UXyCJzrEk_6Q8
p1560
sa(dp1561
Vwidth
p1562
I2048
sVheight
p1563
I1361
sVhtml_attributions
p1564
(lp1565
V<a href="https://plus.google.com/107703067300113514526">Cornelius O&#39;Leary Jr</a>
p1566
asVphoto_reference
p1567
VCnRqAAAAedhsq0gppfzcupldKXKRhoAZ_pPnxQX4ZFk-_uwa0YuM_Mi__x2_GPvT48TGvNiMer6gj8XGBVzhbbxpphItnJNnY9iS2hglzCcT9P6LZpdcpw3YPQTICqCQ078UJAFuLLW2L7MTe5xjrAnJF2FAzRIQAqaVEmcRX7bKjYHBA3aX-BoUVFYyJLJO4OAMkt9ZefwvOuPeJSE
p1568
sa(dp1569
Vwidth
p1570
I2048
sVheight
p1571
I1361
sVhtml_attributions
p1572
(lp1573
V<a href="https://plus.google.com/107703067300113514526">Cornelius O&#39;Leary Jr</a>
p1574
asVphoto_reference
p1575
VCnRqAAAAqDTjv_r9ij9L1BgU0svao0vUQfpvjxTF2Qlv96q4yeqPhEccxZzgZZVE8vxlVTX2npJYXnS__YGl2tBG-dGssnvinm1fQU1sfsKnfa9olaCLWi7WRZhG4tLDvBme_B03nMmNNFTFAzMikQoUQuiRChIQy6-deJwdAYxUjqlbUqcJ7RoUzjiFOqdKntIQgKwDr8CO_tgj-ls
p1576
sa(dp1577
Vwidth
p1578
I2048
sVheight
p1579
I1361
sVhtml_attributions
p1580
(lp1581
V<a href="https://plus.google.com/107703067300113514526">Cornelius O&#39;Leary Jr</a>
p1582
asVphoto_reference
p1583
VCnRqAAAAh16UQrJlF0zIMKTC4d9d_waxbAJAQG5PeI_ywkjPTMunRd01wnvW8l8tLnrUjRNjgQ4wnDL68P-8MRaRYQupAZ7Ugl5J8a9LQ7Abt41m-c6tFr8k_b9VFG-2ZIhtUehkbzG_2HdjM0DpGAvgyfj8BxIQO_s-sVA7_xuD__RAQ36mYhoUz5EpvUjPimM17jvFUnNu8W6Si-o
p1584
sa(dp1585
Vwidth
p1586
I2048
sVheight
p1587
I1361
sVhtml_attributions
p1588
(lp1589
V<a href="https://plus.google.com/107703067300113514526">Cornelius O&#39;Leary Jr</a>
p1590
asVphoto_reference
p1591
VCnRqAAAAl58V3cSwC08cftI1IRKe6WejkoXQ-5VsZJVxs0VD350lCcQVBXDJ_46pR6H4Lu0zE5oYC0S3crAaKcbi8imN5Jor-RpekCV_j5DSz7V1iWs1OJzabsr0V00LqZaxK13m_joix_WYCFTL_gFgSAmkIxIQHX0ivYw29xtPFSuK9BMR2BoUn1mmtGNJRutm5ErghDQcrbKCVt4
p1592
sa(dp1593
Vwidth
p1594
I2048
sVheight
p1595
I1361
sVhtml_attributions
p1596
(lp1597
V<a href="https://plus.google.com/107703067300113514526">Cornelius O&#39;Leary Jr</a>
p1598
asVphoto_reference
p1599
VCnRqAAAAMn2E1t79mHB07b_zIQtRO1GONE8vGzj012YuBw2_CrT72Gf5lHiGjqUTDmR5ixIprjzpgBYfRwSmNaddHn_nqqxSlAcXwDlpTB60B5mWZN-f-o24tw_3wPbWmTTf0KWrRKvjrWmbS6yWtccO6cJSDBIQiuif5gWKB283AtIUr7KhbBoUeZko9WIc832ViYxXoiuwfe_yQuU
p1600
sasVtypes
p1601
(lp1602
Vmuseum
p1603
aVestablishment
p1604
asVicon
p1605
Vhttp://maps.gstatic.com/mapfiles/place_api/icons/museum-71.png
p1606
sVname
p1607
Vde Young Museum
p1608
sVurl
p1609
Vhttps://plus.google.com/104010277220168946324/about?hl=en-US
p1610
sVadr_address
p1611
V<span class="street-address">50 Hagiwara Tea Garden Dr</span>, <span class="locality">San Francisco</span>, <span class="region">CA</span> <span class="postal-code">94118</span>, <span class="country-name">United States</span>
p1612
sVinternational_phone_number
p1613
V+1 415-750-3600
p1614
sVreviews
p1615
(lp1616
(dp1617
Vrating
p1618
I5
sVaspects
p1619
(lp1620
(dp1621
Vrating
p1622
I3
sVtype
p1623
Voverall
p1624
sasVlanguage
p1625
Ven
p1626
sVtext
p1627
VGreat collection of American Art, fantastic location and fun place to visit.  Shows change regularly, the permanent collection of glass, silver and furniture on the second floor is not to be missed. You can take the elevator to the top floor tower and see a 360 degree view of Golden Gate Park, The GG Bridge and all the neighborhoods surrounding the park.  Wonderful gardens around the museum too.  The cafe is super, lots of choices and fast, friendly service; dine inside or take your food to the lovely outdoor tables.  
p1628
sVauthor_name
p1629
VYoni Mayeri
p1630
sVauthor_url
p1631
Vhttps://plus.google.com/105820450885180571966
p1632
sVtime
p1633
I1412362196
sa(dp1634
Vrating
p1635
I5
sVaspects
p1636
(lp1637
(dp1638
Vrating
p1639
I3
sVtype
p1640
Voverall
p1641
sasVlanguage
p1642
Ven
p1643
sVtext
p1644
VI have been to a few major exhibits at this museum and I have to say that it is probably my favorite art museum in San Francisco. The staff here does a great job of presenting their classic collection along with an incredible mixture of popular exhibits and temporary installations that very confidently speak to the zeitgeist of the city. This is an amazing accomplishment. Consider how difficult this must be in a city as cool in San Francisco. But with things like the Warhol exhibit and the Jean Paul Gaultier design timeline tour, the DeYoung maintains its place at the pinnacle of the hyper-cool. Having met the people that work there I can also say that they are truly passionate about translating the method, practice, value, and study of art to their community. This is visible in the balance of fun to academic observation and analysis they have in every showing. There is something here for everyone and it's very presentation and curation is art of an incredible caliber. I could go on.....
p1645
sVauthor_name
p1646
VMisha Metrikin
p1647
sVauthor_url
p1648
Vhttps://plus.google.com/114890117672430115819
p1649
sVtime
p1650
I1413260271
sa(dp1651
Vrating
p1652
I4
sVaspects
p1653
(lp1654
(dp1655
Vrating
p1656
I2
sVtype
p1657
Voverall
p1658
sasVlanguage
p1659
Ven
p1660
sVtext
p1661
VWas lucky enough to visit the O'Keefe exhibit earlier this year and this is museum going at its finest (helped by the fact that the SF MoMa is closed for the next two years so options are currently slim).\u000aOnly giving it four stars since at $25 a pop for admission, this place isn't exactly a bargain. \u000aMake time to visit the Japanese Tea Garden next door and also be sure to go up to the viewing floor for unmatched views of the Presidio and Golden Gate Park.
p1662
sVauthor_name
p1663
VElmer Ayala
p1664
sVauthor_url
p1665
Vhttps://plus.google.com/103969904087092883134
p1666
sVtime
p1667
I1413179353
sa(dp1668
Vrating
p1669
I5
sVaspects
p1670
(lp1671
(dp1672
Vrating
p1673
I3
sVtype
p1674
Voverall
p1675
sasVlanguage
p1676
Ven
p1677
sVtext
p1678
VThe de Young is a beautiful and modern museum. Highly recommended; houses a full collection of African art, Native American textiles, modernism, and more. The tower in the de Young also offers access to an expansive view of both Golden Gate Park and the city.
p1679
sVauthor_name
p1680
VJoyce Tang
p1681
sVauthor_url
p1682
Vhttps://plus.google.com/101092365012450853182
p1683
sVtime
p1684
I1414996654
sa(dp1685
Vrating
p1686
I4
sVaspects
p1687
(lp1688
(dp1689
Vrating
p1690
I2
sVtype
p1691
Voverall
p1692
sasVlanguage
p1693
Ven
p1694
sVtext
p1695
VThis museum has great architecture.   There is a 360 degree overlook in the tower, that is free to access.    The views of the park and bay area are spectacular, but of course dependant on the weather. There are also a sculpture court and maze garden that are free.
p1696
sVauthor_name
p1697
VAnna Hautzinger
p1698
sVauthor_url
p1699
Vhttps://plus.google.com/116136613716129316971
p1700
sVtime
p1701
I1415130977
sasVformatted_phone_number
p1702
V(415) 750-3600
p1703
sVaddress_components
p1704
(lp1705
(dp1706
Vlong_name
p1707
V50
p1708
sVshort_name
p1709
V50
p1710
sVtypes
p1711
(lp1712
Vstreet_number
p1713
asa(dp1714
Vlong_name
p1715
VHagiwara Tea Garden Dr
p1716
sVshort_name
p1717
VHagiwara Tea Garden Dr
p1718
sVtypes
p1719
(lp1720
Vroute
p1721
asa(dp1722
Vlong_name
p1723
VSan Francisco
p1724
sVshort_name
p1725
VSF
p1726
sVtypes
p1727
(lp1728
Vlocality
p1729
aVpolitical
p1730
asa(dp1731
Vlong_name
p1732
VCalifornia
p1733
sVshort_name
p1734
VCA
p1735
sVtypes
p1736
(lp1737
Vadministrative_area_level_1
p1738
aVpolitical
p1739
asa(dp1740
Vlong_name
p1741
VUnited States
p1742
sVshort_name
p1743
VUS
p1744
sVtypes
p1745
(lp1746
Vcountry
p1747
aVpolitical
p1748
asa(dp1749
Vlong_name
p1750
V94118
p1751
sVshort_name
p1752
V94118
p1753
sVtypes
p1754
(lp1755
Vpostal_code
p1756
asassba(ispot
Spot
p1757
(dp1758
g3
I350
sg4
(dp1759
Vwebsite
p1760
Vhttp://sfrecpark.org/destination/telegraph-hill-pioneer-park/coit-tower/
p1761
sVrating
p1762
F4.1
sVutc_offset
p1763
I-480
sVplace_id
p1764
VChIJAQAAQIyAhYARRN3yIQG4hd4
p1765
sVname
p1766
VCoit Tower
p1767
sVreference
p1768
VCnRkAAAAeRYaE0nKyEWjzOxm-5-M5eccXGwJcRDdkQUC99ExXY_mK1cTNS3JLR6ppB0CP0PeYEBhwFYfXuztKhKpQMaG0RdsXqD5Suy6eBJ0rfzyLt3rTWLUFTjBX710rTC5_tB_8zSzUYSBl0m4RiJKpj6KzBIQJPO-5TWyJzszc-CiuGAziRoU7rM0LYiZ7jPZx93Jljjwe3UFA40
p1769
sVgeometry
p1770
(dp1771
Vlocation
p1772
(dp1773
Vlat
p1774
F37.802395
sVlng
p1775
F-122.405822
sssVadr_address
p1776
V<span class="street-address">1 Telegraph Hill Blvd</span>, <span class="locality">San Francisco</span>, <span class="region">CA</span> <span class="postal-code">94133</span>, <span class="country-name">United States</span>
p1777
sVuser_ratings_total
p1778
I441
sVvicinity
p1779
V1 Telegraph Hill Blvd, San Francisco
p1780
sVreviews
p1781
(lp1782
(dp1783
Vrating
p1784
I4
sVaspects
p1785
(lp1786
(dp1787
Vrating
p1788
I2
sVtype
p1789
Voverall
p1790
sasVlanguage
p1791
Ven
p1792
sVtext
p1793
VCoit tower has recently undergone some renovations.  (Thanks National Trust for Historic Preservation)   The WPA murals on the ground floor are freshly cleaned, and present interesting visions of life in the 1930's SF.   The stairs are out of commission, so you have to take the small elevator up.   The views are spectacular, particularly on a clear day.  The view from the ground level parking area is also not bad.   On the way down,  try the steps toward the Embarcadero,  very great insights into lush backyards.
p1794
sVauthor_name
p1795
VAnna Hautzinger
p1796
sVauthor_url
p1797
Vhttps://plus.google.com/116136613716129316971
p1798
sVtime
p1799
I1415218790
sa(dp1800
Vrating
p1801
I4
sVaspects
p1802
(lp1803
(dp1804
Vrating
p1805
I2
sVtype
p1806
Voverall
p1807
sasVlanguage
p1808
Ven
p1809
sVtext
p1810
VAn understated icon of San Francisco. Perched on a rocky hill in the middle of the city's core, this art deco styled tower has impressive views from both it's base and it's viewing platform. Well worth the hike up the hill. Parking anywhere nearby is not going to happen, so take that into account.
p1811
sVauthor_name
p1812
VTyler Harding
p1813
sVauthor_url
p1814
Vhttps://plus.google.com/110357160824479158301
p1815
sVtime
p1816
I1412053153
sa(dp1817
Vrating
p1818
I4
sVaspects
p1819
(lp1820
(dp1821
Vrating
p1822
I2
sVtype
p1823
Voverall
p1824
sasVlanguage
p1825
Ven
p1826
sVtext
p1827
VAlthough no amazing heights, it's worth a trip if visiting SF.  Tickets are inexpensive and usually a short wait for the elevator ride up.  The inside at the bottom of the tower has beautifully painted murals and the gift shop has all the typical touristy stuff (mugs, maps, shirts, etc).  Depending on your journey to the tower, you can walk to the steep hill from North Beach for added exercise.  \u000aAnd the view from the top is nice, provided it's a clear day!  Pretty small, so be prepared to share windows to look out.
p1828
sVauthor_name
p1829
VLauren Pinheiro
p1830
sVauthor_url
p1831
Vhttps://plus.google.com/106990768782331898857
p1832
sVtime
p1833
I1400785941
sa(dp1834
Vrating
p1835
I5
sVaspects
p1836
(lp1837
(dp1838
Vrating
p1839
I3
sVtype
p1840
Voverall
p1841
sasVlanguage
p1842
Ven
p1843
sVtext
p1844
VToughed it up the stairs. Enjoyed the view from the base and the stiff breeze. Didn't bother to go to the top. 
p1845
sVauthor_name
p1846
VYvette Skinner
p1847
sVauthor_url
p1848
Vhttps://plus.google.com/116618204309104641755
p1849
sVtime
p1850
I1414728878
sa(dp1851
Vrating
p1852
I5
sVaspects
p1853
(lp1854
(dp1855
Vrating
p1856
I3
sVtype
p1857
Voverall
p1858
sasVlanguage
p1859
Ven
p1860
sVtext
p1861
VOne of, if not best view of city skyline along with both bridges(if no fog, of course) saw one of last full moon eclipses there years ago. Magical it lasted so long. Got a good contact high, too. No rag-weed, for sure.
p1862
sVauthor_name
p1863
VRaymond Alvarez
p1864
sVauthor_url
p1865
Vhttps://plus.google.com/113755175842025386880
p1866
sVtime
p1867
I1405827204
sasVphotos
p1868
(lp1869
(dp1870
Vwidth
p1871
I1268
sVheight
p1872
I947
sVhtml_attributions
p1873
(lp1874
V<a href="https://plus.google.com/116596226154549124014">Kee Wook Lee</a>
p1875
asVphoto_reference
p1876
VCnRoAAAATN_neHlMHl8CSxJ2F1HLEQNZ1d4HeLTr-goJb8tqH3bRLw6s4XdT4eEZy9c0gbCa1aOZd6UpPjkqnrVApkC2BcR_S79asyTAvLlU_a8z2pOvKI_NsPW_xQW_RVnlEs3FQ_n9caIYuciw-LgjYAEpbBIQcdeyY2BE6EK0q0WF7sbn6hoUqo0YFadcYyn-nEmAMOMywLtEd88
p1877
sa(dp1878
Vwidth
p1879
I768
sVheight
p1880
I1024
sVhtml_attributions
p1881
(lp1882
VFrom a Google User
p1883
asVphoto_reference
p1884
VCnRqAAAAXPD1bleIUIHttWz3uBwg8z3iOn4zgJfdpI1lOP5T4nc8t0pVbXxpxDxUq7peWbdYjbhhquu-s4lGh6qgdCZ1iDr432TJN15bZx1yB-kK-brsrL-fDOK5CtJRC3QmUKEK5NZDN-C_Ol9G6Wm_s2MY7xIQZIlRyI4RdjzUTeLuCVF4rhoUS58ZvpISlN-KbU58H_xCx-At_v8
p1885
sa(dp1886
Vwidth
p1887
I4608
sVheight
p1888
I3456
sVhtml_attributions
p1889
(lp1890
V<a href="https://plus.google.com/113186450052791933529">Joseph D&#39;Angelo</a>
p1891
asVphoto_reference
p1892
VCnRlAAAAuze7YtsgfqA-Fj8Fl83-BCjaFJ0SzhmPn53PkeU3qOD-CxAPpZ433eW8W2Lui60M1H2cBDNdR6-WVxRE6bpoxWqil5ZHy8h3Gv9N7Mr8yMPYFT8fM5SKhReyl-h0gxevXNVN1KXSVMkAHLgwzUXObhIQJz4P5GPLs25lN6JqxO093RoU7PNqWqkobNpcn3uRLM5Yk88VlNw
p1893
sa(dp1894
Vwidth
p1895
I1296
sVheight
p1896
I776
sVhtml_attributions
p1897
(lp1898
V<a href="https://plus.google.com/114529464953149651619">Kim Nath</a>
p1899
asVphoto_reference
p1900
VCnRqAAAAJy7rGF2rdzSjnUIlArmiL6fuEc7anLgTQIEF-ti8xsd03VJl9jiOc8ZPbn8naTLT_zGsp5ExgEGJ6B93R0DQNJZE37NIuTFtHlfasmw-mWZBfUkEgjgDAvYL2ASknYx-u0YZjjvsOI-TadMT8NFZOBIQBdR_Ty7Lj3QAdydyAZQphBoUwpcZ8t9p1WWHr83C62EiXBS2b8I
p1901
sa(dp1902
Vwidth
p1903
I2048
sVheight
p1904
I1362
sVhtml_attributions
p1905
(lp1906
V<a href="https://plus.google.com/102156534886423108007">Peter Rehberg</a>
p1907
asVphoto_reference
p1908
VCpQBigAAACTgRHSqpUxLhelxNNRr567T_cix_ANRw2LGjSx3qR0zjV10Jr1nau6UaHZeXsooYKYPzjsAu9jZpYeebdFk-2Hnu5-MCymVetkS2BHjtzIYuDcHQg6GFwlFrcS7SLyAOV8SC_58IH2yU2ZScnakdM4zpe4YKBPVB8fn50ig5ClgO-j8nFCKzPLB_3nrBsE5-xIQOzuTrnRiBxfvd2dyb6HrERoUdU2q5XTz92d9SJIpbel1o_4vFO0
p1909
sa(dp1910
Vwidth
p1911
I768
sVheight
p1912
I1024
sVhtml_attributions
p1913
(lp1914
V<a href="https://plus.google.com/108274069435520984069">cesar maldonado</a>
p1915
asVphoto_reference
p1916
VCnRqAAAAqz3_5lNhu878TRq_tDQGfPqWdIrQksf-vEWsP3rEOX3fRtml5olyZFblGoyQYOM526RwLMSdECs2KkDd0KnN8KSXRU8CAX3n3Y2q8ArnDAhNMA6nB95akAQXv7uQa2wx60RRvS5PAiaWCeb_fFhBmRIQ-ea-YYG9SPbrf2ay4n3_cRoUqWh82A4RjVr5bNwAN5q4fOomppM
p1917
sa(dp1918
Vwidth
p1919
I1866
sVheight
p1920
I2048
sVhtml_attributions
p1921
(lp1922
V<a href="https://plus.google.com/113837235805581391057">P Kusserow</a>
p1923
asVphoto_reference
p1924
VCuQB1wAAAFHkBjHuFbByMm0aydmqTmo8gR9mBCHCi542KGMQqnz1NkP-ys54fgcmVtZ660RTrWJk9A-fjDCopAZHBYpwh6VgiT_AmjuAU4DsoFVHFg24u7_tkRIsNd1JYRuAqodP4inzfhmdAe8MWmzWnwURHykS97OTEFDMtGOTb_DYJdPqtR6FT5Jgrxne_Vm9Q0nJJ9okhYlLvrtZfPzstPu8Cc6wsfY2hTWfg57HGR5TSimauM3SWnmnugxJi-z5pEq0979bgomJTOFiXZiZWzzgqeUtf1Cmaa9aMiA-_g_CjM7YEhD3QhxJBKje_O4yUXqjvxLtGhS5LLsCfwZwtSSXY0kT9qV2A5sLzQ
p1925
sa(dp1926
Vwidth
p1927
I949
sVheight
p1928
I1265
sVhtml_attributions
p1929
(lp1930
V<a href="https://plus.google.com/108568994711421183759">Harish S</a>
p1931
asVphoto_reference
p1932
VCnRoAAAAyiiFIkdB3CdCyL8Xfl3MKENjiPktqzrCd6FO8_peOPeAPSITSDF3cU7xIbXNdRf6GGMHCtmXCykjquhVZDMqbCnlDadoTh5VG5sTQtK_vq2V6nLClhkTN03vXvscQ-H1Wg7Jc7Xp0K90A4o7hff-oxIQqeOntpIT6Bdwg5LzAkgsNBoU1XVOiD1uq8GXSDXN3LBoKJEYqgI
p1933
sa(dp1934
Vwidth
p1935
I2048
sVheight
p1936
I1468
sVhtml_attributions
p1937
(lp1938
V<a href="https://plus.google.com/104908431756212890221">Jay E. Jenkins</a>
p1939
asVphoto_reference
p1940
VCrQBowAAAGMPs91XNxhD4091b9BFaSjdO6z2O50o_TUwzjKTRTLQRVQSvqjjPm_A7bBTOYv20UXq9nkicsid0MsmcpBfDlR4xZRmUmL4oOEV-9VkljCLNkEW_DiQ5uBqx_jVTHSUeAAYngpjLocYFVDna25zeXLR0Jye4SzGLluVvT2fXJIv1-M0pgoQXW99kdtjArw5z8brWg7EMj3zaPqrAQLU04-dWxZMdDfnAP9SnM1rQG-uEhAp37LgTrmcvag758HabgQbGhTCc4COlacS2lMPR1m5Kh1w5GsuJQ
p1941
sa(dp1942
Vwidth
p1943
I512
sVheight
p1944
I768
sVhtml_attributions
p1945
(lp1946
V<a href="https://plus.google.com/106558039864076309587">Fototaker Sf</a>
p1947
asVphoto_reference
p1948
VCnRsAAAAnfTAY4EVTiFxzNLxWXwC-QddeTGCOowJTbw0JV_jWNUQhpmIIGzqVqlrtTTz6_qCFSvKTeJfEYKPw-fnZLYk9E4o2CcdvVoMbpojZhLKY55JLMz6gFbX6u9BH35mQZKlJSOHOMrTwP_64H8EYJ0L-RIQGwvVaLUoudKqmhSpd7XVJhoUM9lxtKN0y2ZvcFng35yCMAqmEcs
p1949
sasVurl
p1950
Vhttps://plus.google.com/101183959756635433266/about?hl=en-US
p1951
sVaddress_components
p1952
(lp1953
(dp1954
Vlong_name
p1955
V1
p1956
sVshort_name
p1957
V1
p1958
sVtypes
p1959
(lp1960
Vstreet_number
p1961
asa(dp1962
Vlong_name
p1963
VTelegraph Hill Blvd
p1964
sVshort_name
p1965
VTelegraph Hill Blvd
p1966
sVtypes
p1967
(lp1968
Vroute
p1969
asa(dp1970
Vlong_name
p1971
VSan Francisco
p1972
sVshort_name
p1973
VSF
p1974
sVtypes
p1975
(lp1976
Vlocality
p1977
aVpolitical
p1978
asa(dp1979
Vlong_name
p1980
VCalifornia
p1981
sVshort_name
p1982
VCA
p1983
sVtypes
p1984
(lp1985
Vadministrative_area_level_1
p1986
aVpolitical
p1987
asa(dp1988
Vlong_name
p1989
VUnited States
p1990
sVshort_name
p1991
VUS
p1992
sVtypes
p1993
(lp1994
Vcountry
p1995
aVpolitical
p1996
asa(dp1997
Vlong_name
p1998
V94133
p1999
sVshort_name
p2000
V94133
p2001
sVtypes
p2002
(lp2003
Vpostal_code
p2004
asasVscope
p2005
VGOOGLE
p2006
sVformatted_address
p2007
V1 Telegraph Hill Blvd, San Francisco, CA 94133, United States
p2008
sVid
p2009
Vb29bfcfc1c01d4fb92de2cb3e5bc1c18fc3fb446
p2010
sVtypes
p2011
(lp2012
Vestablishment
p2013
asVicon
p2014
Vhttp://maps.gstatic.com/mapfiles/place_api/icons/generic_business-71.png
p2015
ssba(ispot
Spot
p2016
(dp2017
g3
I400
sg4
(dp2018
Vrating
p2019
F4.4
sVreference
p2020
VCoQBdwAAANxwRBfth1UgPIPI1Z3LLKhelAc-paBFqVCQX1TUNkitCFfms8kaAyPyb0J9bZ-rLhW9wh2a4fKDo0NrrFr1IqBh5yN-zRl83k7dl6B8u5kyqbmUxSXk80llEDKhUa324qbwVQeFPFn4Z0z5I_HCnnRpJzhzrBnxSwrD9-AmMHvhEhA6yITbsa_wKrO2gFx_ti3rGhRundtYwG3XHLUHDDi7yXOBtG4P-Q
p2021
sVprice_level
p2022
I3
sVplace_id
p2023
VChIJIUT7rEOHhYARucp3wM-HhBs
p2024
sVformatted_address
p2025
V55 Music Concourse Dr, San Francisco, CA 94118, United States
p2026
sVid
p2027
Vd920c64674d4af2f684358adccbdf3f04eb70002
p2028
sVformatted_phone_number
p2029
V(415) 379-8000
p2030
sVopening_hours
p2031
(dp2032
Vweekday_text
p2033
(lp2034
VMonday: 9:30 am \u2013 5:00 pm
p2035
aVTuesday: 9:30 am \u2013 5:00 pm
p2036
aVWednesday: 9:30 am \u2013 5:00 pm
p2037
aVThursday: 9:30 am \u2013 5:00 pm
p2038
aVFriday: 9:30 am \u2013 5:00 pm
p2039
aVSaturday: 9:30 am \u2013 5:00 pm
p2040
aVSunday: 11:00 am \u2013 5:00 pm
p2041
asVopen_now
p2042
I00
sVperiods
p2043
(lp2044
(dp2045
Vclose
p2046
(dp2047
Vday
p2048
I0
sVtime
p2049
V1700
p2050
ssVopen
p2051
(dp2052
Vday
p2053
I0
sVtime
p2054
V1100
p2055
ssa(dp2056
Vclose
p2057
(dp2058
Vday
p2059
I1
sVtime
p2060
V1700
p2061
ssVopen
p2062
(dp2063
Vday
p2064
I1
sVtime
p2065
V0930
p2066
ssa(dp2067
Vclose
p2068
(dp2069
Vday
p2070
I2
sVtime
p2071
V1700
p2072
ssVopen
p2073
(dp2074
Vday
p2075
I2
sVtime
p2076
V0930
p2077
ssa(dp2078
Vclose
p2079
(dp2080
Vday
p2081
I3
sVtime
p2082
V1700
p2083
ssVopen
p2084
(dp2085
Vday
p2086
I3
sVtime
p2087
V0930
p2088
ssa(dp2089
Vclose
p2090
(dp2091
Vday
p2092
I4
sVtime
p2093
V1700
p2094
ssVopen
p2095
(dp2096
Vday
p2097
I4
sVtime
p2098
V0930
p2099
ssa(dp2100
Vclose
p2101
(dp2102
Vday
p2103
I5
sVtime
p2104
V1700
p2105
ssVopen
p2106
(dp2107
Vday
p2108
I5
sVtime
p2109
V0930
p2110
ssa(dp2111
Vclose
p2112
(dp2113
Vday
p2114
I6
sVtime
p2115
V1700
p2116
ssVopen
p2117
(dp2118
Vday
p2119
I6
sVtime
p2120
V0930
p2121
ssassVvicinity
p2122
V55 Music Concourse Dr, San Francisco
p2123
sVscope
p2124
VGOOGLE
p2125
sVwebsite
p2126
Vhttp://www.calacademy.org/
p2127
sVutc_offset
p2128
I-480
sVuser_ratings_total
p2129
I629
sVphotos
p2130
(lp2131
(dp2132
Vwidth
p2133
I640
sVheight
p2134
I427
sVhtml_attributions
p2135
(lp2136
sVphoto_reference
p2137
VCnRnAAAAnpfh_dEC_vplz_ZuLluj1ILg9Oacr1wvWs_I0Fi5YuQSZgjb2dA2P1iQasMZiyKhX0Rj6rDcbxPzIqjWxNDFzrnD9Me6wlnZerVijDoTEA-m9Xi3AxyHyq01c0_9C70JPsQUvAs6IM5-CCrF6JtuEBIQSIcOS1cEBBeMxjxQ1bJN6BoUDNsttpa97ciltTu6wXB9AnTxj_U
p2138
sa(dp2139
Vwidth
p2140
I482
sVheight
p2141
I640
sVhtml_attributions
p2142
(lp2143
sVphoto_reference
p2144
VCnRnAAAArLnwjUJBwfDVs_gIMj4vHSnYqY7OJfwOP5WsTepI2VxuxcXankMCcXRy1431kImI9-JWIvmhlFGSSruEWkYVYb0LqcfIm-7x_1iFqsGfKhH96XIoAoogfLCHrXGzZkmCmmB_T_d5Jq0Jn2wzZW1s6hIQ8fCYct5RALjwmnzAiIIjnBoUy3WD1cD8cAioBtrlCkTYRSISxGg
p2145
sa(dp2146
Vwidth
p2147
I640
sVheight
p2148
I427
sVhtml_attributions
p2149
(lp2150
sVphoto_reference
p2151
VCnRnAAAAklYu1z-ZmCTJ6ULgh8IKop4QU7w12P8GwegRid3VgZ4YkripGuJX6TPitL94-H1pBDqxbV5it2sf3WySqpOYQQgOF2lsfaqo68_ot2XYco3xIJrWy6Vn671yfVM_QCgTUFyWdlidPWYEeLwvYloFjBIQuU37BnOfrR02syJxEci82xoUzTM-rj8dEMSqHV8Kb2Qwo6tvW3I
p2152
sa(dp2153
Vwidth
p2154
I640
sVheight
p2155
I427
sVhtml_attributions
p2156
(lp2157
sVphoto_reference
p2158
VCnRnAAAA5oQSG3VQbRZoz2Bl6JuM1nzHnT0Be25XugXKF4e-dXyBoJIOQ5_Tr5hfsm_Fne09nvhUtXH-dMeybgYFT_JnGeuYMY0-7wFlF0wChf9GsCv4rApZlTwa7yZnFvdyMT9y96pR4qXHBnOcYtu0zdnwAhIQ7s359HsiEYBDSvIXWiJniBoUySpcXDvb4NSRhFbsjSQhEZFHomA
p2159
sa(dp2160
Vwidth
p2161
I640
sVheight
p2162
I457
sVhtml_attributions
p2163
(lp2164
sVphoto_reference
p2165
VCnRnAAAANd6xQVAlzO88XKMJCTFG8WJu1AAP1A57t7_5l64n1aOEtnk7ZCrB_FJsuiFcEF0BKGknO_d9AhV46bZQMl64QStN8u9pmeIroLPTB8k7LxU67wUqNWQZe_i_QABmdm1evZFtinM-DFf24HWNbDlHtBIQgFfJJ2vqxsxI9kUO3PSxrBoUngObSQujeA_X5GvJFq_fXj-vYak
p2166
sa(dp2167
Vwidth
p2168
I640
sVheight
p2169
I480
sVhtml_attributions
p2170
(lp2171
sVphoto_reference
p2172
VCnRnAAAAO0i3cmb_M1SzgEE1iwBDWD9aA7SFcQbf1cQ8GeXM7QWeVKgmJFvx5rNcwUSR9Cfqe6W4ccQ_qvQwHJd6ZiGVFZQK7PLfrY1H4J9QMgIGgG9Ib7z4CJRd5DTF9JvmQPybmWgTWMQlVOhKQGVbdV2SRRIQjrGnJ7qiA7aJ8VHEckOwaRoUnUBGBlp7kYNnbO9NOQZqpb7-K8s
p2173
sa(dp2174
Vwidth
p2175
I562
sVheight
p2176
I640
sVhtml_attributions
p2177
(lp2178
sVphoto_reference
p2179
VCnRnAAAAT4y2gJ7pJX3ouV0b_xrrO7mMx-lZ8nXmTCrW72faXVzwEs-zqQG-L5gH4HIZVkgfd2_-Tav4HoThCEzsHOyXb1Ty25BwdEXhrIPVTHhCO301WhUEFFi3M0DAcz-WwvA6M3LkZfyeGazGT0gdkPK-IBIQ0kEfJ5NyvC4-_GXvKSeR7xoUOT5gEmxxKL8XE504ePrhyw5sKXQ
p2180
sa(dp2181
Vwidth
p2182
I640
sVheight
p2183
I443
sVhtml_attributions
p2184
(lp2185
sVphoto_reference
p2186
VCnRnAAAAyhvWs84rdqlS19WgcW3uqq-tv5p4z0eDeT0WTml8qcP1VUvFpGnRXzSi8Jcd52lY1eEVhqah8H0qUi3XPFexLBk2NT8igHQjgyvfR-F9l1sSid8dq5c9ujc1l0A2mN6KbTPus9vVMt6fvJS8kzT0aBIQ2sw66mld5Ghx6XEU-waOlhoUhdrHoUPXZeoAL22KHdozEtHEmt0
p2187
sa(dp2188
Vwidth
p2189
I2048
sVheight
p2190
I1536
sVhtml_attributions
p2191
(lp2192
V<a href="https://plus.google.com/104847770319584345133">Shiraz Siddiqui</a>
p2193
asVphoto_reference
p2194
VCnRqAAAA0f9Yx5hYGNsFaIq9V9RtLxOuz55ZQt9nUu6p51P8OfH3F2CF6nFVdvkziV5OOl-3PfTdNC00cFFMc2rI3Ay2pSHCrQy0vC_A_Eyq4Bk1eGvwhCUlD3O-4kuuIcSCEwi4gLXoq4OILqhUoMaRntfstRIQjC8oWHnAFMkSxOSIQyiRWRoUI3nu6JtZshyQENnt-O7s3jvIL24
p2195
sa(dp2196
Vwidth
p2197
I533
sVheight
p2198
I400
sVhtml_attributions
p2199
(lp2200
V<a href="https://plus.google.com/116600105708585783882">Edwin Ragadio</a>
p2201
asVphoto_reference
p2202
VCnRmAAAAd1wRt_6HV3IPUDWf1HrFBUCezQF8-qT0cYoa9WkIVfv79UgjkMKJtjvHWfnL0agsqtk91m7aCUDT0yTZPwiHT0uf7hxo81pqCZoCVxujRoIk3E8610F6xN1mhot4Olr-zRTvYXtKRMH6KfYYInGhuhIQpZN90WRPC-_xpYAQiM0DgRoUufO985A5xOc3JYKhpSH0wX4PEBQ
p2203
sasVtypes
p2204
(lp2205
Vaquarium
p2206
aVmuseum
p2207
aVestablishment
p2208
asVicon
p2209
Vhttp://maps.gstatic.com/mapfiles/place_api/icons/aquarium-71.png
p2210
sVname
p2211
VCalifornia Academy of Sciences
p2212
sVgeometry
p2213
(dp2214
Vlocation
p2215
(dp2216
Vlat
p2217
F37.769865
sVlng
p2218
F-122.466095
sssVadr_address
p2219
V<span class="street-address">55 Music Concourse Dr</span>, <span class="locality">San Francisco</span>, <span class="region">CA</span> <span class="postal-code">94118</span>, <span class="country-name">United States</span>
p2220
sVinternational_phone_number
p2221
V+1 415-379-8000
p2222
sVreviews
p2223
(lp2224
(dp2225
Vrating
p2226
I5
sVaspects
p2227
(lp2228
(dp2229
Vrating
p2230
I3
sVtype
p2231
Voverall
p2232
sasVlanguage
p2233
Ven
p2234
sVtext
p2235
VThis is one of the best experiences and values in the city.  This has great night time programs for young adults with music and drinks.  During the daytime this museum showcases the diversity of the whole Bay Area.  You get to explore ecology through the wonderful ECO-dome (biosphere).  The planetarium is fabulous and you get to see the pendulum.  Overall great experience and wonderful for both kids and adults.  Buy the year long membership for your best value.
p2236
sVauthor_name
p2237
Vrobert leung
p2238
sVauthor_url
p2239
Vhttps://plus.google.com/115943204529468844278
p2240
sVtime
p2241
I1416256114
sa(dp2242
Vrating
p2243
I4
sVaspects
p2244
(lp2245
(dp2246
Vrating
p2247
I2
sVtype
p2248
Voverall
p2249
sasVlanguage
p2250
Ven
p2251
sVtext
p2252
VThe Academy of sciences has an amazing aquarium complex that takes a long time to explore and see completely. The layout can be a bit confusing at first, but the high quality exhibits and the signage help. I really like their super small mini aquarium showcasing one tiny type of shrimp or crab, they are very detailed and neat.\u000aTheir biosphere/dome is really cool too, it has a lot to see and spend time in. It's a one way trip: when you get in, you look at things, walk to the top, and take an elevator to exit into the aquarium.\u000aI expected more hands-on things but I guess that's for the Exploratorium.\u000aTheir planetarium, while limited in seats (get a pass as soon as you arrive!) is cool. \u000aI went for the 21+ Thursday night events, which are great, and with a theme, but get very very crowded.
p2253
sVauthor_name
p2254
VJulian Fessard
p2255
sVauthor_url
p2256
Vhttps://plus.google.com/112118270664425522168
p2257
sVtime
p2258
I1412989932
sa(dp2259
Vrating
p2260
I5
sVaspects
p2261
(lp2262
(dp2263
Vrating
p2264
I3
sVtype
p2265
Voverall
p2266
sasVlanguage
p2267
Ven
p2268
sVtext
p2269
VUPDATING TO 5 stars!!!\u000aGot to go here for a city experts event... it was amazing! We got to listen to the tank diver talk about the awesome reef tank, and the older lady docent was awesome about telling us about all the fish and the alligators. Now that I'm expecting I can't wait to take my daughter here to watch all the fish swim by in the tanks, then travel to african savanna and see the zebras\u000a\u000aPrevious:\u000aOk so we all go here on field trips as kids and that's a memory that we hold dear. So you can imagine my surprise as an adult when I came here for one of their nightlife events and the whole inside was changed. It was really disorienting, but I do have to say they new design was still really awesome.\u000a\u000aHOWEVER, once I got acclimated to the changes, I actually had a pretty good time. I took glass with me and my favorite part was the tide pools. The staff were awesome and let me record them talking about the starfish. It made my night really special!!\u000a\u000aDefinitely checkout the nightlife events!!! Fish,dancing, & fun how can you go wrong???
p2270
sVauthor_name
p2271
VShauna Mork
p2272
sVauthor_url
p2273
Vhttps://plus.google.com/110513218467589779477
p2274
sVtime
p2275
I1411720448
sa(dp2276
Vrating
p2277
I5
sVaspects
p2278
(lp2279
(dp2280
Vrating
p2281
I3
sVtype
p2282
Voverall
p2283
sasVlanguage
p2284
Ven
p2285
sVtext
p2286
VI dined there last night for the first time and were very happy with the food and the service! He loved the Cioppino with lots of Maine lobster / shrimp / mussels / clams / fish calamari / scallops and shellfish vegetable broth! I loved my Chilean Sea Bass and we both love our Field Greens Salad! We'll be back!
p2287
sVauthor_name
p2288
VElinor Newell
p2289
sVauthor_url
p2290
Vhttps://plus.google.com/106242117275472828307
p2291
sVtime
p2292
I1416251545
sa(dp2293
Vrating
p2294
I5
sVaspects
p2295
(lp2296
(dp2297
Vrating
p2298
I3
sVtype
p2299
Voverall
p2300
sasVlanguage
p2301
Ven
p2302
sVtext
p2303
VThis place is amazing and one of the most impressive places to take a brainy date to. They have these Night-Life events that take place every Thursday and the theme is basically, science meets pop culture, meets a ginger tonic. It is incredibly fun and very hipster approved in my opinion. The drinks are not cheap of course, but the entrance tickets are at only $12 per person. They even have live-ostrich babies! If you can't win date of the year here then you're standing in the wrong museum. OH! and check out the starlight from the living roof exhibit, and get there early to catch the planetarium as it fills up in an instant.
p2304
sVauthor_name
p2305
VMisha Metrikin
p2306
sVauthor_url
p2307
Vhttps://plus.google.com/114890117672430115819
p2308
sVtime
p2309
I1413259773
sasVurl
p2310
Vhttps://plus.google.com/116851551368109810342/about?hl=en-US
p2311
sVaddress_components
p2312
(lp2313
(dp2314
Vlong_name
p2315
V55
p2316
sVshort_name
p2317
V55
p2318
sVtypes
p2319
(lp2320
Vstreet_number
p2321
asa(dp2322
Vlong_name
p2323
VMusic Concourse Dr
p2324
sVshort_name
p2325
VMusic Concourse Dr
p2326
sVtypes
p2327
(lp2328
Vroute
p2329
asa(dp2330
Vlong_name
p2331
VSan Francisco
p2332
sVshort_name
p2333
VSF
p2334
sVtypes
p2335
(lp2336
Vlocality
p2337
aVpolitical
p2338
asa(dp2339
Vlong_name
p2340
VCalifornia
p2341
sVshort_name
p2342
VCA
p2343
sVtypes
p2344
(lp2345
Vadministrative_area_level_1
p2346
aVpolitical
p2347
asa(dp2348
Vlong_name
p2349
VUnited States
p2350
sVshort_name
p2351
VUS
p2352
sVtypes
p2353
(lp2354
Vcountry
p2355
aVpolitical
p2356
asa(dp2357
Vlong_name
p2358
V94118
p2359
sVshort_name
p2360
V94118
p2361
sVtypes
p2362
(lp2363
Vpostal_code
p2364
asassba(ispot
Spot
p2365
(dp2366
g3
I450
sg4
(dp2367
Vrating
p2368
F3.7
sVreference
p2369
VCoQBegAAANC4u2Pxbb_j0u8gkhhRh0PamI1Z3ZVC8JCsNiD4xQVEm_WG_6qd9IHpUlLFu9GgJ6ccvv1dwTJDXyfyMnqJX1_DIDbWvPjJIdXkBT1no4YzrUq0pqZrIwGNqqzSSudjVoJfIQACaK0eKectOhBJ-lXdfb9kFeSTe0o01bQozKTREhCCwM42OmQAgykrIwh2MKxJGhR1vTxgN1AsPuDZSTwJK-m9WnAM2w
p2370
sVplace_id
p2371
VChIJeSJHoI-AhYARembxZUVcNEk
p2372
sVgeometry
p2373
(dp2374
Vlocation
p2375
(dp2376
Vlat
p2377
F37.785628
sVlng
p2378
F-122.410385
sssVformatted_address
p2379
V333 O'Farrell St, San Francisco, CA 94102, United States
p2380
sVid
p2381
Vaaf2a7c4b9188218ab8dcb935cad388ab21ca4ab
p2382
sVopening_hours
p2383
(dp2384
Vweekday_text
p2385
(lp2386
VMonday: Open 24 hours
p2387
aVTuesday: Open 24 hours
p2388
aVWednesday: Open 24 hours
p2389
aVThursday: Open 24 hours
p2390
aVFriday: Open 24 hours
p2391
aVSaturday: Open 24 hours
p2392
aVSunday: Open 24 hours
p2393
asVopen_now
p2394
I01
sVperiods
p2395
(lp2396
(dp2397
Vopen
p2398
(dp2399
Vday
p2400
I0
sVtime
p2401
V0000
p2402
ssassVvicinity
p2403
V333 O'Farrell St, San Francisco
p2404
sVscope
p2405
VGOOGLE
p2406
sVwebsite
p2407
Vhttp://www3.hilton.com/en/hotels/california/hilton-san-francisco-union-square-SFOFHHH/index.html?WT.mc_id=zMKWASR0AA1HN2OLS3GooglePlusBusiness4GPBPT5SFOFHHH
p2408
sVutc_offset
p2409
I-480
sVuser_ratings_total
p2410
I206
sVphotos
p2411
(lp2412
(dp2413
Vwidth
p2414
I2048
sVheight
p2415
I1365
sVhtml_attributions
p2416
(lp2417
sVphoto_reference
p2418
VCnRnAAAAuSfP3vLhIGmKotsucrl58_qXTXUSzbnJKUkHOf1HtYtrDofI34701LT3z4-wrY1fnHCUum--E0Al-ekybOEt4RzNHIAgaLTg2040L6mUh52rDt6g2QKkI3_BC2c1cZ7ZroPeS37TyhHll0_ngys6uxIQgcGstpyCt_bgQua24y1xOBoUOYD_ybYEhSZvKX3caIwYje-r6fg
p2419
sa(dp2420
Vwidth
p2421
I2048
sVheight
p2422
I1365
sVhtml_attributions
p2423
(lp2424
sVphoto_reference
p2425
VCnRnAAAAsfwKu6gqqGmOzCATCKAdyQVAZhTJnXup-avULLbVD5-uzTsKdbhrCOH1OqKaOyUHZXfFM-PTGlPGG04AhYdiwm0XXuGkKOAe0FJgYM9zup6yOY9Sd-hYeS4Y3lQXBAy6Dwhr-inJdNaDeLeh-cDQZxIQ967x6V_fqkzw8uzXJhaoBBoUpIzriWMkx6YvpADdN1bDJn5TJjw
p2426
sa(dp2427
Vwidth
p2428
I1312
sVheight
p2429
I2048
sVhtml_attributions
p2430
(lp2431
sVphoto_reference
p2432
VCnRnAAAAdHJPKjpnWCSR5K5hpDRf0t0hlwM9mtbSrVniETzdAnXLDJYtAiBrF43gD3UprJ1dtcM5RtK7CC2dauYrWxcsorVeZoTb5B36eC_pWxbToUxCM6hecbMWIHPioSn0ou9qMrCcLU199Q4xv9ErZ0udkRIQNHFwvZoeLmVV8eTXCKTduhoU3d_RqC8xIgzyeH1CeCJXqfhF1i0
p2433
sa(dp2434
Vwidth
p2435
I2048
sVheight
p2436
I1365
sVhtml_attributions
p2437
(lp2438
sVphoto_reference
p2439
VCnRnAAAAQiXErPvMePIgFsVNUEacOloqRKuKb9vJwoBTvLb8Kb5CnsTiMclU1Q26mGKuRoVfQ-v1zk3cLCDur1P1ICqQk1wjcyYSz0v-UZbl0-TMrRFOiiFPKekAdGbE2Q9fDsf4pd0R7W2NDRdhcYlYYTb_mBIQmsJ0yky_CZbZSPh2mw1VJhoUVtWebUWCbL5NUItxHA5-m8yZ9kE
p2440
sa(dp2441
Vwidth
p2442
I2048
sVheight
p2443
I1365
sVhtml_attributions
p2444
(lp2445
sVphoto_reference
p2446
VCnRnAAAAw3LHs5gXTqMHWLL8gKbA35CFfWp79E0Pb_hfzRYm-ygJKuYB8EbZkvgMlRSmUko-QMBwZLxNg26GrvJ8WupEN0DO57sNsbOxs7Du2QMzTJvR9GnBAVifQBvTZcQTR3huaoxsGd6OOkSvqOjpExtmrBIQIO_-HxkcPh3ff5w0C0h5iBoUzW4pFiljY3S09H3gVXvmaxrW464
p2447
sa(dp2448
Vwidth
p2449
I2048
sVheight
p2450
I1365
sVhtml_attributions
p2451
(lp2452
sVphoto_reference
p2453
VCnRnAAAA8HZ_FIb4z2d5K8APB9y73WdP6MetaRMCC_4v8i_GwWtHl4jQZ2UKc_Q0xIP8qhczdmTNwLPHZp-7h4kjLAEnoz17Dte10mPo03tuvkAjSmwZ1XeXCxh9OcGnrG8NrKkjsLtqt7INDN0kx4KLZDNgERIQ9I02tb-0bLb1dqD7FsxyWhoUXRPfHdnclDGSBTeHKTCDew4YbDc
p2454
sa(dp2455
Vwidth
p2456
I1280
sVheight
p2457
I855
sVhtml_attributions
p2458
(lp2459
sVphoto_reference
p2460
VCnRnAAAAt4d61HuHFteQWpRi9UjJXpbfryR6h5dbG4SPYDRVIttfeL6TCFijmePzusrN5pGAN5PHyzgSgRkxTLOcAkQeSNLTQhXn3uCmi2sItrEVWCqpx0aPwWxrUkjYjR8tfu5KFt8pqhs8WShhq7pI5Be9-xIQ44VRYjXIk-D1OGl9PehHbhoUXcu0Xb0KIpxLSat7miMyhMhCgoY
p2461
sa(dp2462
Vwidth
p2463
I1280
sVheight
p2464
I855
sVhtml_attributions
p2465
(lp2466
sVphoto_reference
p2467
VCnRnAAAAvE9i_FASsocxwsEFL9hjdRMpMpR_voCv1UgHAapq6JsOYUIO9TrBIfozLjTkT6dnDb8560-UbAZMSspKq1LmriOpgzZeF6wjBjI19qB83S6AU9ndl7NxecLS71t60tygzb6Vz4B3vNGbAA6DxMBsKBIQ7lr2hb3diw1j-YctCd8VxBoUv1gUsCVG0sS4TxPg1Pk7oUFBH4s
p2468
sa(dp2469
Vwidth
p2470
I1280
sVheight
p2471
I855
sVhtml_attributions
p2472
(lp2473
sVphoto_reference
p2474
VCnRnAAAAuq29VWf-Lf5hZoxOMTOmbK2O0ATBEOYPHTqGR7SuynMTg66r7i50PV5_tMN7PyXjB9wQ_mR7_LSKBiXw_NxIlskkH5MCG6rKwpxaXzRKTvFviybLu4Rm5JLZx2aNrLjp7d3f5av5IvsMnLYutfZ0gBIQ45pbbZPdb4G5bqmN4FYZGRoUb4RJtZ5g36jgzYwJY-Acg-_GBtg
p2475
sa(dp2476
Vwidth
p2477
I1280
sVheight
p2478
I855
sVhtml_attributions
p2479
(lp2480
sVphoto_reference
p2481
VCnRnAAAAbbbuN8Y6EZ19BrRPCsBzfHob7DSBVlq8Dq1ZsUjVqAoyZ4e0xOl87NQ6Fv4Zbk5aSa7SNNd7jpojdf529hESex1sPRPUoGMqWWcI8ms-Xllj3Zx4yMIIdW05Yh-iiwMnlXx063Dxg45c77-bdvlUKhIQL2P1fq6IxNA94DF0xo-rexoUZzm36I5W2z2N5eZxZVjKo7Vkp9Y
p2482
sasVtypes
p2483
(lp2484
Vlodging
p2485
aVestablishment
p2486
asVicon
p2487
Vhttp://maps.gstatic.com/mapfiles/place_api/icons/lodging-71.png
p2488
sVname
p2489
VHilton San Francisco Union Square
p2490
sVurl
p2491
Vhttps://plus.google.com/107152743865247750438/about?hl=en-US
p2492
sVadr_address
p2493
V<span class="street-address">333 O&#39;Farrell St</span>, <span class="locality">San Francisco</span>, <span class="region">CA</span> <span class="postal-code">94102</span>, <span class="country-name">United States</span>
p2494
sVinternational_phone_number
p2495
V+1 415-771-1400
p2496
sVreviews
p2497
(lp2498
(dp2499
Vrating
p2500
I3
sVaspects
p2501
(lp2502
(dp2503
Vrating
p2504
I1
sVtype
p2505
Voverall
p2506
sasVlanguage
p2507
Ven
p2508
sVtext
p2509
VAfter reading some less than stellar reviews, I was preparing for the worst. Thankfully, the harshest thing encountered within the hotel was the dated decorations of the suite (which was quite large, clean, and with a lovely view of San Francisco Bay). The staff was always quick to say hello, and the cleaning ladies were quick to replace pillow feathers after we talked to them about allergy concerns. \u000a\u000aI will echo previous reviewers, and say that the surrounding area (the Tenderloin) is not a nice neighborhood. There are vagrants and questionable characters roaming around, at all hours of the day. \u000a\u000aThe Starbucks within the hotel does charge more than the average chain, and the restaurant there (Urban Tavern) was a nice spot (also reviewed). \u000a\u000aMany people balk at the thought of paying for in-room WiFi, but that was never an issue for us. Connecting to a free, ATT&T hotspot was possible, even from the 43rd floor!
p2510
sVauthor_name
p2511
VNan Carde
p2512
sVauthor_url
p2513
Vhttps://plus.google.com/114777535440994791985
p2514
sVtime
p2515
I1416785471
sa(dp2516
Vrating
p2517
I1
sVaspects
p2518
(lp2519
(dp2520
Vrating
p2521
I0
sVtype
p2522
Voverall
p2523
sasVlanguage
p2524
Ven
p2525
sVtext
p2526
V"Many Bug Bites" & "Incapable Manager & Management"\u000a\u000aI stayed at this hotel from Nov 8th - 13th for business. When I woke up on the morning of Nov 10th, I noticed a bug bite bigger than the size of a quarter on my tummy. Because I wasn't very aware of bed bug issues and I was very busy during this trip, I didn't pay enough attention to the bites. Then on Nov 11th, I woke up with 6 bug bites (neck, arms, and tummy); each is no smaller than the size of a quarter. \u000a\u000aI was shocked and reported it to the front desk, and he reported it to the manager. I didn't know if the manager was too busy or what, he didn't come out to talk to me; instead he sent the front desk to change my room and to tell me that the would do a formal report with me in the afternoon, send people for inspection and follow up with me later. I was very busy that morning, and didn't have time to insist seeing the manager. The front desk gave me the keys to the new room and didn't offer any help moving my stuff. I moved my stuff, but I felt like this was not the right way to deal with the issue 'cause it might spread the bugs to the new room through my luggage; but apparently, they didn't care as much as I do. \u000a\u000aLater that afternoon, I called the manager about the security report. However, he seemed to be too busy to remember/care, as when I mentioned this issue, his first response was like what bug bite, which made me feel very disappointed, as I feel like I was being ignored. But anyway, the security finally came, asked me filled out a piece of paper, and left without asking questions.\u000a\u000aI waited till check-out for the manager or somebody to follow up on the inspection, but there was no calls or any official apology. I was really angry, but I didn't want to be rude either, so I asked to see the manager as I was checking out. However, the front the desk told me that all the managers were in a meeting, so I had to leave a note because I had a flight to catch. The manager left me a voice message when I was in the plane. I called him later and left message, but he didn't call me back. I called again today, but it went to the mailbox, which again made me feel like I was being ignored.\u000a\u000aI'm afraid to carry the bugs home, so I tossed away all the un-washable stuff, and spent hours doing laundry after nearly 8 hours of travel across the country!!! I really wish to wash my laptop too (I finally left it outside in my car, hoping that the cold weather here can kill the bugs if there's any)...\u000a\u000aI feel very angry and disappointed right now by their incapable and indifferent response to this whole issue!!! BTW, they charged the same price as a big room after switching me to a smaller one. \u000a\u000aFYI. The rooms that I stayed at are 1-4077 (first 3 nights) and 1-3075 (the last 2 nights). I suggest you stay away from those 2 rooms if you still want to stay in this hotel after you see this.\u000a\u000aGood luck, travelers!
p2527
sVauthor_name
p2528
VJosh Xi
p2529
sVauthor_url
p2530
Vhttps://plus.google.com/108146486311107430763
p2531
sVtime
p2532
I1416278124
sa(dp2533
Vrating
p2534
I1
sVaspects
p2535
(lp2536
(dp2537
Vrating
p2538
I0
sVtype
p2539
Voverall
p2540
sasVlanguage
p2541
Ven
p2542
sVtext
p2543
VWarning! the worst Hilton. i ever stayed. low class service, dirty and things are broken and no one can fixs them. the employee speak and act ,4 stars but they have zero quality.  Very disappointed , we will never stay in this Hilton. I will not recommend this  location. all photos deceiving . The management should review this ho el because it does not represent the Hilton.
p2544
sVauthor_name
p2545
VRemy Lethaby
p2546
sVauthor_url
p2547
Vhttps://plus.google.com/100663971883775825431
p2548
sVtime
p2549
I1417270134
sa(dp2550
Vrating
p2551
I4
sVaspects
p2552
(lp2553
(dp2554
Vrating
p2555
I2
sVtype
p2556
Voverall
p2557
sasVlanguage
p2558
Ven
p2559
sVtext
p2560
VWhat a nice hotel! There are three things that drop this from a five star review to a four star review so let's get those three things over with first: The air vent that was in the corner by the shower had a lot of obvious dust all over it - ew! The other negative was that I had learned from visiting San Francisco that the smoking rule there is that if you go outside to smoke, you have to stand at the curb or if there is no curb in front of the building you have to be at least 15 feet from the door.  Apparently, that doesn't apply here because at the main entrance there were at some points a good 20 people standing right at the door smoking.  It's like welcome to the Hilton! Each time you enter you're greeted with the smell of cigarettes! Um, no thank you! Lastly, the air condition did not work the best in our room.  We would set the thermostat for instance to 74 when it said the current temperature was 76 and then it 40 minutes it would be 77 degrees in the room. Weird! None of my negatives were too big of a deal.\u000a\u000aOkay, now on to the positives: Check-in was pretty smooth, there's rental car garage right across the street so we were able to drop off our car and then just walk to the hotel.  Because we're Hilton Honors members, we got to go that check-in line was a quarter of the length of the regular line and we got lucky again because we got to stay at the newly renovated Hilton Honors members exclusive floor. I noticed the floors color scheme was the same color scheme of the Hilton Honors program branding colors - I thought that was cool! I forget which tower we stayed in but it was the one with the pool and whatever tower that was we were on the top floor of that tower. Whether it is 6 in the morning or midnight, the main (and maybe only - I'm not sure) lobby is always PACKED. That wasn't necessarily an issue for me because whenever I was in the lobby I was always able to find at least one seat and an outlet for charging my phone. Wi-Fi is of course free in the lobby and because we were gold members we got free Wi-Fi in the room. Speaking of Wi-Fi, like all Hilton brand hotels I've ever stayed at, the Wi-Fi is slow and there was no exception here. All the staff members who I encountered throughout my stay were nice.  Another plus was that there was always a lot of security, especially by the elevators and entrance. Here's a weird, random story from when I was here: when I was walking down the hallway from my room to the elevators I could easily hear from one of the rooms what sounded like someone playing the violin. It was extremely loud. Did I mention this was at around 8 in morning!  I would hate to have been in a room on either side or across the hall.  When I went back to my room a half an hour later, I could still hear the violin music. Also as Hilton Honors member, I think only gold and diamond members, we got two vouchers a day to get one free pastry/danish, one free fruit, and one free beverage per voucher from the Starbucks in the lobby.  The line is extremely long but it moves pretty quickly.  The hotel's location was pretty good.  It's located within walking distance of both the Yerba Buena Gardens area and about a 30 minutes or less walk to the Ferry Building area. The pool area was very nice.  When I wen swimming at about 9 am it was practically empty. I was there in July and at that the time the temperature was in the 60s but the pool was heated and comfortable and refreshing. Overall, my stay was good and next time I visit San Francisco I would stay here again.
p2561
sVauthor_name
p2562
VMichael Giskin
p2563
sVauthor_url
p2564
Vhttps://plus.google.com/103832599587201585955
p2565
sVtime
p2566
I1413817325
sa(dp2567
Vrating
p2568
I2
sVaspects
p2569
(lp2570
(dp2571
Vrating
p2572
I0
sVtype
p2573
Voverall
p2574
sasVlanguage
p2575
Ven
p2576
sVtext
p2577
VHilton hotel is fed ex office, the hilton id is garbage ad to psrties thst are said pick thrm up. This toddleetubbs what I go as sees that itd a plscr of suicidal sexual affiliate,  that Pelosi its internet or Medicare services unto others that had or end up titles guardian qualities. Tyrant ldiotic lease situations within thr building code templates they hand bill dea, atf where the places they went, orvsignaled.
p2578
sVauthor_name
p2579
VT.L TUBBS
p2580
sVauthor_url
p2581
Vhttps://plus.google.com/117504501064276275248
p2582
sVtime
p2583
I1413526751
sasVformatted_phone_number
p2584
V(415) 771-1400
p2585
sVaddress_components
p2586
(lp2587
(dp2588
Vlong_name
p2589
V333
p2590
sVshort_name
p2591
V333
p2592
sVtypes
p2593
(lp2594
Vstreet_number
p2595
asa(dp2596
Vlong_name
p2597
VO'Farrell St
p2598
sVshort_name
p2599
VO'Farrell St
p2600
sVtypes
p2601
(lp2602
Vroute
p2603
asa(dp2604
Vlong_name
p2605
VSan Francisco
p2606
sVshort_name
p2607
VSF
p2608
sVtypes
p2609
(lp2610
Vlocality
p2611
aVpolitical
p2612
asa(dp2613
Vlong_name
p2614
VCalifornia
p2615
sVshort_name
p2616
VCA
p2617
sVtypes
p2618
(lp2619
Vadministrative_area_level_1
p2620
aVpolitical
p2621
asa(dp2622
Vlong_name
p2623
VUnited States
p2624
sVshort_name
p2625
VUS
p2626
sVtypes
p2627
(lp2628
Vcountry
p2629
aVpolitical
p2630
asa(dp2631
Vlong_name
p2632
V94102
p2633
sVshort_name
p2634
V94102
p2635
sVtypes
p2636
(lp2637
Vpostal_code
p2638
asassba.