(lp0
(ispot
Spot
p1
(dp2
S'duration'
p3
I500
sS'data'
p4
(dp5
Vwebsite
p6
Vhttp://www.nps.gov/goga/index.htm
p7
sVrating
p8
F4.7
sVutc_offset
p9
I-480
sVuser_ratings_total
p10
I102
sVname
p11
VGolden Gate National Recreation Area
p12
sVreference
p13
VCoQBfgAAACVzAk7iV4VchhNXw308fga_B9AfJXw06Ip2xyhK-DlTCXiD3_fBe9pw5zOyGZExzaZ00RUkujvaMFxvGtzmAHc13JL0ygkITqRtwkpiffKvpVj4W6nS0hdyWPp6NpOaN4pXjiSZIGTqFxQ02hdZF700QpYn-5ddO-zjVWk5kT3rEhDmzDkoYDYoYZ31AvE5KKHBGhRwuSOfgNYO5ZCkDeHLkwVALmZexA
p14
sVphotos
p15
(lp16
(dp17
Vwidth
p18
I1280
sVhtml_attributions
p19
(lp20
V<a href="https://plus.google.com/111000134307967374586">Eldon Henry</a>
p21
asVphoto_reference
p22
VCnRoAAAAViuWEQ71ZwK19KSSKzYCK2xYpB4-Tpa6pmTEvVM013I8JB7ZKZL3hb1wPKjnXxxRlgRWdF_a_pLSjxaijA52d0v5c6LJfw85Ok1_ENhfUB2uwjI5tmz8vfGa6TAGT1qWzG_XNtFWFLqWuJRYVlpiaxIQHE0rnMRaerzOBc58NhbhixoUj5wo2YPdm1VsxS4cXT86NHzYtUc
p23
sVheight
p24
I960
sa(dp25
Vwidth
p26
I1265
sVhtml_attributions
p27
(lp28
V<a href="https://plus.google.com/106518442561481308596">Elliot Britton</a>
p29
asVphoto_reference
p30
VCpQBiwAAACEJxIA8XACTp9JgofUrQUTEqczs5eC7mf1xCNtiglMaNk_bSE5nF6ILSxfuk6Z2jkFNQG8W488YaJNqKw5lf9nBsPvLIr4W1D_J4zWBOAm_XtUGahtiaiK_9FhJRP6LphoOenKBddfCEt982rhF7q_tORs3_wzf-i23pLe1D06y5Urf4EriPxXehLMuwSoeYBIQXLj41rryewEiqabur0S90xoUUYS_dZ8UKOptc1P9vNaWA-uk-Eg
p31
sVheight
p32
I949
sa(dp33
Vwidth
p34
I1296
sVhtml_attributions
p35
(lp36
VFrom a Google User
p37
asVphoto_reference
p38
VCpQBiwAAAMf5mjX9EkEP0CbPxPiFoeMo728VG3Rci39jwQoOJtMisgckkGufYy_qoh_-iTmLebNJFx5szEnaXrz6NkzDg2U-umthcDxzEnYYE82Aq4BrQdGN-laeEB4KP_6bSOUA9PVkZ-KGyZurF_olrHqcC9MmxhoEsk1P7RcK26wM5HTWsEAKSPOF2qgv48SP5k5nLRIQUUqQyUT0ox_igm3Hgf0yoRoU68caFIUyr_v39KwWtyG1ALRwneU
p39
sVheight
p40
I972
sa(dp41
Vwidth
p42
I2000
sVhtml_attributions
p43
(lp44
V<a href="https://plus.google.com/116913548795972454248">Zhongliang Xu</a>
p45
asVphoto_reference
p46
VCnRoAAAArWMxjRLzZT03rCXrx0KTPFFhnLAS5mNY65Ki299N4_NncQrsuufcxPnG3K3aXmdmaFR1959zzsbZ6d3_NAcaMSI2dNAEDgXbLJpEQa4wvMWrYhDXPYmArMNQYa9bKxrRUxKpIG6kJB3K1BP5DalMhBIQZ8CNez-2ZlEeZ7S9Jp-QaxoUnQ64Sb4hj-eq8T8dFrZ7W4Wnx8s
p47
sVheight
p48
I1125
sa(dp49
Vwidth
p50
I1344
sVhtml_attributions
p51
(lp52
V<a href="https://plus.google.com/106965600540781805193">Jose C</a>
p53
asVphoto_reference
p54
VCpQBiwAAAElEKRTSsWtuY3B5UhZ5oj_3wv56YUQm_5DSBnvQv0nb01ditIeHo5V-V0w_CZAue_ARBBnJOaLckpC6tsOUn-iziIf3I8_hKwvhQz_VJTZao_ID033iMFfVDSJNuDgaQXSyEcrxljQLt2ysclO5eH_IehojpaQspuJTaU1r5a1jVGVia0Xjszw-f84mFUFfihIQWY_MwgzjCnjNg37H7h7VBRoUEWlbAjqq3aCYzkxmKGrwNiaetuA
p55
sVheight
p56
I760
sa(dp57
Vwidth
p58
I2048
sVhtml_attributions
p59
(lp60
V<a href="https://plus.google.com/106521304996220499103">Ming Mak</a>
p61
asVphoto_reference
p62
VCnRoAAAAS1F0Y096T3MwxWfcgdnv8IcxT9YiQq1tBcyv5dvujdro_So_kxIvQgeAk_pGX-nSFOUOpIV1dzqjQWWlOfWJxWbOa4OIMtwi-QURIEahfdLMkV2FHW7ArjKyxpbVAF9sTTt7RkJypmzLgjGoh_QWiRIQFrt2RkbfBdnG4Qz7DlICjxoUgz3DK7gPI9BDWSmlknKgksBtA1Y
p63
sVheight
p64
I1536
sa(dp65
Vwidth
p66
I1296
sVhtml_attributions
p67
(lp68
V<a href="https://plus.google.com/113872060182239393125">Srimahesh Talatam</a>
p69
asVphoto_reference
p70
VCpQBiwAAAPVaxZ0UnbklbQlBSPAbEKtEgzgGOVYdBIfhZwd7XHh2jzy5jINiU0NRXf_5Ze2QFJlio9XKCwbi_fspQFQBbMxMcP88GwLNzkS1JCXXuYRxOkozEAhvc1q65Hc3_mztRY_YMRBdwrzb0N6PfS-248h8VEJo8XYZ4imc2Sp2ATLapxz3ISyd946fl5o1tlixoBIQBKX1HVL3wUqYr0nFmNtbCBoUtePbPPVO7YU0gO3DNNJdIdXMOSg
p71
sVheight
p72
I972
sa(dp73
Vwidth
p74
I816
sVhtml_attributions
p75
(lp76
V<a href="https://plus.google.com/113221385464453900204">william vidal</a>
p77
asVphoto_reference
p78
VCnRoAAAAZI5CIdX2r6tOTEdKlOAwkArWfb38gJINMiUZWZzE9KVv77-Or_SnxFeeh8Q_zoWPyrKpYu4BEF7rEespZtqfzVTbZf-6TfIlijHnChfTyvBeAj-ea8OtsCrQz8_LvUhmh3az4LjRdn-JGJhzcBVf5RIQlVdvTXoMkzkJ0aa_y2gFbRoUFRCZdVmouzraB8DJo2wNc1U7CWA
p79
sVheight
p80
I459
sa(dp81
Vwidth
p82
I1296
sVhtml_attributions
p83
(lp84
V<a href="https://plus.google.com/113872060182239393125">Srimahesh Talatam</a>
p85
asVphoto_reference
p86
VCpQBiwAAANlrGC_Wzm3X5wmz2a7vTLb8wttOrpg8LBGI6v6wqltES0QIs3VipnGHpBwNqDQrACJHEhNa-Le09FNA2BU1Fe9w4qyIETy1l_plv7jEXYQ1T_HHIPPM_S1XHxAwkTiFeZ_DezP2KuDVhkySLZqooT5cNykkTH8wLMnlCrPuF5EETACE5FKZwEV4gmGfvY8OZhIQiKsipC4AFozOkA__wOmWaRoUKSG7N2btwfbwdDzv3Yw7rojGOV4
p87
sVheight
p88
I972
sa(dp89
Vwidth
p90
I4000
sVhtml_attributions
p91
(lp92
V<a href="https://plus.google.com/109363976560217503323">Steven La Vinger</a>
p93
asVphoto_reference
p94
VCnRvAAAAPqSQmmaKgBY5S-48KNUlFiKkP0VWN-yr47iYUGVsWb2CoEdvPmM78GsvZazkAhX4ApDpLDbkSY84CvURboqj2TR6JW4UDDXNQbebPaibvV8jTRaYWbDdoTKYukYP3CScdOWup3nkPU-_xYD9PxElyBIQAtyBi4dXjfs5AR5yOY7NqxoU26iXjljfPNhi9XonCogP2DqOUU4
p95
sVheight
p96
I3000
sasVgeometry
p97
(dp98
Vlocation
p99
(dp100
Vlat
p101
F37.834504
sVlng
p102
F-122.504792
sssVadr_address
p103
V<span class="locality">San Francisco</span>, <span class="region">CA</span> <span class="postal-code">94123</span>, <span class="country-name">United States</span>
p104
sVplace_id
p105
VChIJxdYX1GGOhYARiIigVMJ9TOY
p106
sVinternational_phone_number
p107
V+1 415-561-4700
p108
sVvicinity
p109
VSan Francisco
p110
sVreviews
p111
(lp112
(dp113
Vrating
p114
I5
sVaspects
p115
(lp116
(dp117
Vrating
p118
I3
sVtype
p119
Voverall
p120
sasVlanguage
p121
Ven
p122
sVtext
p123
VGreat hilly cycling with not too many cars. Very windy and steep in places so if you're a novice then take note of the signs that indicate the grade of a hill.
p124
sVauthor_name
p125
VDavid Doherty
p126
sVauthor_url
p127
Vhttps://plus.google.com/101425938795714023572
p128
sVtime
p129
I1410649425
sa(dp130
Vrating
p131
I5
sVaspects
p132
(lp133
(dp134
Vrating
p135
I3
sVtype
p136
Voverall
p137
sasVlanguage
p138
Ven
p139
sVtext
p140
VAbsolutely beautiful, hilly wilderness area just north of the city.  I ran a half marathon here in March and loved it. Lots of hills but wonderful, rewarding views along the ridge-line.  I'm hoping to come back to take some pictures of the city / Sutro tower from here.
p141
sVauthor_name
p142
VMax Heinritz
p143
sVauthor_url
p144
Vhttps://plus.google.com/102217125735823374958
p145
sVtime
p146
I1396213984
sa(dp147
Vrating
p148
I5
sVaspects
p149
(lp150
(dp151
Vrating
p152
I3
sVtype
p153
Voverall
p154
sasVlanguage
p155
Ven
p156
sVtext
p157
VIs one of the best tours and fun in SF.\u000aBotanical Garde, Museums, and beautiful place if you would like have cup of tea in the Japan Garden.
p158
sVauthor_name
p159
VCarol E
p160
sVauthor_url
p161
Vhttps://plus.google.com/106028332943283658842
p162
sVtime
p163
I1403275611
sa(dp164
Vrating
p165
I5
sVaspects
p166
(lp167
(dp168
Vrating
p169
I3
sVtype
p170
Voverall
p171
sasVlanguage
p172
Ven
p173
sVtext
p174
VBeautiful area with some nice hikes that is quite accessible from San Francisco.  Though, if you have time for the trip, mount tam to the north is even nicer.
p175
sVauthor_name
p176
VAndrew Duchi
p177
sVauthor_url
p178
Vhttps://plus.google.com/117034590178289719142
p179
sVtime
p180
I1390611829
sa(dp181
Vrating
p182
I5
sVaspects
p183
(lp184
(dp185
Vrating
p186
I3
sVtype
p187
Vquality
p188
sasVlanguage
p189
Ven
p190
sVtext
p191
VEverytime I come down to the Bay Area, is to show my visiting friends actually how beautiful this area is.\u000aIt's been given a bad rep over the years, mainly to peoples lifestyles. Well lifestyles are a huge part of life, if we can only enjoy ourselves because it matches only the way we think it should be, I suggest you stay home!\u000aSan Francisco has many beautiful places to go; such as any of the old Military Forts, Buildings, parks, museums, scenery for the photo enthuisists..\u000aCome and enjoy the coast line and see history unfold all around you!
p192
sVauthor_name
p193
VEldon Henry
p194
sVauthor_url
p195
Vhttps://plus.google.com/111000134307967374586
p196
sVtime
p197
I1361392098
sasVformatted_phone_number
p198
V(415) 561-4700
p199
sVurl
p200
Vhttps://plus.google.com/100583653707384517268/about?hl=en-US
p201
sVscope
p202
VGOOGLE
p203
sVaddress_components
p204
(lp205
(dp206
Vlong_name
p207
VSan Francisco
p208
sVtypes
p209
(lp210
Vlocality
p211
aVpolitical
p212
asVshort_name
p213
VSF
p214
sa(dp215
Vlong_name
p216
VCalifornia
p217
sVtypes
p218
(lp219
Vadministrative_area_level_1
p220
aVpolitical
p221
asVshort_name
p222
VCA
p223
sa(dp224
Vlong_name
p225
VUnited States
p226
sVtypes
p227
(lp228
Vcountry
p229
aVpolitical
p230
asVshort_name
p231
VUS
p232
sa(dp233
Vlong_name
p234
V94123
p235
sVtypes
p236
(lp237
Vpostal_code
p238
asVshort_name
p239
V94123
p240
sa(dp241
Vlong_name
p242
V0022
p243
sVtypes
p244
(lp245
Vpostal_code_suffix
p246
asVshort_name
p247
V0022
p248
sasVformatted_address
p249
VSan Francisco, CA 94123, United States
p250
sVid
p251
Va086663663c933df7081560fc939b31d45bd4df9
p252
sVtypes
p253
(lp254
Vpark
p255
aVestablishment
p256
asVicon
p257
Vhttp://maps.gstatic.com/mapfiles/place_api/icons/generic_business-71.png
p258
ssba(ispot
Spot
p259
(dp260
g3
I500
sg4
(dp261
Vname
p262
VBayview
p263
sVreference
p264
VCpQBggAAAFe1waYP4kcJKl58DsuyCetsAtG-_xyq4_g_BUTDJ18PUOf9pGLIvNDY8pxW5RK4VJkmACNHzz4WFID1i8Horef4aof-xHCf3I-TcmvHE0WGL9lbtqM1wBneMYaIAdoE7HWzBDUobz4AvW0jUklpWgoKS1U8JKs1udvqAE_nIvCayPS_SNnpYtp3rYc5iRuqBBIQadhJlQXwE7hMuUxvQd2aNBoUU1ft180vcteChOrrTVrWKSqo4T8
p265
sVgeometry
p266
(dp267
Vlocation
p268
(dp269
Vlat
p270
F37.730416
sVlng
p271
F-122.384424
ssVviewport
p272
(dp273
Vnortheast
p274
(dp275
Vlat
p276
F37.7522488
sVlng
p277
F-122.3569669
ssVsouthwest
p278
(dp279
Vlat
p280
F37.7083844
sVlng
p281
F-122.4080732
ssssVadr_address
p282
VBayview, <span class="locality">San Francisco</span>, <span class="region">CA</span>, <span class="country-name">USA</span>
p283
sVplace_id
p284
VChIJVTQNsxt_j4ARYEXVGCqV7Mw
p285
sVvicinity
p286
VSan Francisco
p287
sVurl
p288
Vhttps://maps.google.com/maps/place?q=Bayview,+San+Francisco,+CA,+USA&ftid=0x808f7f1bb30d3455:0xccec952a18d54560
p289
sVscope
p290
VGOOGLE
p291
sVaddress_components
p292
(lp293
(dp294
Vlong_name
p295
VBayview
p296
sVtypes
p297
(lp298
Vneighborhood
p299
aVpolitical
p300
asVshort_name
p301
VBayview
p302
sa(dp303
Vlong_name
p304
VSan Francisco
p305
sVtypes
p306
(lp307
Vlocality
p308
aVpolitical
p309
asVshort_name
p310
VSF
p311
sa(dp312
Vlong_name
p313
VSan Francisco County
p314
sVtypes
p315
(lp316
Vadministrative_area_level_2
p317
aVpolitical
p318
asVshort_name
p319
VSan Francisco County
p320
sa(dp321
Vlong_name
p322
VCalifornia
p323
sVtypes
p324
(lp325
Vadministrative_area_level_1
p326
aVpolitical
p327
asVshort_name
p328
VCA
p329
sa(dp330
Vlong_name
p331
VUnited States
p332
sVtypes
p333
(lp334
Vcountry
p335
aVpolitical
p336
asVshort_name
p337
VUS
p338
sasVformatted_address
p339
VBayview, San Francisco, CA, USA
p340
sVid
p341
V918511e2a071071132a372542250079ff49fe0a9
p342
sVtypes
p343
(lp344
Vneighborhood
p345
aVpolitical
p346
asVicon
p347
Vhttp://maps.gstatic.com/mapfiles/place_api/icons/geocode-71.png
p348
ssba(ispot
Spot
p349
(dp350
g3
I500
sg4
(dp351
Vwebsite
p352
Vhttp://www.fairmont.com/san-francisco
p353
sVrating
p354
F4.2
sVutc_offset
p355
I-480
sVuser_ratings_total
p356
I216
sVname
p357
VThe Fairmont San Francisco
p358
sVreference
p359
VCoQBcwAAAL4AyuAAVF_vP8mQIIL1Bf0wLCCUQZt0TAqYJGK22PKy_UQ8dyNIqksrjNdFVZbogY3WCY-aYTeo0hawuYOL2OpfJC91Bk7WYJY_-t92EnMEQ34xT2jvLWkeF9Jc7PqK4yEyzizYNawsZ8Q04JBlYqFRBPPIpGeqdskIy8GXtCyjEhAKVSJ5ed6qC_iOhCLbo522GhRbFy4eo9TkJT7wZw5O7kaHyTZMBw
p360
sVphotos
p361
(lp362
(dp363
Vwidth
p364
I576
sVhtml_attributions
p365
(lp366
sVphoto_reference
p367
VCoQBfAAAAFX2xtlGlZSky_bDHtmRYJSIuV-mqOynNPyU9ykuY7hXrX9nPIhM_JUMIk32HJF7Md0hFMRcQ68xyuWDzj-mWcAgix78aBEM7i0G1V_b9DFW6u9j5GifUCNOEewmRiNEgxo50glG0edLVqQxSvVozM2980s6Wnou6B8Fq0aN2Az2EhArUlXNaYG9Zp4LXDh4-dxgGhQkKj9__hGAwE2cTKj4d9H1m98CDw
p368
sVheight
p369
I574
sa(dp370
Vwidth
p371
I1190
sVhtml_attributions
p372
(lp373
sVphoto_reference
p374
VCnRqAAAAJI36pJuEiB-33Ir6t9jZj2AzXGsV4BZQGMKlSDetFnIbCd2VZA5uupsD2aeyWdHPLgCMnRsynelKFRO8jX-YUOwVlp-EF2aIexMD_QvTwBmM8zk4n_P8CXZJOLw6pSZGOAUDeSbNHtTcz9cQMh035RIQUuNsJ6mIec-xGeALlrnUchoUB3ckcPUm3E7L9cipsfiIJp53Q3s
p375
sVheight
p376
I960
sa(dp377
Vwidth
p378
I1280
sVhtml_attributions
p379
(lp380
sVphoto_reference
p381
VCnRnAAAAkRSd9XngVMiCPo9rRHG3FXW972_8iGW9saEuPHZaITQHeKk3hilY4x0xS1bDIgyzfWCDD09WL4cb7cgwb4W--ze8nX2bw73mZJF2OH5YipBkvQuYvaUVOTM7qInGv1auKhENJAU-eDVALD1huqhSBhIQhQua8XBJto6NZ944YXK8qhoUIHvY1KvF9M6aVJ7ziilAU1f3M5o
p382
sVheight
p383
I645
sa(dp384
Vwidth
p385
I1200
sVhtml_attributions
p386
(lp387
sVphoto_reference
p388
VCnRnAAAAjdUJW6gdT3vWSzd7BbtMM6QkgRdZyBybGQaO_VpBtYjxkbAYbmpIA5ea2JH0Q9cyBeBiscsxTdCUvsH34v1ZPVOGFmkcoSyvbhkFueHL1RygSZLXBVtDqGF1yxDiKM92vbxWMnbEVQQdSaDKrac1PRIQAyV22Q3e1Ojm3zQUxMr1nBoUYN-2lowV8OLimEmDdkpihkkMPv0
p389
sVheight
p390
I800
sa(dp391
Vwidth
p392
I1200
sVhtml_attributions
p393
(lp394
sVphoto_reference
p395
VCnRnAAAATa5bImz-VgwGZVMckg2EwIqK_bil5Wi0h_E7WuRTBxLEIytcx62lHLE1hobH-4hR8pL94RuPFJ2BifyOZEBmhKi0tDe2KQmtcgw1_6JlNO23m4NpUBmkEHt-fMy7U0Ufri0PTolpMjslEhqFA7r9yxIQZweyt4TDowNC6IRjR74ALBoUts6r-WXnDryIyUEG6kCAY5Ewb8w
p396
sVheight
p397
I800
sa(dp398
Vwidth
p399
I1200
sVhtml_attributions
p400
(lp401
sVphoto_reference
p402
VCnRnAAAAXfVVfmwq8b6YTtDY6bREeAFS9BEq0s6csFuI0MWbiod0msP-Fwta_5jVf-AdlrHDDxSNKH248anynHeauQdUKmFdcjHD9u5qoA1hbTFyZKUjXExjo_qd7h8_6Xj38mJea9AGABUxk-4WJ3xR9EwwnBIQlfgHlDr6BaTKVUCiXZ7LKRoUiCG0WCFo_fRwCXkpP-eoy-zDmzg
p403
sVheight
p404
I800
sa(dp405
Vwidth
p406
I1200
sVhtml_attributions
p407
(lp408
sVphoto_reference
p409
VCnRnAAAA7CSIhKx4ArDAoHgVQph1uYQThSeVcCw7a5XFCTLayU3wOqQ_V_mf7QFmAp-JKAishvEB2mucVuJE0rN9ykWTBlGDZePzht7DprzsGV1FEZlCQeB7aPgsdrmArltCSu9SjrWR4wIM0h7JDVNrPGbDwBIQ4kVly4GhVyEyuwvIGocw0RoUgeRn7CHHU5j6690Nrx00rJvPFT4
p410
sVheight
p411
I800
sa(dp412
Vwidth
p413
I1200
sVhtml_attributions
p414
(lp415
sVphoto_reference
p416
VCnRnAAAAepkcefOKM9ONPlnoWRMie5hhCfoxn4eTxvplN6aT7w3_tQks8Ynw8t1QLPmfR9VxurSK6bT9DXeL_e_icdl_bocOUyXFGfbgf2_T1CzbS8xIGbKUkbz_KdEs82qyd1o-TPaAOpGNb8YHmkm6uVpmeRIQheBdbNoTHOAr4E9am1OQvBoUbWpz8dD1yvZANycCZYIarhRCjfs
p417
sVheight
p418
I800
sa(dp419
Vwidth
p420
I1200
sVhtml_attributions
p421
(lp422
sVphoto_reference
p423
VCnRnAAAARli9KyOIfall_A6LzuageVud-GcMZ7zwc1BAU_ArZsj96Gkdz3BGGCLBEWIJnUEJUXrZNGU_z7JEQrL5s0m32seZTQ61FE_TeeoGGM5tq1KFlOVb-vDbol8mtxsjXKt5sZowJpehpyBtfpN1uZsqxhIQDZr114K9BASPBlBBZf9FYRoU4VdPKfuMp1KozQBn77eutV4qR6Q
p424
sVheight
p425
I902
sa(dp426
Vwidth
p427
I1200
sVhtml_attributions
p428
(lp429
sVphoto_reference
p430
VCpQBigAAAEaRgipY-h7NVEkTQceHbdva0b4UUoXpsV7k0zmXQRpZ73_QqRdv2Vav8bfPD2zdXWJaHQ-p9_44Vqs3sTZblU0MnJcfRgPTRJgEIV14RyXNpQIxXnZLDsL_32pejykj_ah4xw0wAcxDWD3l7Y_fGPblQOGnD4S6v_11zeME8srT4R8enTXCK1-dYOmaJzC2fRIQr2DH_Nfs7SwceESZFKdCnxoUuQqcsDiYisjMGf699wsmxkdN1-I
p431
sVheight
p432
I960
sasVgeometry
p433
(dp434
Vlocation
p435
(dp436
Vlat
p437
F37.792396
sVlng
p438
F-122.410504
sssVadr_address
p439
V<span class="street-address">950 Mason St</span>, <span class="locality">San Francisco</span>, <span class="region">CA</span> <span class="postal-code">94108</span>, <span class="country-name">United States</span>
p440
sVplace_id
p441
VChIJN2S4EI2AhYAR9J4Qeh1U8Aw
p442
sVinternational_phone_number
p443
V+1 415-772-5000
p444
sVvicinity
p445
V950 Mason St, San Francisco
p446
sVreviews
p447
(lp448
(dp449
Vrating
p450
I5
sVaspects
p451
(lp452
(dp453
Vrating
p454
I3
sVtype
p455
Voverall
p456
sasVlanguage
p457
Ven
p458
sVtext
p459
VThis hotel is stunning. I've only been in the lobby area and to some of the meeting / event rooms. They are flawless and breathtaking. If you're in the area, drop by for a quick peek. If you like grand rooms with a historical feel you will not be disappointed.  
p460
sVauthor_name
p461
VAmy Meyer
p462
sVauthor_url
p463
Vhttps://plus.google.com/102690091571148307715
p464
sVtime
p465
I1407802650
sa(dp466
Vrating
p467
I3
sVaspects
p468
(lp469
(dp470
Vrating
p471
I1
sVtype
p472
Voverall
p473
sasVlanguage
p474
Ven
p475
sVtext
p476
VBeautiful place, especially the main lobby. This continues with renovated, beautiful rooms, and yellow marble bathrooms. Service here is okay, but not up to 'par' as used to Fairmonts. We have stayed at Fairmont in D.C. and NYC, and have always had great experience. Staff here is not as good as typical. Doormen outside seem understaffed, and there are a ton of people standing around. They can't really tell who is coming and going. Front desk with very young girls in the evening, that were not very helpful when I approached with a simple question. Also, it is a little uncomfortable having to break up their huddle around a cell phone. Not a big deal, and probably more a reflection of their age. I just stayed at a hotel for $150/night, and staff was much friendlier and responsive. \u000a\u000aWalls are paper thin, and I can literally hear and understand every word of the neighbor's words. Probably not management's fault, it's an old building.\u000a\u000aI feel bad with negative remarks, but management and staff that do an outstanding job should be rewarded. Had a great time here in SF, however.\u000a\u000a
p477
sVauthor_name
p478
VBrian Modena
p479
sVauthor_url
p480
Vhttps://plus.google.com/116551189392506282628
p481
sVtime
p482
I1406489780
sa(dp483
Vrating
p484
I5
sVaspects
p485
(lp486
(dp487
Vrating
p488
I3
sVtype
p489
Voverall
p490
sasVlanguage
p491
Ven
p492
sVtext
p493
VAs if you're walking back in time\u2026 a beautiful and thoughtfully orchestrated building with a rich history. Had a wonderful time at a fundraiser here recently. The thoughtful and detail oriented architecture was definitely noticed by all. Modernism is a part of our time now, but there is something that is easily appreciated by all when it comes to thoughtfulness- even when it's architecture. Highly recommended for a nice reminder of creativity and beauty from a great period in time. 
p494
sVauthor_name
p495
VLillian Chan
p496
sVauthor_url
p497
Vhttps://plus.google.com/111958487714652939736
p498
sVtime
p499
I1402737720
sa(dp500
Vrating
p501
I5
sVaspects
p502
(lp503
(dp504
Vrating
p505
I3
sVtype
p506
Voverall
p507
sasVlanguage
p508
Ven
p509
sVtext
p510
VStayed here 2 weeks ago, for 5 days. I was SHOCKED!!!! in a good way\u2026. I've stayed at many hotels in San Fran. By far, these rooms were the biggest I've ever seen! And that says a lot for the city by the bay\u2026. Had room to hang all clothes in the closet, and even an extra rack for our luggage. Temperature was well controlled throughout the hotel. Bell service was great, and the people at the front desk were always helpful. The only bad thing is the Valet Parking price. $60 per day is a bit steep, but I probably shouldn't have had a rental car in the city anyway. But I will definitely stay here again on my next trip! Well wort the price!
p511
sVauthor_name
p512
VRobert Peterson
p513
sVauthor_url
p514
Vhttps://plus.google.com/100510007029790173763
p515
sVtime
p516
I1408297701
sa(dp517
Vrating
p518
I1
sVaspects
p519
(lp520
(dp521
Vrating
p522
I0
sVtype
p523
Voverall
p524
sasVlanguage
p525
Ven
p526
sVtext
p527
VCrazy paranoid Security who are rude and accusatory to friends of guests. I went to go visit a friend of mine at night. I couldn't find the room number. Since no hotel staff could be found I asked the only person I could find. The man I asked was part of a painting crew. To my surprise they all spoke Cantonese and barely a word of English. I showed one of the men the room number and with much effort and hand signals the kind Chinese man told me where I could find the room. When I started to turn left instead of right the man shouted out to me. But because of his strong Cantonese accent the "No" sounded like a loud "Uhhhh".  Then from out of nowhere this 6'4" Caucasian man with a thick brown mustache and brown blazer comes out and says, "Why is he YELLING at you?!" I responded saying, "What? Who?" Then the security pointed to the group of Chinese painters. I had no idea what he was talking about because even with the thick Cantonese accent I still heard a "No". I didn't register that anyone was yelling at me. As I tried to process the words of this 41 year old Security guy as hovered his 6'4" 270 lb body over my 5'6" 125lb frame and staring at me as if he was about to beat me up. "Do you have the room number?" he asked. I said yeah. But this Security guy actually looked kinda crazy and I could only guess what he might do to my friend. I mean was stopped for no reason, perhaps this paranoid Security would hurt my friend. Then as I tried to form the words through the intimidation Security man said, "Let's walk this way." Then walked me to the exit as if he was doing a perp walk and walking slightly behind me and so close that he gave me the feeling that if I so much as paused he'd throw me to the ground. When he had me at the exit there was a cab waiting and he watched me get in the cab and stood there staring at me like a mad dog even while I sat in the taxi until it had driven out of sight.  All I wanted to do was see my friend and all my friend wanted was to have a romantic visit with an old girlfriend and the Fairmont Security ruined everything.  
p528
sVauthor_name
p529
VRuby Garcia
p530
sVauthor_url
p531
Vhttps://plus.google.com/105570168439947872947
p532
sVtime
p533
I1404804429
sasVformatted_phone_number
p534
V(415) 772-5000
p535
sVurl
p536
Vhttps://plus.google.com/114386282276154448100/about?hl=en-US
p537
sVscope
p538
VGOOGLE
p539
sVaddress_components
p540
(lp541
(dp542
Vlong_name
p543
V950
p544
sVtypes
p545
(lp546
Vstreet_number
p547
asVshort_name
p548
V950
p549
sa(dp550
Vlong_name
p551
VMason St
p552
sVtypes
p553
(lp554
Vroute
p555
asVshort_name
p556
VMason St
p557
sa(dp558
Vlong_name
p559
VSan Francisco
p560
sVtypes
p561
(lp562
Vlocality
p563
aVpolitical
p564
asVshort_name
p565
VSF
p566
sa(dp567
Vlong_name
p568
VCalifornia
p569
sVtypes
p570
(lp571
Vadministrative_area_level_1
p572
aVpolitical
p573
asVshort_name
p574
VCA
p575
sa(dp576
Vlong_name
p577
VUnited States
p578
sVtypes
p579
(lp580
Vcountry
p581
aVpolitical
p582
asVshort_name
p583
VUS
p584
sa(dp585
Vlong_name
p586
V94108
p587
sVtypes
p588
(lp589
Vpostal_code
p590
asVshort_name
p591
V94108
p592
sasVformatted_address
p593
V950 Mason St, San Francisco, CA 94108, United States
p594
sVid
p595
Va9dbcfebeadf2c2e488dd47116305abb181a0cbb
p596
sVtypes
p597
(lp598
Vlodging
p599
aVestablishment
p600
asVicon
p601
Vhttp://maps.gstatic.com/mapfiles/place_api/icons/lodging-71.png
p602
ssba(ispot
Spot
p603
(dp604
g3
I500
sg4
(dp605
Vrating
p606
F3.9
sVreference
p607
VCoQBeAAAADEDwocjHG2WFvyLKDB134psH_2NvjwRdmqx3M8kisNh1KrSLD7W0UxmffeUd0gB6m7XqBG0m8kL9nE6inyEISvkAkqVOGgVxTY4NYxnbipaAfjXDreHFs7HHCqKLbZ9zIDh89TEMYK6XFpBpZ7l_vliq8iXmhvCwQis8vlaS7UDEhCNFZm5GKygD9tZVUCXWbqEGhQVicNATHTUnWdRc_HBHMvmC912XA
p608
sVplace_id
p609
VChIJcT5nNoaAhYARVdbyW3zPwus
p610
sVurl
p611
Vhttps://plus.google.com/106887444712850191170/about?hl=en-US
p612
sVformatted_address
p613
V780 Mission St, San Francisco, CA 94103, United States
p614
sVid
p615
Vf007d2f91c0070ebdfec60275baa33623f0b771b
p616
sVopening_hours
p617
(dp618
Vweekday_text
p619
(lp620
VMonday: Open 24 hours
p621
aVTuesday: Open 24 hours
p622
aVWednesday: Open 24 hours
p623
aVThursday: Open 24 hours
p624
aVFriday: Open 24 hours
p625
aVSaturday: Open 24 hours
p626
aVSunday: Open 24 hours
p627
asVopen_now
p628
I01
sVperiods
p629
(lp630
(dp631
Vopen
p632
(dp633
Vday
p634
I0
sVtime
p635
V0000
p636
ssassVvicinity
p637
V780 Mission St, San Francisco
p638
sVscope
p639
VGOOGLE
p640
sVwebsite
p641
Vhttp://www.marriott.com/hotels/travel/sfodt-san-francisco-marriott-marquis/
p642
sVutc_offset
p643
I-480
sVuser_ratings_total
p644
I127
sVphotos
p645
(lp646
(dp647
Vwidth
p648
I610
sVhtml_attributions
p649
(lp650
sVphoto_reference
p651
VCnRnAAAA33GttZKJcF3XZ9Xxu3L7SD3B1c1yzKIcuTwz8RjFF-GcuX4_6dWh1gzdAlWEM4szKoZ1r94j5SS0rWKYbLpZdHN6XTgw8U8sj-4f6qocrVzOs82p-Op3JKlor3CS-1qL_Nc65SRKqE24kKuAx5Bh6BIQorFUX_1SAZW1E3fuCANq5RoUuWV2RNGfF3aN7xpz8uOYajrLMWg
p652
sVheight
p653
I423
sa(dp654
Vwidth
p655
I610
sVhtml_attributions
p656
(lp657
sVphoto_reference
p658
VCnRnAAAAJjUJTwLV4qSn6HPh88NDJiffATkUSR5m3o-caFTf3UODeIGLJgGMLBmoUEpfzgdI5J0u-yn_Sv-Hgm3ZwQOkDCuZYKRfgts13AMkLbzgm5h-HXmDZRGhv1f8_vOp4R9adPug_k7UgpHY0xf30qoMMRIQvOozYWmhwALTDTM9d7LUvRoUm9G2v7dH1SoiBMaF_wp2f3yUScw
p659
sVheight
p660
I423
sa(dp661
Vwidth
p662
I610
sVhtml_attributions
p663
(lp664
sVphoto_reference
p665
VCnRnAAAADGV-c9uMGykMsrgnevNFxbf7srDmnedj0oXm3rOuJL5XorJedaeaWi_qa9lna7IPf0fMyoHJYwqb9CE-0d9wdvVGm4-cjOtLd9Z4n_j9amAVplR0j4alutnfhMud5rKKl4wHZs7ygfzUV9i-CImOShIQ8D9oDM7OWgKke2p96tsaxBoUZuJIcRFTNt5TlnjQ-vzBowBQ4Fc
p666
sVheight
p667
I423
sa(dp668
Vwidth
p669
I610
sVhtml_attributions
p670
(lp671
sVphoto_reference
p672
VCnRnAAAACi2_I7vTLls-f1KtS1Gagni6nlBSSX_IK4Cdjp6kBLywLjTQMgKtQzRC-n0POmj6E3NhUbztiw1dUW-fdg1uzlEYrfixcHWfrfkfn4-AdJ0rGFL5brwnhMM_yUOMwFAbAK6AGg66d4zAsoUA_nqPeRIQey1c43WKDJlu5t32RDFy6hoU6MmRYriCJgy7ma-FGxnafGdC8ds
p673
sVheight
p674
I423
sa(dp675
Vwidth
p676
I610
sVhtml_attributions
p677
(lp678
sVphoto_reference
p679
VCnRnAAAAv2SQUoeD-P7kJ2ZzqlPAb0apWPHIuDDKks0EfrAUmNoRKkYtzxpOme6ro6Vl4SaL8jpbB1d2vEktzDGM2S_iCkfL_cqU8JZ6NEazAlqGL14RsZgs0EwcluWg3n3UTn5KEwyB2jZVVBl7sMdVffuhmBIQdd6mCIfArWTNP7yRgNOUlBoU3EFOMrJPavTRnXjw0MOmKjQmqqQ
p680
sVheight
p681
I423
sa(dp682
Vwidth
p683
I610
sVhtml_attributions
p684
(lp685
sVphoto_reference
p686
VCnRnAAAAU0bvl6qwZ3KpOrMulsAjyred6lKUuN0XZRa5pwkuqtObK5flmJLYJTUEOm2I3UrdjTejFQbcriPjsqjwSQXUDrfL-fXq71TBBtXgzG0gKeo9rxjdCLtL00RZDIos84IJOqIyHqaw8plkTay_TX4kMRIQ9IZTWUjgCFa6Rq3VjD0QThoU_PMyfNPvdl9QkyL5vmH3K4RMSzw
p687
sVheight
p688
I423
sa(dp689
Vwidth
p690
I610
sVhtml_attributions
p691
(lp692
sVphoto_reference
p693
VCnRnAAAAu98Y3v-KMzZ7LO8YGMhCg3BZJ_biycmzmdI1dvLmTSKthz1RWbq3hY6HritEkKbHdLJbcbCL-mXX3qPPWhijNnK7yENQaGmK6xLWJiUJfFNGKIjTaHl85oOFccgR_LBc58slvn5xu0nu_gPjklTADBIQOvwJM0JxNH6iSYQS4LK74RoUyHheEZlMvjrS7v1IAFYSvFxqSJw
p694
sVheight
p695
I423
sa(dp696
Vwidth
p697
I610
sVhtml_attributions
p698
(lp699
sVphoto_reference
p700
VCnRnAAAAZvFq-9GBc2lVW5UskNbnWAJz6MEogJOxQbWmozgjAlqryQYN4Q2hYCm-NiZi-FHgu1qkQoqcdSUI22saFB7ZoQAgkx4X1RctteG697Cr91SkPcK8EcNnU_EGujH4NIbYMEGfV2q5bCLjxOmu0Tkr3RIQTAkb1DXX2upRr_VLkYpgghoUJvKW-P6F2z7mOqAWstj6O6oxclI
p701
sVheight
p702
I423
sa(dp703
Vwidth
p704
I610
sVhtml_attributions
p705
(lp706
sVphoto_reference
p707
VCpQBhQAAAOz3_3-HJQGs6vfTQDFJnQ5kVQRdXRC1KpgjSteLwcy6wKDO_EgtRitbujk0Qbq_8fxDQDYLaua20RBURgHIYgjX9IOMYBs6tVntvJRDh2BKuyW7G2vi7uXctSjFqw8QDPB6oGx_BOTWdR_3aUr8QFnz7NO8oJXjOCfqzEuZPxLeidlvuMhNj137OvsZhdGywRIQMGzl-Kx1rUxokIjEACnlYxoUyU5zHAt1kCqs-lg6pIduRdab3rQ
p708
sVheight
p709
I423
sa(dp710
Vwidth
p711
I610
sVhtml_attributions
p712
(lp713
sVphoto_reference
p714
VCnRnAAAA5PqhVMkarXVj67y6Sj1Rli6RmIvH-vypjj3C8xx0lSWfZA4MDczv8PNsrHWCmszaadznDCZ96PHjdufp1V6judLZGflIaYCZEUTrOyaBVQkRuiZnYou4ApA0TzKFmTXqC0zsBHf5lFXb8-RDR4yPdxIQAmm8ltIiQs9gCjuc7JhuWxoUz38v387q7YvA976YPXjk84q_pKs
p715
sVheight
p716
I423
sasVtypes
p717
(lp718
Vlodging
p719
aVestablishment
p720
asVicon
p721
Vhttp://maps.gstatic.com/mapfiles/place_api/icons/lodging-71.png
p722
sVname
p723
VSan Francisco Marriott Marquis
p724
sVgeometry
p725
(dp726
Vlocation
p727
(dp728
Vlat
p729
F37.785228
sVlng
p730
F-122.404389
sssVadr_address
p731
V<span class="street-address">780 Mission St</span>, <span class="locality">San Francisco</span>, <span class="region">CA</span> <span class="postal-code">94103</span>, <span class="country-name">United States</span>
p732
sVinternational_phone_number
p733
V+1 415-896-1600
p734
sVreviews
p735
(lp736
(dp737
Vrating
p738
I3
sVaspects
p739
(lp740
(dp741
Vrating
p742
I1
sVtype
p743
Voverall
p744
sasVlanguage
p745
Ven
p746
sVtext
p747
VI recently stayed at this hotel for a large conference. It is a good hotel, very large. However, I had mixed experiences with the customer service. We were 4 students staying there and needed to split the bill on 4 cards. We called ahead and told them this but they apparently ignored this, and $645 later in charges, I am frustrated. Upon calling the customer service, he was rude and interrupted me many times. We also needed a room to share with 4 people (we told them this before as well) and they gave us a tiny room, nothing like the suite we were promised. Thankfully, a room switch was done, but not without a hassle. Additionally, the costs were extremely ridiculous everywhere within. $7 a day for the gym and $15 a day for internet? Wow. I will think twice before staying here again. 
p748
sVauthor_name
p749
VBailey Wockner
p750
sVauthor_url
p751
Vhttps://plus.google.com/111872480398909637191
p752
sVtime
p753
I1416696856
sa(dp754
Vrating
p755
I1
sVaspects
p756
(lp757
(dp758
Vrating
p759
I0
sVtype
p760
Voverall
p761
sasVlanguage
p762
Ven
p763
sVtext
p764
VTo deal with customer service over an reservation issue was the most discriminatory and humiliating telephone event of my life so far two representatives hung up on me ( Iam Marriott rewards member too), made fun of my husband's name started screaming and yelling at me,would not give me her name and she also hung up on me yesterday evening. I will be filing a complaint with the better business admin and Ca Dept of Consumer Affairs.\u000a
p765
sVauthor_name
p766
VLidia Iannicelli
p767
sVauthor_url
p768
Vhttps://plus.google.com/113290576894401125156
p769
sVtime
p770
I1414440405
sa(dp771
Vrating
p772
I4
sVaspects
p773
(lp774
(dp775
Vrating
p776
I2
sVtype
p777
Voverall
p778
sasVlanguage
p779
Ven
p780
sVtext
p781
VEnjoyed the hotel and it's location was superb.  Great customer service.  The only problem was the bellhop service. They were rude and expected a tip for their rudeness. Other than that this hotel was amazing. 
p782
sVauthor_name
p783
VWilliam Birdshead
p784
sVauthor_url
p785
Vhttps://plus.google.com/106070413165326970187
p786
sVtime
p787
I1399848580
sa(dp788
Vrating
p789
I5
sVaspects
p790
(lp791
(dp792
Vrating
p793
I3
sVtype
p794
Voverall
p795
sasVlanguage
p796
Ven
p797
sVtext
p798
VThis is one of my favorite hotels in the City. In the last few times I have stayed there, not only have I received an email from Marriott in advance confirming my arrival, but an email from guest services from the hotel itself asking about any requests I might have. When I arrived I was greeted by a friendly, helpful staff and upgraded to a suite with an incredible view of San Francisco. Every wish I made was granted, and every time I stay there they comment on and appreciate my loyalty. \u000aThis is a well located hotel; walking distance to the Ferry Building and many other attractions. The restaurant is open and friendly, and the view from the appropriately named "View Lounge" is stunning. \u000aAfter leaving the hotel I received another email from guest services wanting to make sure my stay was satisfactory. I was happy to respond that it was beyond satisfactory. \u000aI highly recommend this hotel.
p799
sVauthor_name
p800
VColleen Brennan
p801
sVauthor_url
p802
Vhttps://plus.google.com/109644931818394502043
p803
sVtime
p804
I1405442127
sa(dp805
Vrating
p806
I3
sVaspects
p807
(lp808
(dp809
Vrating
p810
I1
sVtype
p811
Voverall
p812
sasVlanguage
p813
Ven
p814
sVtext
p815
VEarly check-in is not an uncommon thing to request, yet here the evening before my reservation, first I'm told that the phone number in the email is the wrong number, and then told by the hotel that I will need to call the morning of the reservation (at which point I'll be on a plane), and even then it's a 50/50 chance.  Service is what sets great hotels apart from just-ok hotels, and so far Marquis is ranking "just ok".
p816
sVauthor_name
p817
VDustin Mitchell
p818
sVauthor_url
p819
Vhttps://plus.google.com/105883044168332773236
p820
sVtime
p821
I1411346693
sasVformatted_phone_number
p822
V(415) 896-1600
p823
sVaddress_components
p824
(lp825
(dp826
Vlong_name
p827
V780
p828
sVtypes
p829
(lp830
Vstreet_number
p831
asVshort_name
p832
V780
p833
sa(dp834
Vlong_name
p835
VMission St
p836
sVtypes
p837
(lp838
Vroute
p839
asVshort_name
p840
VMission St
p841
sa(dp842
Vlong_name
p843
VSan Francisco
p844
sVtypes
p845
(lp846
Vlocality
p847
aVpolitical
p848
asVshort_name
p849
VSF
p850
sa(dp851
Vlong_name
p852
VCalifornia
p853
sVtypes
p854
(lp855
Vadministrative_area_level_1
p856
aVpolitical
p857
asVshort_name
p858
VCA
p859
sa(dp860
Vlong_name
p861
VUnited States
p862
sVtypes
p863
(lp864
Vcountry
p865
aVpolitical
p866
asVshort_name
p867
VUS
p868
sa(dp869
Vlong_name
p870
V94103
p871
sVtypes
p872
(lp873
Vpostal_code
p874
asVshort_name
p875
V94103
p876
sassba(ispot
Spot
p877
(dp878
g3
I500
sg4
(dp879
Vwebsite
p880
Vhttp://sanfrancisco.giants.mlb.com/sf/ballpark/
p881
sVrating
p882
F4.7
sVutc_offset
p883
I-480
sVuser_ratings_total
p884
I520
sVname
p885
VAT&T Park
p886
sVreference
p887
VCnRjAAAAz-tnpBKLneA3Mrl3YWXT0OFo1l5wBMbFu19T3wHx_GkGCA5aCyRRRSPIfatvkjL8y7M17WEnW15r-uw3EIiYKEx02-lHUwduVdIABk7SAKcuVlc_-vg9xaUS-v6DpPnDXzpi8ErwtDFaHYOBnXqvbhIQShW9JkBqddg3Ui9PzRa1GRoU9VNoygrJhPf2bjqFqy99TC4IC7c
p888
sVphotos
p889
(lp890
(dp891
Vwidth
p892
I1632
sVhtml_attributions
p893
(lp894
VFrom a Google User
p895
asVphoto_reference
p896
VCnRtAAAAL-TpH_jm4K-9jE8VYfAqEtLqH0GXNGpdn8YVfCeGFc9u7uyEcecZRnQvmBLsegiytteupPqD0c-dsm-G5nPjvS_ePg2FcxZi2Y6IEUW-FJA6I4GQPLYkYOtJDLTyq-HZuHmKcPkRuLafXlz9URY_VhIQ__YDR1PcLqhphIs2y2jmRhoUVeZfCKUEZAqEyx8caZGyQgmD9jI
p897
sVheight
p898
I1224
sa(dp899
Vwidth
p900
I2048
sVhtml_attributions
p901
(lp902
V<a href="https://plus.google.com/106170335079428053302">Corrie Davidson</a>
p903
asVphoto_reference
p904
VCpQBhgAAAGxdCDJQtN800_S-9Aa8EoIbErk7unWneFnhgWUxdMwqnGI9bBDA0ZtgJy0aWjv3CEBno4n15raX__oORnh2GjxSmzjoFriPI3Kgk6dI8Hanac6r4eWTdFRC3jyOCNSOKidO5cFBf23x3eYkPLNZsAwFzCto13QYWRwGdMPzNzWbS63dkTdP_fPA1G77lvuFWxIQSoNxtEsKV55b-1fNd7NJWhoUllGGn6qky2AbQQdCDexgxVHUURY
p905
sVheight
p906
I1536
sa(dp907
Vwidth
p908
I1024
sVhtml_attributions
p909
(lp910
VFrom a Google User
p911
asVphoto_reference
p912
VCoQBdgAAAIQM01_5YXBiU0xZBA9XkJqowPKruwGkh4w6NM__8_9HJLs5lIAu1T7vE57cKVE2JH9J8Y5i56OIG8f2cuJy906tH3MR_QE4ki7-mkw4UFL6PNCzIy1mTbHbKrEHJTjggjxi22--tkfByUaq-rD7a4lro8KJoD-9LoYfluVLvjmyEhDaQZVdIwnHgz1C0csufcWbGhQ0-a9hIaeRJ145go4cxvGgaXV33A
p913
sVheight
p914
I768
sa(dp915
Vwidth
p916
I2048
sVhtml_attributions
p917
(lp918
V<a href="https://plus.google.com/112095627515954870302">Garrett Messer</a>
p919
asVphoto_reference
p920
VCoQBcQAAAGgccuO6uyDYncDgV2b0Z3E1YotcOwBz6ssqKgH_QkFg5RsTVLe7skYW4LpGUk3o4nlE2RGo59rSuWg1egRo6JyvkCddz6bHlFmJ06gAaRiDsAql2om-p_d0CB-tfmr_ARxbeS9bYTSV4Vbjp7XE9tdBXuVQ7CtZiQBZGi6nT7lZEhCVIaUlHA7-Jcj4FLJXUi-TGhRM1P3KcZTnXa6DLpSQCO2tJlvnDw
p921
sVheight
p922
I1536
sa(dp923
Vwidth
p924
I1280
sVhtml_attributions
p925
(lp926
V<a href="https://plus.google.com/108152127945250235563">Michael Villalobos Gomez</a>
p927
asVphoto_reference
p928
VCnRoAAAAfcYMr_1i4o9UwE6L9llN4sKCqd3oKphqRj63tnx6eE59A3giueZKEMEKWDH_stlVmkMtkXAhsZY97Fqfw5wzvsMyk5EltC4Ao87lR3J_Fg1yk6sC2z1AsUn9zIN6JXsP13gEQ0oQboiT2El78c7TeRIQK_6ObhjnmJPPMxEAWsZ4zBoUN2Cv_sC_yKsSgI8O3HxqrhUWAJo
p929
sVheight
p930
I960
sa(dp931
Vwidth
p932
I500
sVhtml_attributions
p933
(lp934
V<a href="https://plus.google.com/117701647401983318963">Piero Fusco</a>
p935
asVphoto_reference
p936
VCnRtAAAAqzaLkzQHgYKcSGfUxD3P6CCxe0hGoj5RztFCNVPAadmHdNBYHnWKWHsN5S2oi4BufjZE_jBbUuKzYgnAQJ_18r-UQw9KqeJS0dmiKapc-QZXxkYS3JihMN5nDD2scNps15Wd58qRt9xjvaauSnlsIhIQ3eYR3cRwgRaWmSjxZ1hy-BoUn9QGktzFih5ka157nLChzl85qQs
p937
sVheight
p938
I332
sa(dp939
Vwidth
p940
I394
sVhtml_attributions
p941
(lp942
VFrom a Google User
p943
asVphoto_reference
p944
VCnRtAAAA-VukdYXbrVLb3b7oBbZJVAb_bAZbB7lH1rZ51wT-TJ8W422jQvriZ3l-DwGWvntFOrDtXMQiTzmEPvFaGFOiAxUVfV5p4wEX8pYGpuBCDHtxzDtaOAnLM9GEINuP_wNVnpk2TI6IYHiHKA9BhP1FbxIQn96JeukUupXd2CzCZyC98hoUuDjQhZoedyoxdg9PCQyksllgBRw
p945
sVheight
p946
I314
sa(dp947
Vwidth
p948
I2048
sVhtml_attributions
p949
(lp950
V<a href="https://plus.google.com/106170335079428053302">Corrie Davidson</a>
p951
asVphoto_reference
p952
VCpQBhgAAABb1VwPdW0F7LsLu_4uygEaKgjKPhLtTNeqN4d_SvdAv6j7Kx2ZedxFFRv5LmQHvhJI8XjTJa9A80qqLbTmPB9Ervcp4ig8j1PwGywEaWG40GNcN9k0jhaZ5mVYuhxeAGBw0HHalJDKfYE0rnQdx3rJr6QTYQpoX6daMnmA6ps1LG4zKetyR_F3q9A60wdLbvhIQfoxdigfubUx-_EF6YAQB1xoUw_igYW035zmUSLDcQi_fP45QVlI
p953
sVheight
p954
I1536
sa(dp955
Vwidth
p956
I2448
sVhtml_attributions
p957
(lp958
V<a href="https://plus.google.com/114499818319322887155">Tyler Inocencio</a>
p959
asVphoto_reference
p960
VCnRoAAAARcaL0VkhZSXjZBqLFLA10gTr8pOKbvSJUzzW9g5LuHj_qEQAOskrR05P5JxqU14FqI6buy4D_btqDSIr_8E-oofsIgyPuCRhfivxjq94rLdwO67PAsaREK8mpG8WvodVXqHUlhuX9FAy6acrfMlYiRIQoAk9H99EXcswpmwo_KeV6xoU-ybGd32Nztl_WalZRvQ-Yh9xm9o
p961
sVheight
p962
I3264
sa(dp963
Vwidth
p964
I1296
sVhtml_attributions
p965
(lp966
V<a href="https://plus.google.com/117454953906757170811">George Fosselius</a>
p967
asVphoto_reference
p968
VCnRtAAAABAbjCDYJ2h-jRz0UWFsdlp2TJak3mrE53HKOFlLbYEHCOL4-3wVBw8HwEROTBhqCjPPIb8zX8sFAMS05LiTv26wMW0Db_ce72CvQfrOQY1DKKe67Myt54BnviLbZOXp-brmj1sf2oxJSF4HW1yaB7hIQ8I4OHVhoGtk90MjexDzt2BoU1C0EJEpD8FB0OS5ito6zfMoR2zg
p969
sVheight
p970
I972
sasVgeometry
p971
(dp972
Vlocation
p973
(dp974
Vlat
p975
F37.778595
sVlng
p976
F-122.38927
sssVadr_address
p977
V<span class="street-address">24 Willie Mays Plaza</span>, <span class="locality">San Francisco</span>, <span class="region">CA</span> <span class="postal-code">94107</span>, <span class="country-name">United States</span>
p978
sVplace_id
p979
VChIJ_T25cNd_j4ARehGmHe0pT84
p980
sVinternational_phone_number
p981
V+1 415-972-2000
p982
sVvicinity
p983
V24 Willie Mays Plaza, San Francisco
p984
sVreviews
p985
(lp986
(dp987
Vrating
p988
I5
sVaspects
p989
(lp990
(dp991
Vrating
p992
I3
sVtype
p993
Voverall
p994
sasVlanguage
p995
Ven
p996
sVtext
p997
VI've been here for Giants baseball game,  concerts, and corporate events. The place is very clean and easy to walk through. During games there's TVs all around the stadium near the the food stands and bathrooms so you don't miss any action. The lines for food may be long, and there's so many so it's not too bad! If you are lucky if you go the Virgin America club level you're treating to a great view of the field and even better access to food and drinks! The club level has so much space including a bowling ball alley, galleries of old baseball bats, etc. Try to take a tour of the place if you can! The garden in the back is a welcome addition.
p998
sVauthor_name
p999
VAprille Espinueva
p1000
sVauthor_url
p1001
Vhttps://plus.google.com/100822860986184584169
p1002
sVtime
p1003
I1413043156
sa(dp1004
Vrating
p1005
I5
sVaspects
p1006
(lp1007
(dp1008
Vrating
p1009
I3
sVtype
p1010
Voverall
p1011
sasVlanguage
p1012
Ven
p1013
sVtext
p1014
VGreat stadium - and in the middle of SOMA as well!  The parking can be a bit annoying though as an FYI.\u000a\u000aThe stadium itself is great - I've only come for Giants games, and I've sat usually in the Virgin Airlines area (there's a separate escalator for this).  I really enjoy the food here - I love the garlic fries and I love how clean this stadium is even though it's been open for some time!  \u000a\u000aIt can get very cold here - most people don't realize how cold San Francisco can get at night without the sun, so definitely bring a jacket!  The wine can be really pricey as well so watch out for that. 
p1015
sVauthor_name
p1016
VSally Zhao
p1017
sVauthor_url
p1018
Vhttps://plus.google.com/112631984024381153921
p1019
sVtime
p1020
I1412978141
sa(dp1021
Vrating
p1022
I5
sVaspects
p1023
(lp1024
(dp1025
Vrating
p1026
I3
sVtype
p1027
Voverall
p1028
sasVlanguage
p1029
Ven
p1030
sVtext
p1031
VBeautiful park, awesome time! We went to the Giants vs. Dodgers game, we're Dodger fans, and people were actually pretty civil, considering how big of a game it was. People were telling me before I went, "try the garlic fries," NASTY!! I only took 6 bites or so, and that's only because they were $8!! I tossed them. And I like garlic. But overall, it was a great experience, pricey, just like any other professional game, but worth it.
p1032
sVauthor_name
p1033
VAmy Blaisdell
p1034
sVauthor_url
p1035
Vhttps://plus.google.com/100327111590932161816
p1036
sVtime
p1037
I1410903632
sa(dp1038
Vrating
p1039
I5
sVaspects
p1040
(lp1041
(dp1042
Vrating
p1043
I3
sVtype
p1044
Voverall
p1045
sasVlanguage
p1046
Ven
p1047
sVtext
p1048
VWhat can I say about AT&T park?! Anywhere you sit or stand is awesome!!! Entertainment galore! I love their crab cake sandwiches and of course, their garlic fries. The best thing about AT&T Park - The San Francisco Giants!!!!
p1049
sVauthor_name
p1050
VSharon Bee
p1051
sVauthor_url
p1052
Vhttps://plus.google.com/112933525571389870098
p1053
sVtime
p1054
I1413243471
sa(dp1055
Vrating
p1056
I5
sVaspects
p1057
(lp1058
(dp1059
Vrating
p1060
I3
sVtype
p1061
Voverall
p1062
sasVlanguage
p1063
Ven
p1064
sVtext
p1065
VMy favorite place in San Francisco. Such a beautiful ballpark with amazing energy. Tons of delicious and unique food options. So much to see and do, you will never be bored. Depending on time of the year you can get tickets for pretty inexpensive. Try the garlic fries!
p1066
sVauthor_name
p1067
VBrendon Nemeth
p1068
sVauthor_url
p1069
Vhttps://plus.google.com/105213255561655655900
p1070
sVtime
p1071
I1413257141
sasVformatted_phone_number
p1072
V(415) 972-2000
p1073
sVurl
p1074
Vhttps://plus.google.com/114995991922311473611/about?hl=en-US
p1075
sVscope
p1076
VGOOGLE
p1077
sVaddress_components
p1078
(lp1079
(dp1080
Vlong_name
p1081
V24
p1082
sVtypes
p1083
(lp1084
Vstreet_number
p1085
asVshort_name
p1086
V24
p1087
sa(dp1088
Vlong_name
p1089
VWillie Mays Plaza
p1090
sVtypes
p1091
(lp1092
Vroute
p1093
asVshort_name
p1094
VWillie Mays Plaza
p1095
sa(dp1096
Vlong_name
p1097
VSan Francisco
p1098
sVtypes
p1099
(lp1100
Vlocality
p1101
aVpolitical
p1102
asVshort_name
p1103
VSF
p1104
sa(dp1105
Vlong_name
p1106
VCalifornia
p1107
sVtypes
p1108
(lp1109
Vadministrative_area_level_1
p1110
aVpolitical
p1111
asVshort_name
p1112
VCA
p1113
sa(dp1114
Vlong_name
p1115
VUnited States
p1116
sVtypes
p1117
(lp1118
Vcountry
p1119
aVpolitical
p1120
asVshort_name
p1121
VUS
p1122
sa(dp1123
Vlong_name
p1124
V94107
p1125
sVtypes
p1126
(lp1127
Vpostal_code
p1128
asVshort_name
p1129
V94107
p1130
sasVformatted_address
p1131
V24 Willie Mays Plaza, San Francisco, CA 94107, United States
p1132
sVid
p1133
V2fabca457541277971b0bc91a40bbad02ecbb5ba
p1134
sVtypes
p1135
(lp1136
Vstadium
p1137
aVestablishment
p1138
asVicon
p1139
Vhttp://maps.gstatic.com/mapfiles/place_api/icons/stadium-71.png
p1140
ssba(ispot
Spot
p1141
(dp1142
g3
I500
sg4
(dp1143
Vrating
p1144
I4
sVreference
p1145
VCqQBkQAAALrcBmYFm-8ynV-9KkOOfFxRHJf7O7YVfyM3w5v4rNKOKLvZJuJEeHxWeOi9jPNyGD18xQmDIocdJtyvYVQScBIDGejsgH_Wy3FtcdRwdHRwmyVcZ2lEsWVGjll55OPV8SBzaibBm5vIobvp-ECLnJdywCpm7zXRQa5TIqk1MsXOv4ZU5nAiWgj9neNipvpdQj75666xDjfQA8QHZQHSe6oSEA6eJDxTxgkOarDd-UqrLswaFBd4x-5Fx9Igewqed0_O5d4I0xrG
p1146
sVprice_level
p1147
I4
sVplace_id
p1148
VChIJ150MH4iAhYARy399PwjhCb4
p1149
sVgeometry
p1150
(dp1151
Vlocation
p1152
(dp1153
Vlat
p1154
F37.788599
sVlng
p1155
F-122.402019
sssVformatted_address
p1156
V2 New Montgomery St, San Francisco, CA 94105, United States
p1157
sVid
p1158
Vf62741e305ade8cf3fab5b364cd7aafb1ce89f58
p1159
sVvicinity
p1160
V2 New Montgomery St, San Francisco
p1161
sVscope
p1162
VGOOGLE
p1163
sVwebsite
p1164
Vhttp://www.sfpalace.com/
p1165
sVutc_offset
p1166
I-480
sVuser_ratings_total
p1167
I196
sVphotos
p1168
(lp1169
(dp1170
Vwidth
p1171
I343
sVhtml_attributions
p1172
(lp1173
sVphoto_reference
p1174
VCnRnAAAAfgazL7PXOroh3L9atPhxbWfjsxMYMtsA815UBHnejxRsADQuNPf5vMBVxVU1IKVKekRJhr0DarERyj2cvG29_5qp9ntdfVjUfh49AVA4BzGSK-OFFDknG7oQ23_xNearmAWvkFL6IamkqPOa0HlJ2xIQ1Q-qXvcU3543IgiyPQpwehoUkPOeZF7jlI-48-K1Iq9q-YU9ZJw
p1175
sVheight
p1176
I230
sa(dp1177
Vwidth
p1178
I343
sVhtml_attributions
p1179
(lp1180
sVphoto_reference
p1181
VCnRqAAAAXZ0ywxs-_H6fbu4h4aD_YWZKg1k8uoWs2mS-PCejH0jBrSJ3-q4gpiyxryG-YAzEjjOLNEsNPoQytpTvtFlIBuBMQn89ib3IbUbGcY20QSdYH4WilgWCN_RGwKrxrmda6v5oPw7UCotjppZmezkIoRIQCQ_IqxYaP_o_-Evw35rRaxoUfjRBwWNV1ZzbNYRYsOouCPWxRCg
p1182
sVheight
p1183
I230
sa(dp1184
Vwidth
p1185
I343
sVhtml_attributions
p1186
(lp1187
sVphoto_reference
p1188
VCnRnAAAAN_D9E_7pWaJ48E-7ZMClz6_TpHH4wzd4IaHZxZ7r4eVTqdmitYkkSkR2AVf11TEeAXtn_xWmQud7vO-jOPAcCK4xa6UXfc9ZuPXWmjMtTjqHSiN5yJ31uEJDVqXmSFdZhG47rW0a_l4XUUlBnHV3WBIQgL6oCjmMJ9pRTe6zP2_bUxoU1Y8MTiTy0f7ZcSdJ53-w1GaoSwY
p1189
sVheight
p1190
I230
sa(dp1191
Vwidth
p1192
I343
sVhtml_attributions
p1193
(lp1194
sVphoto_reference
p1195
VCnRnAAAAwPMm7ONQd27513nW2u3asqRDeZ5N6ttZLpmPcZGTTq8RXKqujfxU47Y3A65nI1YOO8a5IvQma6XlJaPX8ZMsevy3ifxyDvSA1LvjvVAGSRoyYgjmAR6U0woBiEt6uBlJzP0EllZaS2NIkHFEIManCRIQC0zABC001wgRh3zI57PBGhoUAoY_GnZFmIuW-BxcDzP3_6Az3qI
p1196
sVheight
p1197
I230
sa(dp1198
Vwidth
p1199
I343
sVhtml_attributions
p1200
(lp1201
sVphoto_reference
p1202
VCnRnAAAADyIv4ArYozv8X-0ivvNxzfLet5NM9tHHBQr3V5-dKXNuO0ZmIDH9cOs9iorC33j0szi18YKAZY47VaBe8r7vkCrbFEsqqMPoEQgeeFy31CNoQQbCh1lCNEWDzwi1sOKv-iG3HmTON469wVmmZIy5tRIQr28yCT4we8IVWt1CeW0dLRoUd8nJx4d3BW4_sclDe_87eSVA5Vc
p1203
sVheight
p1204
I230
sa(dp1205
Vwidth
p1206
I343
sVhtml_attributions
p1207
(lp1208
sVphoto_reference
p1209
VCnRnAAAAGjDHwmIkJwindxeEKxvbGAzo7zijg1KKSJQEHwZT46-c8ar8jpTvpMWftnh98maLpuV1_Pijq9FlCmN8oYK1a-JTIQqtw88vFoOlgNoO9Ou6qd9lU-oC8Ofzhv8Tbhb8lqhcblx3ek681Rs-QMSY2BIQmjueRKsTBeW0FA-xDO-nuRoUoLC3Kib74zqIDiSMFr6uSV0Ov9E
p1210
sVheight
p1211
I230
sa(dp1212
Vwidth
p1213
I343
sVhtml_attributions
p1214
(lp1215
sVphoto_reference
p1216
VCnRqAAAAaUy2YQxywwrEzFDgLnOLuac92lmmiCDlyoS7iUXLR6QKUb3rAs6y4mmo-mNg_y_EOPPj-vzPFijlKB_gd1rfZr_-gALoMlhlW_y6WQrS4DKQuEJG2_v33kOo7ReSOgg0NbdbZ0DP6bzi4NZB28azexIQCaP0Nq3561RjONVh0wTUOBoUb3zIkvVgI8qpwdnWnVeKNP3SfzY
p1217
sVheight
p1218
I230
sa(dp1219
Vwidth
p1220
I343
sVhtml_attributions
p1221
(lp1222
sVphoto_reference
p1223
VCnRqAAAAslFMqDoefYrlr62LmC9YS2Wkim4RQ9Ou4KNb46oPcl673tgbrlBNF3rXA1lIX3TuLv4dkJ5vumiEH1JoxnVKHRzx0gXtlMfxINxRYAVq2Pw6Z-AZAa94dO-w3CX44FrQBBRw9AEO0TvPmxtxerwhVhIQJq5dRDOqQiy4SrUZeyOVXhoUPpJ00XTr_2nZSOXvJRbrG22kK9E
p1224
sVheight
p1225
I230
sa(dp1226
Vwidth
p1227
I343
sVhtml_attributions
p1228
(lp1229
sVphoto_reference
p1230
VCnRqAAAAkCK37hgqW9Pr7F4D8iWgePJxlXRlqk5zKyJeI_qxUF7RttBRvTluvkYQeKLymLatJOw1_k_2pA6HT3MfUjaaTuOwr81p2140KOY8Ca-n5ljHSNr0IyN3UwdfsmH9UOPGMk266snFToYGuUR9fyO_phIQ_l9fcn3dwAcmKSHbBbia3xoUCCy9Y5puSpJvjG2KA2m7nxcMLuM
p1231
sVheight
p1232
I230
sa(dp1233
Vwidth
p1234
I343
sVhtml_attributions
p1235
(lp1236
sVphoto_reference
p1237
VCnRqAAAA91tRGOv9nKv03qs2GAtLclhB9iljnHHWHL5mHpEWPte78iEULJBK4gH-0b-6jOUk95oYR3sJ4X5T8URTECz1IqGjwYdC-Wb0g6fIs1FuBv3xw21GnbGr2FHZVRPS6IB_S7ccNzQQesA5_jny5R-uJBIQkDdu30jV2hUopsEEiCoJpBoUNJABwoaO0pLiFdwKFOeba8tDvw0
p1238
sVheight
p1239
I230
sasVtypes
p1240
(lp1241
Vlodging
p1242
aVestablishment
p1243
asVicon
p1244
Vhttp://maps.gstatic.com/mapfiles/place_api/icons/lodging-71.png
p1245
sVname
p1246
VPalace Hotel, a Luxury Collection Hotel, San Francisco
p1247
sVurl
p1248
Vhttps://plus.google.com/118209841820254113466/about?hl=en-US
p1249
sVadr_address
p1250
V<span class="street-address">2 New Montgomery St</span>, <span class="locality">San Francisco</span>, <span class="region">CA</span> <span class="postal-code">94105</span>, <span class="country-name">United States</span>
p1251
sVinternational_phone_number
p1252
V+1 415-512-1111
p1253
sVreviews
p1254
(lp1255
(dp1256
Vrating
p1257
I5
sVaspects
p1258
(lp1259
(dp1260
Vrating
p1261
I3
sVtype
p1262
Voverall
p1263
sasVlanguage
p1264
Ven
p1265
sVtext
p1266
VI've only been here for events in the Grand Ballroom and to Tea.  So this review is based on those experiences, which have been superior!  Tea at the Sheraton Palace should be on everyone's bucket list.  The room is over the top elegant, as is the service.  This experience sets you back to another place and time, it is truly a respite from the frantic life we all seem to be rushing around in.  Reservations for tea are a must. 
p1267
sVauthor_name
p1268
VYoni Mayeri
p1269
sVauthor_url
p1270
Vhttps://plus.google.com/105820450885180571966
p1271
sVtime
p1272
I1412953438
sa(dp1273
Vrating
p1274
I5
sVaspects
p1275
(lp1276
(dp1277
Vrating
p1278
I3
sVtype
p1279
Voverall
p1280
sasVlanguage
p1281
Ven
p1282
sVtext
p1283
VThe hotel is beautiful, and the staff is very friendly and helpful.  I recently proposed at the hotel to my girlfriend, and the plan required some coordination with the hotel.  Prior to my arrival I called to coordinate with the hotel, the receptionist connected me with Adriana.  Adriana told me she had me covered. Just to start, she made it possible for me to do the check-in process over the phone and via a secure site so that when I arrived I'd just need to show my ID in exchange for the keycard, and had a bucket of ice placed in the room along with chocolate covered strawberries minutes prior to our timed arrival.  She made the entire experience flawless for me, and extremely special for the two of us.  My fiance was head over heals.  Thank you, Adriana.  We look forward coming back to stay for our anniversaries to come.  
p1284
sVauthor_name
p1285
VDaniel Garzia
p1286
sVauthor_url
p1287
Vhttps://plus.google.com/102573460518502520362
p1288
sVtime
p1289
I1409678518
sa(dp1290
Vrating
p1291
I4
sVaspects
p1292
(lp1293
(dp1294
Vrating
p1295
I2
sVtype
p1296
Voverall
p1297
sasVlanguage
p1298
Ven
p1299
sVtext
p1300
VDon't miss this lobby and restaurant. The food is good. Especially the Sunday Brunch. But just to sit in this three story atrium is the treat. Imagine this was used over 150 years ago. Plus the bar is a throw back to 100 years ago. Enjoy. 
p1301
sVauthor_name
p1302
VTom Flood
p1303
sVauthor_url
p1304
Vhttps://plus.google.com/115575784208091767568
p1305
sVtime
p1306
I1405422502
sa(dp1307
Vrating
p1308
I4
sVaspects
p1309
(lp1310
(dp1311
Vrating
p1312
I2
sVtype
p1313
Voverall
p1314
sasVlanguage
p1315
Ven
p1316
sVtext
p1317
VBeautiful hotel, center of the city. Room was average size with high ceilings, very nice bathroom and comfortable bed. Gorgeous inside the lobby (there was a wedding or something happening during our stay). Lots of traffic getting there to the valet but otherwise great. 
p1318
sVauthor_name
p1319
VShaw Levin
p1320
sVauthor_url
p1321
Vhttps://plus.google.com/117722603808387603069
p1322
sVtime
p1323
I1411845235
sa(dp1324
Vrating
p1325
I5
sVaspects
p1326
(lp1327
(dp1328
Vrating
p1329
I3
sVtype
p1330
Voverall
p1331
sasVlanguage
p1332
Ven
p1333
sVtext
p1334
VBeautiful, well preserved, old Hotel. Other old hotels in this city should take note. Old does not have to mean run down. Class act.
p1335
sVauthor_name
p1336
VJoAnn Gamma
p1337
sVauthor_url
p1338
Vhttps://plus.google.com/110299714971709099718
p1339
sVtime
p1340
I1414738296
sasVformatted_phone_number
p1341
V(415) 512-1111
p1342
sVaddress_components
p1343
(lp1344
(dp1345
Vlong_name
p1346
V2
p1347
sVtypes
p1348
(lp1349
Vstreet_number
p1350
asVshort_name
p1351
V2
p1352
sa(dp1353
Vlong_name
p1354
VNew Montgomery St
p1355
sVtypes
p1356
(lp1357
Vroute
p1358
asVshort_name
p1359
VNew Montgomery St
p1360
sa(dp1361
Vlong_name
p1362
VSouth Beach
p1363
sVtypes
p1364
(lp1365
Vneighborhood
p1366
aVpolitical
p1367
asVshort_name
p1368
VSouth Beach
p1369
sa(dp1370
Vlong_name
p1371
VSan Francisco
p1372
sVtypes
p1373
(lp1374
Vlocality
p1375
aVpolitical
p1376
asVshort_name
p1377
VSF
p1378
sa(dp1379
Vlong_name
p1380
VSan Francisco County
p1381
sVtypes
p1382
(lp1383
Vadministrative_area_level_2
p1384
aVpolitical
p1385
asVshort_name
p1386
VSan Francisco County
p1387
sa(dp1388
Vlong_name
p1389
VCalifornia
p1390
sVtypes
p1391
(lp1392
Vadministrative_area_level_1
p1393
aVpolitical
p1394
asVshort_name
p1395
VCA
p1396
sa(dp1397
Vlong_name
p1398
VUnited States
p1399
sVtypes
p1400
(lp1401
Vcountry
p1402
aVpolitical
p1403
asVshort_name
p1404
VUS
p1405
sa(dp1406
Vlong_name
p1407
V94105
p1408
sVtypes
p1409
(lp1410
Vpostal_code
p1411
asVshort_name
p1412
V94105
p1413
sassba(ispot
Spot
p1414
(dp1415
g3
I500
sg4
(dp1416
Vrating
p1417
F4.3
sVreference
p1418
VCnRoAAAA2mMq9Zb3Lyxiz7LaXVoihzlDJszfn3M-au7ZrOow8c2kj8EmvvhlPmNxSYPN-44eCNSs3g1JPbJQl1nwasAnopaEu92-qUG9MrsNw_ay22NrgjXlJp4uT9xWVz5PC6BwJIR7pnF51Sf1E9dbdWjWvhIQ7WxPNyzfcuwkP6xlqxuK_hoUcl9VFQbzVWvyqKhZe07C39RoLag
p1419
sVplace_id
p1420
VChIJI7NivpmAhYARSuRPlbbn_2w
p1421
sVurl
p1422
Vhttps://plus.google.com/104010277220168946324/about?hl=en-US
p1423
sVformatted_address
p1424
V50 Hagiwara Tea Garden Dr, San Francisco, CA 94118, United States
p1425
sVid
p1426
V2a7464f9faa0b872fcc3132045a4b29e7661f83c
p1427
sVopening_hours
p1428
(dp1429
Vweekday_text
p1430
(lp1431
VMonday: Closed
p1432
aVTuesday: 9:30 am \u2013 5:15 pm
p1433
aVWednesday: 9:30 am \u2013 5:15 pm
p1434
aVThursday: 9:30 am \u2013 5:15 pm
p1435
aVFriday: 9:30 am \u2013 8:45 pm
p1436
aVSaturday: 9:30 am \u2013 5:15 pm
p1437
aVSunday: 9:30 am \u2013 5:15 pm
p1438
asVopen_now
p1439
I00
sVperiods
p1440
(lp1441
(dp1442
Vclose
p1443
(dp1444
Vday
p1445
I0
sVtime
p1446
V1715
p1447
ssVopen
p1448
(dp1449
Vday
p1450
I0
sVtime
p1451
V0930
p1452
ssa(dp1453
Vclose
p1454
(dp1455
Vday
p1456
I2
sVtime
p1457
V1715
p1458
ssVopen
p1459
(dp1460
Vday
p1461
I2
sVtime
p1462
V0930
p1463
ssa(dp1464
Vclose
p1465
(dp1466
Vday
p1467
I3
sVtime
p1468
V1715
p1469
ssVopen
p1470
(dp1471
Vday
p1472
I3
sVtime
p1473
V0930
p1474
ssa(dp1475
Vclose
p1476
(dp1477
Vday
p1478
I4
sVtime
p1479
V1715
p1480
ssVopen
p1481
(dp1482
Vday
p1483
I4
sVtime
p1484
V0930
p1485
ssa(dp1486
Vclose
p1487
(dp1488
Vday
p1489
I5
sVtime
p1490
V2045
p1491
ssVopen
p1492
(dp1493
Vday
p1494
I5
sVtime
p1495
V0930
p1496
ssa(dp1497
Vclose
p1498
(dp1499
Vday
p1500
I6
sVtime
p1501
V1715
p1502
ssVopen
p1503
(dp1504
Vday
p1505
I6
sVtime
p1506
V0930
p1507
ssassVvicinity
p1508
V50 Hagiwara Tea Garden Dr, San Francisco
p1509
sVscope
p1510
VGOOGLE
p1511
sVwebsite
p1512
Vhttp://deyoung.famsf.org/
p1513
sVutc_offset
p1514
I-480
sVuser_ratings_total
p1515
I121
sVphotos
p1516
(lp1517
(dp1518
Vwidth
p1519
I953
sVhtml_attributions
p1520
(lp1521
sVphoto_reference
p1522
VCnRwAAAAnAhQlWOfto5CoIgaDgyOio4ougDuBT4sckU-DymWD8d-dkTP0L7F_jZl9hec_F4icvmSw-_9mZfOvqQwCJP4ZAQb9yV6iEFJhd0duhsXG4GfoEx4pywtHo-d6uqHEV07RE5C8RrCQgtoNow0eHzK0xIQ2CXi2l5fg_fvTQgBozCSuhoUyBY_gLEsXejSPmiDQX5fCdCHuqY
p1523
sVheight
p1524
I953
sa(dp1525
Vwidth
p1526
I2048
sVhtml_attributions
p1527
(lp1528
V<a href="https://plus.google.com/107703067300113514526">Cornelius O&#39;Leary Jr</a>
p1529
asVphoto_reference
p1530
VCnRqAAAAixlqECY39j9wKVt28XXEE8euMSD_AMHDYqy3GGiIcZULWSPBbfr7y6c7UpKPvVoP-l8wgpYejnjgcISAo7BihLqS-8BGRWvgzQAIXH7RbkPf0O0jQiiX_bpEx7-UA80ZuY7z7l8ZBdj7zcw04XO2ixIQG_uySOOfuIdukEQWR5XECBoU4j306G1rgdbHKv340f3-rhMrCck
p1531
sVheight
p1532
I1361
sa(dp1533
Vwidth
p1534
I1984
sVhtml_attributions
p1535
(lp1536
V<a href="https://plus.google.com/113173931251785215708">Henning Nielsen</a>
p1537
asVphoto_reference
p1538
VCnRqAAAAW7vflc4oBsp_Opja_0h0vlcvraq7GPmNDXiJ7KxrUoe8XPIIgmG0TY0w4VrbDWneINW1EK-Y4z40CxIAVdl6gMXzgOGA3xPmuvsZPv4X95oKAnyIELt_Cpgq5WmmNbYZw0Duo1IHVurf2ePQH6E5-RIQPE9sdbU4VV5BNABqYShqGRoUtbbKdwFO85TEDbcuFdEX7pbrJ_8
p1539
sVheight
p1540
I1488
sa(dp1541
Vwidth
p1542
I380
sVhtml_attributions
p1543
(lp1544
V<a href="https://plus.google.com/100146962083959904819">Sarah White</a>
p1545
asVphoto_reference
p1546
VCnRqAAAAEX3bZVxF_9d2jPYZQSDk_mYyYavPbIk3U22yD-pGesO6zZpmgpJd6aT3dwmgM1-TGxlUB0jNMsPf4GMKgXMBYILdSnXkjieYkRBl6Lr7GJ50ADe37601qlOr_DwSyyMn_uDcxYTelqU25qFI2951GxIQCTv0HE6_GTaO1vel5-v06BoU-DAqK4gVofPGochAy61nkIBQwoA
p1547
sVheight
p1548
I276
sa(dp1549
Vwidth
p1550
I2048
sVhtml_attributions
p1551
(lp1552
V<a href="https://plus.google.com/107703067300113514526">Cornelius O&#39;Leary Jr</a>
p1553
asVphoto_reference
p1554
VCnRqAAAAGS6nfI0wahnzuyf5S3V6YhOpRCCweOqgyFJt89ZcAstUf8IQY-iMpKOpm_1IVgLw7m4m1IFQp_hGmoJJQWKKm4wyP_3kmnzZDTpSx9cbF9oDDTKyuvMJZGb80DfiIzsDrCJFJZgkTmllglafjoCOjRIQ9J2aL2qDGEp6cwiElKtxXxoU3fRijp3bzDjmq3UXyCJzrEk_6Q8
p1555
sVheight
p1556
I1361
sa(dp1557
Vwidth
p1558
I2048
sVhtml_attributions
p1559
(lp1560
V<a href="https://plus.google.com/107703067300113514526">Cornelius O&#39;Leary Jr</a>
p1561
asVphoto_reference
p1562
VCnRqAAAAedhsq0gppfzcupldKXKRhoAZ_pPnxQX4ZFk-_uwa0YuM_Mi__x2_GPvT48TGvNiMer6gj8XGBVzhbbxpphItnJNnY9iS2hglzCcT9P6LZpdcpw3YPQTICqCQ078UJAFuLLW2L7MTe5xjrAnJF2FAzRIQAqaVEmcRX7bKjYHBA3aX-BoUVFYyJLJO4OAMkt9ZefwvOuPeJSE
p1563
sVheight
p1564
I1361
sa(dp1565
Vwidth
p1566
I2048
sVhtml_attributions
p1567
(lp1568
V<a href="https://plus.google.com/107703067300113514526">Cornelius O&#39;Leary Jr</a>
p1569
asVphoto_reference
p1570
VCnRqAAAAqDTjv_r9ij9L1BgU0svao0vUQfpvjxTF2Qlv96q4yeqPhEccxZzgZZVE8vxlVTX2npJYXnS__YGl2tBG-dGssnvinm1fQU1sfsKnfa9olaCLWi7WRZhG4tLDvBme_B03nMmNNFTFAzMikQoUQuiRChIQy6-deJwdAYxUjqlbUqcJ7RoUzjiFOqdKntIQgKwDr8CO_tgj-ls
p1571
sVheight
p1572
I1361
sa(dp1573
Vwidth
p1574
I2048
sVhtml_attributions
p1575
(lp1576
V<a href="https://plus.google.com/107703067300113514526">Cornelius O&#39;Leary Jr</a>
p1577
asVphoto_reference
p1578
VCnRqAAAAh16UQrJlF0zIMKTC4d9d_waxbAJAQG5PeI_ywkjPTMunRd01wnvW8l8tLnrUjRNjgQ4wnDL68P-8MRaRYQupAZ7Ugl5J8a9LQ7Abt41m-c6tFr8k_b9VFG-2ZIhtUehkbzG_2HdjM0DpGAvgyfj8BxIQO_s-sVA7_xuD__RAQ36mYhoUz5EpvUjPimM17jvFUnNu8W6Si-o
p1579
sVheight
p1580
I1361
sa(dp1581
Vwidth
p1582
I2048
sVhtml_attributions
p1583
(lp1584
V<a href="https://plus.google.com/107703067300113514526">Cornelius O&#39;Leary Jr</a>
p1585
asVphoto_reference
p1586
VCnRqAAAAl58V3cSwC08cftI1IRKe6WejkoXQ-5VsZJVxs0VD350lCcQVBXDJ_46pR6H4Lu0zE5oYC0S3crAaKcbi8imN5Jor-RpekCV_j5DSz7V1iWs1OJzabsr0V00LqZaxK13m_joix_WYCFTL_gFgSAmkIxIQHX0ivYw29xtPFSuK9BMR2BoUn1mmtGNJRutm5ErghDQcrbKCVt4
p1587
sVheight
p1588
I1361
sa(dp1589
Vwidth
p1590
I2048
sVhtml_attributions
p1591
(lp1592
V<a href="https://plus.google.com/107703067300113514526">Cornelius O&#39;Leary Jr</a>
p1593
asVphoto_reference
p1594
VCnRqAAAAMn2E1t79mHB07b_zIQtRO1GONE8vGzj012YuBw2_CrT72Gf5lHiGjqUTDmR5ixIprjzpgBYfRwSmNaddHn_nqqxSlAcXwDlpTB60B5mWZN-f-o24tw_3wPbWmTTf0KWrRKvjrWmbS6yWtccO6cJSDBIQiuif5gWKB283AtIUr7KhbBoUeZko9WIc832ViYxXoiuwfe_yQuU
p1595
sVheight
p1596
I1361
sasVtypes
p1597
(lp1598
Vmuseum
p1599
aVestablishment
p1600
asVicon
p1601
Vhttp://maps.gstatic.com/mapfiles/place_api/icons/museum-71.png
p1602
sVname
p1603
Vde Young Museum
p1604
sVgeometry
p1605
(dp1606
Vlocation
p1607
(dp1608
Vlat
p1609
F37.771517
sVlng
p1610
F-122.468733
sssVadr_address
p1611
V<span class="street-address">50 Hagiwara Tea Garden Dr</span>, <span class="locality">San Francisco</span>, <span class="region">CA</span> <span class="postal-code">94118</span>, <span class="country-name">United States</span>
p1612
sVinternational_phone_number
p1613
V+1 415-750-3600
p1614
sVreviews
p1615
(lp1616
(dp1617
Vrating
p1618
I5
sVaspects
p1619
(lp1620
(dp1621
Vrating
p1622
I3
sVtype
p1623
Voverall
p1624
sasVlanguage
p1625
Ven
p1626
sVtext
p1627
VGreat collection of American Art, fantastic location and fun place to visit.  Shows change regularly, the permanent collection of glass, silver and furniture on the second floor is not to be missed. You can take the elevator to the top floor tower and see a 360 degree view of Golden Gate Park, The GG Bridge and all the neighborhoods surrounding the park.  Wonderful gardens around the museum too.  The cafe is super, lots of choices and fast, friendly service; dine inside or take your food to the lovely outdoor tables.  
p1628
sVauthor_name
p1629
VYoni Mayeri
p1630
sVauthor_url
p1631
Vhttps://plus.google.com/105820450885180571966
p1632
sVtime
p1633
I1412362196
sa(dp1634
Vrating
p1635
I5
sVaspects
p1636
(lp1637
(dp1638
Vrating
p1639
I3
sVtype
p1640
Voverall
p1641
sasVlanguage
p1642
Ven
p1643
sVtext
p1644
VI have been to a few major exhibits at this museum and I have to say that it is probably my favorite art museum in San Francisco. The staff here does a great job of presenting their classic collection along with an incredible mixture of popular exhibits and temporary installations that very confidently speak to the zeitgeist of the city. This is an amazing accomplishment. Consider how difficult this must be in a city as cool in San Francisco. But with things like the Warhol exhibit and the Jean Paul Gaultier design timeline tour, the DeYoung maintains its place at the pinnacle of the hyper-cool. Having met the people that work there I can also say that they are truly passionate about translating the method, practice, value, and study of art to their community. This is visible in the balance of fun to academic observation and analysis they have in every showing. There is something here for everyone and it's very presentation and curation is art of an incredible caliber. I could go on.....
p1645
sVauthor_name
p1646
VMisha Metrikin
p1647
sVauthor_url
p1648
Vhttps://plus.google.com/114890117672430115819
p1649
sVtime
p1650
I1413260271
sa(dp1651
Vrating
p1652
I4
sVaspects
p1653
(lp1654
(dp1655
Vrating
p1656
I2
sVtype
p1657
Voverall
p1658
sasVlanguage
p1659
Ven
p1660
sVtext
p1661
VWas lucky enough to visit the O'Keefe exhibit earlier this year and this is museum going at its finest (helped by the fact that the SF MoMa is closed for the next two years so options are currently slim).\u000aOnly giving it four stars since at $25 a pop for admission, this place isn't exactly a bargain. \u000aMake time to visit the Japanese Tea Garden next door and also be sure to go up to the viewing floor for unmatched views of the Presidio and Golden Gate Park.
p1662
sVauthor_name
p1663
VElmer Ayala
p1664
sVauthor_url
p1665
Vhttps://plus.google.com/103969904087092883134
p1666
sVtime
p1667
I1413179353
sa(dp1668
Vrating
p1669
I5
sVaspects
p1670
(lp1671
(dp1672
Vrating
p1673
I3
sVtype
p1674
Voverall
p1675
sasVlanguage
p1676
Ven
p1677
sVtext
p1678
VThe de Young is a beautiful and modern museum. Highly recommended; houses a full collection of African art, Native American textiles, modernism, and more. The tower in the de Young also offers access to an expansive view of both Golden Gate Park and the city.
p1679
sVauthor_name
p1680
VJoyce Tang
p1681
sVauthor_url
p1682
Vhttps://plus.google.com/101092365012450853182
p1683
sVtime
p1684
I1414996654
sa(dp1685
Vrating
p1686
I4
sVaspects
p1687
(lp1688
(dp1689
Vrating
p1690
I2
sVtype
p1691
Voverall
p1692
sasVlanguage
p1693
Ven
p1694
sVtext
p1695
VThis museum has great architecture.   There is a 360 degree overlook in the tower, that is free to access.    The views of the park and bay area are spectacular, but of course dependant on the weather. There are also a sculpture court and maze garden that are free.
p1696
sVauthor_name
p1697
VAnna Hautzinger
p1698
sVauthor_url
p1699
Vhttps://plus.google.com/116136613716129316971
p1700
sVtime
p1701
I1415130977
sasVformatted_phone_number
p1702
V(415) 750-3600
p1703
sVaddress_components
p1704
(lp1705
(dp1706
Vlong_name
p1707
V50
p1708
sVtypes
p1709
(lp1710
Vstreet_number
p1711
asVshort_name
p1712
V50
p1713
sa(dp1714
Vlong_name
p1715
VHagiwara Tea Garden Dr
p1716
sVtypes
p1717
(lp1718
Vroute
p1719
asVshort_name
p1720
VHagiwara Tea Garden Dr
p1721
sa(dp1722
Vlong_name
p1723
VSan Francisco
p1724
sVtypes
p1725
(lp1726
Vlocality
p1727
aVpolitical
p1728
asVshort_name
p1729
VSF
p1730
sa(dp1731
Vlong_name
p1732
VCalifornia
p1733
sVtypes
p1734
(lp1735
Vadministrative_area_level_1
p1736
aVpolitical
p1737
asVshort_name
p1738
VCA
p1739
sa(dp1740
Vlong_name
p1741
VUnited States
p1742
sVtypes
p1743
(lp1744
Vcountry
p1745
aVpolitical
p1746
asVshort_name
p1747
VUS
p1748
sa(dp1749
Vlong_name
p1750
V94118
p1751
sVtypes
p1752
(lp1753
Vpostal_code
p1754
asVshort_name
p1755
V94118
p1756
sassba(ispot
Spot
p1757
(dp1758
g3
I500
sg4
(dp1759
Vwebsite
p1760
Vhttp://sfrecpark.org/destination/telegraph-hill-pioneer-park/coit-tower/
p1761
sVrating
p1762
F4.1
sVutc_offset
p1763
I-480
sVuser_ratings_total
p1764
I441
sVname
p1765
VCoit Tower
p1766
sVreference
p1767
VCnRkAAAAeRYaE0nKyEWjzOxm-5-M5eccXGwJcRDdkQUC99ExXY_mK1cTNS3JLR6ppB0CP0PeYEBhwFYfXuztKhKpQMaG0RdsXqD5Suy6eBJ0rfzyLt3rTWLUFTjBX710rTC5_tB_8zSzUYSBl0m4RiJKpj6KzBIQJPO-5TWyJzszc-CiuGAziRoU7rM0LYiZ7jPZx93Jljjwe3UFA40
p1768
sVgeometry
p1769
(dp1770
Vlocation
p1771
(dp1772
Vlat
p1773
F37.802395
sVlng
p1774
F-122.405822
sssVadr_address
p1775
V<span class="street-address">1 Telegraph Hill Blvd</span>, <span class="locality">San Francisco</span>, <span class="region">CA</span> <span class="postal-code">94133</span>, <span class="country-name">United States</span>
p1776
sVplace_id
p1777
VChIJAQAAQIyAhYARRN3yIQG4hd4
p1778
sVvicinity
p1779
V1 Telegraph Hill Blvd, San Francisco
p1780
sVreviews
p1781
(lp1782
(dp1783
Vrating
p1784
I4
sVaspects
p1785
(lp1786
(dp1787
Vrating
p1788
I2
sVtype
p1789
Voverall
p1790
sasVlanguage
p1791
Ven
p1792
sVtext
p1793
VCoit tower has recently undergone some renovations.  (Thanks National Trust for Historic Preservation)   The WPA murals on the ground floor are freshly cleaned, and present interesting visions of life in the 1930's SF.   The stairs are out of commission, so you have to take the small elevator up.   The views are spectacular, particularly on a clear day.  The view from the ground level parking area is also not bad.   On the way down,  try the steps toward the Embarcadero,  very great insights into lush backyards.
p1794
sVauthor_name
p1795
VAnna Hautzinger
p1796
sVauthor_url
p1797
Vhttps://plus.google.com/116136613716129316971
p1798
sVtime
p1799
I1415218790
sa(dp1800
Vrating
p1801
I4
sVaspects
p1802
(lp1803
(dp1804
Vrating
p1805
I2
sVtype
p1806
Voverall
p1807
sasVlanguage
p1808
Ven
p1809
sVtext
p1810
VAn understated icon of San Francisco. Perched on a rocky hill in the middle of the city's core, this art deco styled tower has impressive views from both it's base and it's viewing platform. Well worth the hike up the hill. Parking anywhere nearby is not going to happen, so take that into account.
p1811
sVauthor_name
p1812
VTyler Harding
p1813
sVauthor_url
p1814
Vhttps://plus.google.com/110357160824479158301
p1815
sVtime
p1816
I1412053153
sa(dp1817
Vrating
p1818
I4
sVaspects
p1819
(lp1820
(dp1821
Vrating
p1822
I2
sVtype
p1823
Voverall
p1824
sasVlanguage
p1825
Ven
p1826
sVtext
p1827
VAlthough no amazing heights, it's worth a trip if visiting SF.  Tickets are inexpensive and usually a short wait for the elevator ride up.  The inside at the bottom of the tower has beautifully painted murals and the gift shop has all the typical touristy stuff (mugs, maps, shirts, etc).  Depending on your journey to the tower, you can walk to the steep hill from North Beach for added exercise.  \u000aAnd the view from the top is nice, provided it's a clear day!  Pretty small, so be prepared to share windows to look out.
p1828
sVauthor_name
p1829
VLauren Pinheiro
p1830
sVauthor_url
p1831
Vhttps://plus.google.com/106990768782331898857
p1832
sVtime
p1833
I1400785941
sa(dp1834
Vrating
p1835
I5
sVaspects
p1836
(lp1837
(dp1838
Vrating
p1839
I3
sVtype
p1840
Voverall
p1841
sasVlanguage
p1842
Ven
p1843
sVtext
p1844
VToughed it up the stairs. Enjoyed the view from the base and the stiff breeze. Didn't bother to go to the top. 
p1845
sVauthor_name
p1846
VYvette Skinner
p1847
sVauthor_url
p1848
Vhttps://plus.google.com/116618204309104641755
p1849
sVtime
p1850
I1414728878
sa(dp1851
Vrating
p1852
I5
sVaspects
p1853
(lp1854
(dp1855
Vrating
p1856
I3
sVtype
p1857
Voverall
p1858
sasVlanguage
p1859
Ven
p1860
sVtext
p1861
VOne of, if not best view of city skyline along with both bridges(if no fog, of course) saw one of last full moon eclipses there years ago. Magical it lasted so long. Got a good contact high, too. No rag-weed, for sure.
p1862
sVauthor_name
p1863
VRaymond Alvarez
p1864
sVauthor_url
p1865
Vhttps://plus.google.com/113755175842025386880
p1866
sVtime
p1867
I1405827204
sasVphotos
p1868
(lp1869
(dp1870
Vwidth
p1871
I1268
sVhtml_attributions
p1872
(lp1873
V<a href="https://plus.google.com/116596226154549124014">Kee Wook Lee</a>
p1874
asVphoto_reference
p1875
VCnRoAAAATN_neHlMHl8CSxJ2F1HLEQNZ1d4HeLTr-goJb8tqH3bRLw6s4XdT4eEZy9c0gbCa1aOZd6UpPjkqnrVApkC2BcR_S79asyTAvLlU_a8z2pOvKI_NsPW_xQW_RVnlEs3FQ_n9caIYuciw-LgjYAEpbBIQcdeyY2BE6EK0q0WF7sbn6hoUqo0YFadcYyn-nEmAMOMywLtEd88
p1876
sVheight
p1877
I947
sa(dp1878
Vwidth
p1879
I768
sVhtml_attributions
p1880
(lp1881
VFrom a Google User
p1882
asVphoto_reference
p1883
VCnRqAAAAXPD1bleIUIHttWz3uBwg8z3iOn4zgJfdpI1lOP5T4nc8t0pVbXxpxDxUq7peWbdYjbhhquu-s4lGh6qgdCZ1iDr432TJN15bZx1yB-kK-brsrL-fDOK5CtJRC3QmUKEK5NZDN-C_Ol9G6Wm_s2MY7xIQZIlRyI4RdjzUTeLuCVF4rhoUS58ZvpISlN-KbU58H_xCx-At_v8
p1884
sVheight
p1885
I1024
sa(dp1886
Vwidth
p1887
I4608
sVhtml_attributions
p1888
(lp1889
V<a href="https://plus.google.com/113186450052791933529">Joseph D&#39;Angelo</a>
p1890
asVphoto_reference
p1891
VCnRlAAAAuze7YtsgfqA-Fj8Fl83-BCjaFJ0SzhmPn53PkeU3qOD-CxAPpZ433eW8W2Lui60M1H2cBDNdR6-WVxRE6bpoxWqil5ZHy8h3Gv9N7Mr8yMPYFT8fM5SKhReyl-h0gxevXNVN1KXSVMkAHLgwzUXObhIQJz4P5GPLs25lN6JqxO093RoU7PNqWqkobNpcn3uRLM5Yk88VlNw
p1892
sVheight
p1893
I3456
sa(dp1894
Vwidth
p1895
I1296
sVhtml_attributions
p1896
(lp1897
V<a href="https://plus.google.com/114529464953149651619">Kim Nath</a>
p1898
asVphoto_reference
p1899
VCnRqAAAAJy7rGF2rdzSjnUIlArmiL6fuEc7anLgTQIEF-ti8xsd03VJl9jiOc8ZPbn8naTLT_zGsp5ExgEGJ6B93R0DQNJZE37NIuTFtHlfasmw-mWZBfUkEgjgDAvYL2ASknYx-u0YZjjvsOI-TadMT8NFZOBIQBdR_Ty7Lj3QAdydyAZQphBoUwpcZ8t9p1WWHr83C62EiXBS2b8I
p1900
sVheight
p1901
I776
sa(dp1902
Vwidth
p1903
I2048
sVhtml_attributions
p1904
(lp1905
V<a href="https://plus.google.com/102156534886423108007">Peter Rehberg</a>
p1906
asVphoto_reference
p1907
VCpQBigAAACTgRHSqpUxLhelxNNRr567T_cix_ANRw2LGjSx3qR0zjV10Jr1nau6UaHZeXsooYKYPzjsAu9jZpYeebdFk-2Hnu5-MCymVetkS2BHjtzIYuDcHQg6GFwlFrcS7SLyAOV8SC_58IH2yU2ZScnakdM4zpe4YKBPVB8fn50ig5ClgO-j8nFCKzPLB_3nrBsE5-xIQOzuTrnRiBxfvd2dyb6HrERoUdU2q5XTz92d9SJIpbel1o_4vFO0
p1908
sVheight
p1909
I1362
sa(dp1910
Vwidth
p1911
I768
sVhtml_attributions
p1912
(lp1913
V<a href="https://plus.google.com/108274069435520984069">cesar maldonado</a>
p1914
asVphoto_reference
p1915
VCnRqAAAAqz3_5lNhu878TRq_tDQGfPqWdIrQksf-vEWsP3rEOX3fRtml5olyZFblGoyQYOM526RwLMSdECs2KkDd0KnN8KSXRU8CAX3n3Y2q8ArnDAhNMA6nB95akAQXv7uQa2wx60RRvS5PAiaWCeb_fFhBmRIQ-ea-YYG9SPbrf2ay4n3_cRoUqWh82A4RjVr5bNwAN5q4fOomppM
p1916
sVheight
p1917
I1024
sa(dp1918
Vwidth
p1919
I1866
sVhtml_attributions
p1920
(lp1921
V<a href="https://plus.google.com/113837235805581391057">P Kusserow</a>
p1922
asVphoto_reference
p1923
VCuQB1wAAAFHkBjHuFbByMm0aydmqTmo8gR9mBCHCi542KGMQqnz1NkP-ys54fgcmVtZ660RTrWJk9A-fjDCopAZHBYpwh6VgiT_AmjuAU4DsoFVHFg24u7_tkRIsNd1JYRuAqodP4inzfhmdAe8MWmzWnwURHykS97OTEFDMtGOTb_DYJdPqtR6FT5Jgrxne_Vm9Q0nJJ9okhYlLvrtZfPzstPu8Cc6wsfY2hTWfg57HGR5TSimauM3SWnmnugxJi-z5pEq0979bgomJTOFiXZiZWzzgqeUtf1Cmaa9aMiA-_g_CjM7YEhD3QhxJBKje_O4yUXqjvxLtGhS5LLsCfwZwtSSXY0kT9qV2A5sLzQ
p1924
sVheight
p1925
I2048
sa(dp1926
Vwidth
p1927
I949
sVhtml_attributions
p1928
(lp1929
V<a href="https://plus.google.com/108568994711421183759">Harish S</a>
p1930
asVphoto_reference
p1931
VCnRoAAAAyiiFIkdB3CdCyL8Xfl3MKENjiPktqzrCd6FO8_peOPeAPSITSDF3cU7xIbXNdRf6GGMHCtmXCykjquhVZDMqbCnlDadoTh5VG5sTQtK_vq2V6nLClhkTN03vXvscQ-H1Wg7Jc7Xp0K90A4o7hff-oxIQqeOntpIT6Bdwg5LzAkgsNBoU1XVOiD1uq8GXSDXN3LBoKJEYqgI
p1932
sVheight
p1933
I1265
sa(dp1934
Vwidth
p1935
I2048
sVhtml_attributions
p1936
(lp1937
V<a href="https://plus.google.com/104908431756212890221">Jay E. Jenkins</a>
p1938
asVphoto_reference
p1939
VCrQBowAAAGMPs91XNxhD4091b9BFaSjdO6z2O50o_TUwzjKTRTLQRVQSvqjjPm_A7bBTOYv20UXq9nkicsid0MsmcpBfDlR4xZRmUmL4oOEV-9VkljCLNkEW_DiQ5uBqx_jVTHSUeAAYngpjLocYFVDna25zeXLR0Jye4SzGLluVvT2fXJIv1-M0pgoQXW99kdtjArw5z8brWg7EMj3zaPqrAQLU04-dWxZMdDfnAP9SnM1rQG-uEhAp37LgTrmcvag758HabgQbGhTCc4COlacS2lMPR1m5Kh1w5GsuJQ
p1940
sVheight
p1941
I1468
sa(dp1942
Vwidth
p1943
I512
sVhtml_attributions
p1944
(lp1945
V<a href="https://plus.google.com/106558039864076309587">Fototaker Sf</a>
p1946
asVphoto_reference
p1947
VCnRsAAAAnfTAY4EVTiFxzNLxWXwC-QddeTGCOowJTbw0JV_jWNUQhpmIIGzqVqlrtTTz6_qCFSvKTeJfEYKPw-fnZLYk9E4o2CcdvVoMbpojZhLKY55JLMz6gFbX6u9BH35mQZKlJSOHOMrTwP_64H8EYJ0L-RIQGwvVaLUoudKqmhSpd7XVJhoUM9lxtKN0y2ZvcFng35yCMAqmEcs
p1948
sVheight
p1949
I768
sasVurl
p1950
Vhttps://plus.google.com/101183959756635433266/about?hl=en-US
p1951
sVscope
p1952
VGOOGLE
p1953
sVaddress_components
p1954
(lp1955
(dp1956
Vlong_name
p1957
V1
p1958
sVtypes
p1959
(lp1960
Vstreet_number
p1961
asVshort_name
p1962
V1
p1963
sa(dp1964
Vlong_name
p1965
VTelegraph Hill Blvd
p1966
sVtypes
p1967
(lp1968
Vroute
p1969
asVshort_name
p1970
VTelegraph Hill Blvd
p1971
sa(dp1972
Vlong_name
p1973
VSan Francisco
p1974
sVtypes
p1975
(lp1976
Vlocality
p1977
aVpolitical
p1978
asVshort_name
p1979
VSF
p1980
sa(dp1981
Vlong_name
p1982
VCalifornia
p1983
sVtypes
p1984
(lp1985
Vadministrative_area_level_1
p1986
aVpolitical
p1987
asVshort_name
p1988
VCA
p1989
sa(dp1990
Vlong_name
p1991
VUnited States
p1992
sVtypes
p1993
(lp1994
Vcountry
p1995
aVpolitical
p1996
asVshort_name
p1997
VUS
p1998
sa(dp1999
Vlong_name
p2000
V94133
p2001
sVtypes
p2002
(lp2003
Vpostal_code
p2004
asVshort_name
p2005
V94133
p2006
sasVformatted_address
p2007
V1 Telegraph Hill Blvd, San Francisco, CA 94133, United States
p2008
sVid
p2009
Vb29bfcfc1c01d4fb92de2cb3e5bc1c18fc3fb446
p2010
sVtypes
p2011
(lp2012
Vestablishment
p2013
asVicon
p2014
Vhttp://maps.gstatic.com/mapfiles/place_api/icons/generic_business-71.png
p2015
ssba(ispot
Spot
p2016
(dp2017
g3
I500
sg4
(dp2018
Vrating
p2019
F4.4
sVreference
p2020
VCoQBdwAAANxwRBfth1UgPIPI1Z3LLKhelAc-paBFqVCQX1TUNkitCFfms8kaAyPyb0J9bZ-rLhW9wh2a4fKDo0NrrFr1IqBh5yN-zRl83k7dl6B8u5kyqbmUxSXk80llEDKhUa324qbwVQeFPFn4Z0z5I_HCnnRpJzhzrBnxSwrD9-AmMHvhEhA6yITbsa_wKrO2gFx_ti3rGhRundtYwG3XHLUHDDi7yXOBtG4P-Q
p2021
sVprice_level
p2022
I3
sVplace_id
p2023
VChIJIUT7rEOHhYARucp3wM-HhBs
p2024
sVgeometry
p2025
(dp2026
Vlocation
p2027
(dp2028
Vlat
p2029
F37.769865
sVlng
p2030
F-122.466095
sssVformatted_address
p2031
V55 Music Concourse Dr, San Francisco, CA 94118, United States
p2032
sVid
p2033
Vd920c64674d4af2f684358adccbdf3f04eb70002
p2034
sVopening_hours
p2035
(dp2036
Vweekday_text
p2037
(lp2038
VMonday: 9:30 am \u2013 5:00 pm
p2039
aVTuesday: 9:30 am \u2013 5:00 pm
p2040
aVWednesday: 9:30 am \u2013 5:00 pm
p2041
aVThursday: 9:30 am \u2013 5:00 pm
p2042
aVFriday: 9:30 am \u2013 5:00 pm
p2043
aVSaturday: 9:30 am \u2013 5:00 pm
p2044
aVSunday: 11:00 am \u2013 5:00 pm
p2045
asVopen_now
p2046
I00
sVperiods
p2047
(lp2048
(dp2049
Vclose
p2050
(dp2051
Vday
p2052
I0
sVtime
p2053
V1700
p2054
ssVopen
p2055
(dp2056
Vday
p2057
I0
sVtime
p2058
V1100
p2059
ssa(dp2060
Vclose
p2061
(dp2062
Vday
p2063
I1
sVtime
p2064
V1700
p2065
ssVopen
p2066
(dp2067
Vday
p2068
I1
sVtime
p2069
V0930
p2070
ssa(dp2071
Vclose
p2072
(dp2073
Vday
p2074
I2
sVtime
p2075
V1700
p2076
ssVopen
p2077
(dp2078
Vday
p2079
I2
sVtime
p2080
V0930
p2081
ssa(dp2082
Vclose
p2083
(dp2084
Vday
p2085
I3
sVtime
p2086
V1700
p2087
ssVopen
p2088
(dp2089
Vday
p2090
I3
sVtime
p2091
V0930
p2092
ssa(dp2093
Vclose
p2094
(dp2095
Vday
p2096
I4
sVtime
p2097
V1700
p2098
ssVopen
p2099
(dp2100
Vday
p2101
I4
sVtime
p2102
V0930
p2103
ssa(dp2104
Vclose
p2105
(dp2106
Vday
p2107
I5
sVtime
p2108
V1700
p2109
ssVopen
p2110
(dp2111
Vday
p2112
I5
sVtime
p2113
V0930
p2114
ssa(dp2115
Vclose
p2116
(dp2117
Vday
p2118
I6
sVtime
p2119
V1700
p2120
ssVopen
p2121
(dp2122
Vday
p2123
I6
sVtime
p2124
V0930
p2125
ssassVvicinity
p2126
V55 Music Concourse Dr, San Francisco
p2127
sVscope
p2128
VGOOGLE
p2129
sVwebsite
p2130
Vhttp://www.calacademy.org/
p2131
sVutc_offset
p2132
I-480
sVuser_ratings_total
p2133
I629
sVphotos
p2134
(lp2135
(dp2136
Vwidth
p2137
I640
sVhtml_attributions
p2138
(lp2139
sVphoto_reference
p2140
VCnRnAAAAnpfh_dEC_vplz_ZuLluj1ILg9Oacr1wvWs_I0Fi5YuQSZgjb2dA2P1iQasMZiyKhX0Rj6rDcbxPzIqjWxNDFzrnD9Me6wlnZerVijDoTEA-m9Xi3AxyHyq01c0_9C70JPsQUvAs6IM5-CCrF6JtuEBIQSIcOS1cEBBeMxjxQ1bJN6BoUDNsttpa97ciltTu6wXB9AnTxj_U
p2141
sVheight
p2142
I427
sa(dp2143
Vwidth
p2144
I482
sVhtml_attributions
p2145
(lp2146
sVphoto_reference
p2147
VCnRnAAAArLnwjUJBwfDVs_gIMj4vHSnYqY7OJfwOP5WsTepI2VxuxcXankMCcXRy1431kImI9-JWIvmhlFGSSruEWkYVYb0LqcfIm-7x_1iFqsGfKhH96XIoAoogfLCHrXGzZkmCmmB_T_d5Jq0Jn2wzZW1s6hIQ8fCYct5RALjwmnzAiIIjnBoUy3WD1cD8cAioBtrlCkTYRSISxGg
p2148
sVheight
p2149
I640
sa(dp2150
Vwidth
p2151
I640
sVhtml_attributions
p2152
(lp2153
sVphoto_reference
p2154
VCnRnAAAAklYu1z-ZmCTJ6ULgh8IKop4QU7w12P8GwegRid3VgZ4YkripGuJX6TPitL94-H1pBDqxbV5it2sf3WySqpOYQQgOF2lsfaqo68_ot2XYco3xIJrWy6Vn671yfVM_QCgTUFyWdlidPWYEeLwvYloFjBIQuU37BnOfrR02syJxEci82xoUzTM-rj8dEMSqHV8Kb2Qwo6tvW3I
p2155
sVheight
p2156
I427
sa(dp2157
Vwidth
p2158
I640
sVhtml_attributions
p2159
(lp2160
sVphoto_reference
p2161
VCnRnAAAA5oQSG3VQbRZoz2Bl6JuM1nzHnT0Be25XugXKF4e-dXyBoJIOQ5_Tr5hfsm_Fne09nvhUtXH-dMeybgYFT_JnGeuYMY0-7wFlF0wChf9GsCv4rApZlTwa7yZnFvdyMT9y96pR4qXHBnOcYtu0zdnwAhIQ7s359HsiEYBDSvIXWiJniBoUySpcXDvb4NSRhFbsjSQhEZFHomA
p2162
sVheight
p2163
I427
sa(dp2164
Vwidth
p2165
I640
sVhtml_attributions
p2166
(lp2167
sVphoto_reference
p2168
VCnRnAAAANd6xQVAlzO88XKMJCTFG8WJu1AAP1A57t7_5l64n1aOEtnk7ZCrB_FJsuiFcEF0BKGknO_d9AhV46bZQMl64QStN8u9pmeIroLPTB8k7LxU67wUqNWQZe_i_QABmdm1evZFtinM-DFf24HWNbDlHtBIQgFfJJ2vqxsxI9kUO3PSxrBoUngObSQujeA_X5GvJFq_fXj-vYak
p2169
sVheight
p2170
I457
sa(dp2171
Vwidth
p2172
I640
sVhtml_attributions
p2173
(lp2174
sVphoto_reference
p2175
VCnRnAAAAO0i3cmb_M1SzgEE1iwBDWD9aA7SFcQbf1cQ8GeXM7QWeVKgmJFvx5rNcwUSR9Cfqe6W4ccQ_qvQwHJd6ZiGVFZQK7PLfrY1H4J9QMgIGgG9Ib7z4CJRd5DTF9JvmQPybmWgTWMQlVOhKQGVbdV2SRRIQjrGnJ7qiA7aJ8VHEckOwaRoUnUBGBlp7kYNnbO9NOQZqpb7-K8s
p2176
sVheight
p2177
I480
sa(dp2178
Vwidth
p2179
I562
sVhtml_attributions
p2180
(lp2181
sVphoto_reference
p2182
VCnRnAAAAT4y2gJ7pJX3ouV0b_xrrO7mMx-lZ8nXmTCrW72faXVzwEs-zqQG-L5gH4HIZVkgfd2_-Tav4HoThCEzsHOyXb1Ty25BwdEXhrIPVTHhCO301WhUEFFi3M0DAcz-WwvA6M3LkZfyeGazGT0gdkPK-IBIQ0kEfJ5NyvC4-_GXvKSeR7xoUOT5gEmxxKL8XE504ePrhyw5sKXQ
p2183
sVheight
p2184
I640
sa(dp2185
Vwidth
p2186
I640
sVhtml_attributions
p2187
(lp2188
sVphoto_reference
p2189
VCnRnAAAAyhvWs84rdqlS19WgcW3uqq-tv5p4z0eDeT0WTml8qcP1VUvFpGnRXzSi8Jcd52lY1eEVhqah8H0qUi3XPFexLBk2NT8igHQjgyvfR-F9l1sSid8dq5c9ujc1l0A2mN6KbTPus9vVMt6fvJS8kzT0aBIQ2sw66mld5Ghx6XEU-waOlhoUhdrHoUPXZeoAL22KHdozEtHEmt0
p2190
sVheight
p2191
I443
sa(dp2192
Vwidth
p2193
I2048
sVhtml_attributions
p2194
(lp2195
V<a href="https://plus.google.com/104847770319584345133">Shiraz Siddiqui</a>
p2196
asVphoto_reference
p2197
VCnRqAAAA0f9Yx5hYGNsFaIq9V9RtLxOuz55ZQt9nUu6p51P8OfH3F2CF6nFVdvkziV5OOl-3PfTdNC00cFFMc2rI3Ay2pSHCrQy0vC_A_Eyq4Bk1eGvwhCUlD3O-4kuuIcSCEwi4gLXoq4OILqhUoMaRntfstRIQjC8oWHnAFMkSxOSIQyiRWRoUI3nu6JtZshyQENnt-O7s3jvIL24
p2198
sVheight
p2199
I1536
sa(dp2200
Vwidth
p2201
I533
sVhtml_attributions
p2202
(lp2203
V<a href="https://plus.google.com/116600105708585783882">Edwin Ragadio</a>
p2204
asVphoto_reference
p2205
VCnRmAAAAd1wRt_6HV3IPUDWf1HrFBUCezQF8-qT0cYoa9WkIVfv79UgjkMKJtjvHWfnL0agsqtk91m7aCUDT0yTZPwiHT0uf7hxo81pqCZoCVxujRoIk3E8610F6xN1mhot4Olr-zRTvYXtKRMH6KfYYInGhuhIQpZN90WRPC-_xpYAQiM0DgRoUufO985A5xOc3JYKhpSH0wX4PEBQ
p2206
sVheight
p2207
I400
sasVtypes
p2208
(lp2209
Vaquarium
p2210
aVmuseum
p2211
aVestablishment
p2212
asVicon
p2213
Vhttp://maps.gstatic.com/mapfiles/place_api/icons/aquarium-71.png
p2214
sVname
p2215
VCalifornia Academy of Sciences
p2216
sVurl
p2217
Vhttps://plus.google.com/116851551368109810342/about?hl=en-US
p2218
sVadr_address
p2219
V<span class="street-address">55 Music Concourse Dr</span>, <span class="locality">San Francisco</span>, <span class="region">CA</span> <span class="postal-code">94118</span>, <span class="country-name">United States</span>
p2220
sVinternational_phone_number
p2221
V+1 415-379-8000
p2222
sVreviews
p2223
(lp2224
(dp2225
Vrating
p2226
I5
sVaspects
p2227
(lp2228
(dp2229
Vrating
p2230
I3
sVtype
p2231
Voverall
p2232
sasVlanguage
p2233
Ven
p2234
sVtext
p2235
VThis is one of the best experiences and values in the city.  This has great night time programs for young adults with music and drinks.  During the daytime this museum showcases the diversity of the whole Bay Area.  You get to explore ecology through the wonderful ECO-dome (biosphere).  The planetarium is fabulous and you get to see the pendulum.  Overall great experience and wonderful for both kids and adults.  Buy the year long membership for your best value.
p2236
sVauthor_name
p2237
Vrobert leung
p2238
sVauthor_url
p2239
Vhttps://plus.google.com/115943204529468844278
p2240
sVtime
p2241
I1416256114
sa(dp2242
Vrating
p2243
I4
sVaspects
p2244
(lp2245
(dp2246
Vrating
p2247
I2
sVtype
p2248
Voverall
p2249
sasVlanguage
p2250
Ven
p2251
sVtext
p2252
VThe Academy of sciences has an amazing aquarium complex that takes a long time to explore and see completely. The layout can be a bit confusing at first, but the high quality exhibits and the signage help. I really like their super small mini aquarium showcasing one tiny type of shrimp or crab, they are very detailed and neat.\u000aTheir biosphere/dome is really cool too, it has a lot to see and spend time in. It's a one way trip: when you get in, you look at things, walk to the top, and take an elevator to exit into the aquarium.\u000aI expected more hands-on things but I guess that's for the Exploratorium.\u000aTheir planetarium, while limited in seats (get a pass as soon as you arrive!) is cool. \u000aI went for the 21+ Thursday night events, which are great, and with a theme, but get very very crowded.
p2253
sVauthor_name
p2254
VJulian Fessard
p2255
sVauthor_url
p2256
Vhttps://plus.google.com/112118270664425522168
p2257
sVtime
p2258
I1412989932
sa(dp2259
Vrating
p2260
I5
sVaspects
p2261
(lp2262
(dp2263
Vrating
p2264
I3
sVtype
p2265
Voverall
p2266
sasVlanguage
p2267
Ven
p2268
sVtext
p2269
VUPDATING TO 5 stars!!!\u000aGot to go here for a city experts event... it was amazing! We got to listen to the tank diver talk about the awesome reef tank, and the older lady docent was awesome about telling us about all the fish and the alligators. Now that I'm expecting I can't wait to take my daughter here to watch all the fish swim by in the tanks, then travel to african savanna and see the zebras\u000a\u000aPrevious:\u000aOk so we all go here on field trips as kids and that's a memory that we hold dear. So you can imagine my surprise as an adult when I came here for one of their nightlife events and the whole inside was changed. It was really disorienting, but I do have to say they new design was still really awesome.\u000a\u000aHOWEVER, once I got acclimated to the changes, I actually had a pretty good time. I took glass with me and my favorite part was the tide pools. The staff were awesome and let me record them talking about the starfish. It made my night really special!!\u000a\u000aDefinitely checkout the nightlife events!!! Fish,dancing, & fun how can you go wrong???
p2270
sVauthor_name
p2271
VShauna Mork
p2272
sVauthor_url
p2273
Vhttps://plus.google.com/110513218467589779477
p2274
sVtime
p2275
I1411720448
sa(dp2276
Vrating
p2277
I5
sVaspects
p2278
(lp2279
(dp2280
Vrating
p2281
I3
sVtype
p2282
Voverall
p2283
sasVlanguage
p2284
Ven
p2285
sVtext
p2286
VI dined there last night for the first time and were very happy with the food and the service! He loved the Cioppino with lots of Maine lobster / shrimp / mussels / clams / fish calamari / scallops and shellfish vegetable broth! I loved my Chilean Sea Bass and we both love our Field Greens Salad! We'll be back!
p2287
sVauthor_name
p2288
VElinor Newell
p2289
sVauthor_url
p2290
Vhttps://plus.google.com/106242117275472828307
p2291
sVtime
p2292
I1416251545
sa(dp2293
Vrating
p2294
I5
sVaspects
p2295
(lp2296
(dp2297
Vrating
p2298
I3
sVtype
p2299
Voverall
p2300
sasVlanguage
p2301
Ven
p2302
sVtext
p2303
VThis place is amazing and one of the most impressive places to take a brainy date to. They have these Night-Life events that take place every Thursday and the theme is basically, science meets pop culture, meets a ginger tonic. It is incredibly fun and very hipster approved in my opinion. The drinks are not cheap of course, but the entrance tickets are at only $12 per person. They even have live-ostrich babies! If you can't win date of the year here then you're standing in the wrong museum. OH! and check out the starlight from the living roof exhibit, and get there early to catch the planetarium as it fills up in an instant.
p2304
sVauthor_name
p2305
VMisha Metrikin
p2306
sVauthor_url
p2307
Vhttps://plus.google.com/114890117672430115819
p2308
sVtime
p2309
I1413259773
sasVformatted_phone_number
p2310
V(415) 379-8000
p2311
sVaddress_components
p2312
(lp2313
(dp2314
Vlong_name
p2315
V55
p2316
sVtypes
p2317
(lp2318
Vstreet_number
p2319
asVshort_name
p2320
V55
p2321
sa(dp2322
Vlong_name
p2323
VMusic Concourse Dr
p2324
sVtypes
p2325
(lp2326
Vroute
p2327
asVshort_name
p2328
VMusic Concourse Dr
p2329
sa(dp2330
Vlong_name
p2331
VSan Francisco
p2332
sVtypes
p2333
(lp2334
Vlocality
p2335
aVpolitical
p2336
asVshort_name
p2337
VSF
p2338
sa(dp2339
Vlong_name
p2340
VCalifornia
p2341
sVtypes
p2342
(lp2343
Vadministrative_area_level_1
p2344
aVpolitical
p2345
asVshort_name
p2346
VCA
p2347
sa(dp2348
Vlong_name
p2349
VUnited States
p2350
sVtypes
p2351
(lp2352
Vcountry
p2353
aVpolitical
p2354
asVshort_name
p2355
VUS
p2356
sa(dp2357
Vlong_name
p2358
V94118
p2359
sVtypes
p2360
(lp2361
Vpostal_code
p2362
asVshort_name
p2363
V94118
p2364
sassba(ispot
Spot
p2365
(dp2366
g3
I500
sg4
(dp2367
Vrating
p2368
F3.7
sVreference
p2369
VCoQBegAAANC4u2Pxbb_j0u8gkhhRh0PamI1Z3ZVC8JCsNiD4xQVEm_WG_6qd9IHpUlLFu9GgJ6ccvv1dwTJDXyfyMnqJX1_DIDbWvPjJIdXkBT1no4YzrUq0pqZrIwGNqqzSSudjVoJfIQACaK0eKectOhBJ-lXdfb9kFeSTe0o01bQozKTREhCCwM42OmQAgykrIwh2MKxJGhR1vTxgN1AsPuDZSTwJK-m9WnAM2w
p2370
sVplace_id
p2371
VChIJeSJHoI-AhYARembxZUVcNEk
p2372
sVurl
p2373
Vhttps://plus.google.com/107152743865247750438/about?hl=en-US
p2374
sVformatted_address
p2375
V333 O'Farrell St, San Francisco, CA 94102, United States
p2376
sVid
p2377
Vaaf2a7c4b9188218ab8dcb935cad388ab21ca4ab
p2378
sVopening_hours
p2379
(dp2380
Vweekday_text
p2381
(lp2382
VMonday: Open 24 hours
p2383
aVTuesday: Open 24 hours
p2384
aVWednesday: Open 24 hours
p2385
aVThursday: Open 24 hours
p2386
aVFriday: Open 24 hours
p2387
aVSaturday: Open 24 hours
p2388
aVSunday: Open 24 hours
p2389
asVopen_now
p2390
I01
sVperiods
p2391
(lp2392
(dp2393
Vopen
p2394
(dp2395
Vday
p2396
I0
sVtime
p2397
V0000
p2398
ssassVvicinity
p2399
V333 O'Farrell St, San Francisco
p2400
sVscope
p2401
VGOOGLE
p2402
sVwebsite
p2403
Vhttp://www3.hilton.com/en/hotels/california/hilton-san-francisco-union-square-SFOFHHH/index.html?WT.mc_id=zMKWASR0AA1HN2OLS3GooglePlusBusiness4GPBPT5SFOFHHH
p2404
sVutc_offset
p2405
I-480
sVuser_ratings_total
p2406
I206
sVphotos
p2407
(lp2408
(dp2409
Vwidth
p2410
I2048
sVhtml_attributions
p2411
(lp2412
sVphoto_reference
p2413
VCnRnAAAAuSfP3vLhIGmKotsucrl58_qXTXUSzbnJKUkHOf1HtYtrDofI34701LT3z4-wrY1fnHCUum--E0Al-ekybOEt4RzNHIAgaLTg2040L6mUh52rDt6g2QKkI3_BC2c1cZ7ZroPeS37TyhHll0_ngys6uxIQgcGstpyCt_bgQua24y1xOBoUOYD_ybYEhSZvKX3caIwYje-r6fg
p2414
sVheight
p2415
I1365
sa(dp2416
Vwidth
p2417
I2048
sVhtml_attributions
p2418
(lp2419
sVphoto_reference
p2420
VCnRnAAAAsfwKu6gqqGmOzCATCKAdyQVAZhTJnXup-avULLbVD5-uzTsKdbhrCOH1OqKaOyUHZXfFM-PTGlPGG04AhYdiwm0XXuGkKOAe0FJgYM9zup6yOY9Sd-hYeS4Y3lQXBAy6Dwhr-inJdNaDeLeh-cDQZxIQ967x6V_fqkzw8uzXJhaoBBoUpIzriWMkx6YvpADdN1bDJn5TJjw
p2421
sVheight
p2422
I1365
sa(dp2423
Vwidth
p2424
I1312
sVhtml_attributions
p2425
(lp2426
sVphoto_reference
p2427
VCnRnAAAAdHJPKjpnWCSR5K5hpDRf0t0hlwM9mtbSrVniETzdAnXLDJYtAiBrF43gD3UprJ1dtcM5RtK7CC2dauYrWxcsorVeZoTb5B36eC_pWxbToUxCM6hecbMWIHPioSn0ou9qMrCcLU199Q4xv9ErZ0udkRIQNHFwvZoeLmVV8eTXCKTduhoU3d_RqC8xIgzyeH1CeCJXqfhF1i0
p2428
sVheight
p2429
I2048
sa(dp2430
Vwidth
p2431
I2048
sVhtml_attributions
p2432
(lp2433
sVphoto_reference
p2434
VCnRnAAAAQiXErPvMePIgFsVNUEacOloqRKuKb9vJwoBTvLb8Kb5CnsTiMclU1Q26mGKuRoVfQ-v1zk3cLCDur1P1ICqQk1wjcyYSz0v-UZbl0-TMrRFOiiFPKekAdGbE2Q9fDsf4pd0R7W2NDRdhcYlYYTb_mBIQmsJ0yky_CZbZSPh2mw1VJhoUVtWebUWCbL5NUItxHA5-m8yZ9kE
p2435
sVheight
p2436
I1365
sa(dp2437
Vwidth
p2438
I2048
sVhtml_attributions
p2439
(lp2440
sVphoto_reference
p2441
VCnRnAAAAw3LHs5gXTqMHWLL8gKbA35CFfWp79E0Pb_hfzRYm-ygJKuYB8EbZkvgMlRSmUko-QMBwZLxNg26GrvJ8WupEN0DO57sNsbOxs7Du2QMzTJvR9GnBAVifQBvTZcQTR3huaoxsGd6OOkSvqOjpExtmrBIQIO_-HxkcPh3ff5w0C0h5iBoUzW4pFiljY3S09H3gVXvmaxrW464
p2442
sVheight
p2443
I1365
sa(dp2444
Vwidth
p2445
I2048
sVhtml_attributions
p2446
(lp2447
sVphoto_reference
p2448
VCnRnAAAA8HZ_FIb4z2d5K8APB9y73WdP6MetaRMCC_4v8i_GwWtHl4jQZ2UKc_Q0xIP8qhczdmTNwLPHZp-7h4kjLAEnoz17Dte10mPo03tuvkAjSmwZ1XeXCxh9OcGnrG8NrKkjsLtqt7INDN0kx4KLZDNgERIQ9I02tb-0bLb1dqD7FsxyWhoUXRPfHdnclDGSBTeHKTCDew4YbDc
p2449
sVheight
p2450
I1365
sa(dp2451
Vwidth
p2452
I1280
sVhtml_attributions
p2453
(lp2454
sVphoto_reference
p2455
VCnRnAAAAt4d61HuHFteQWpRi9UjJXpbfryR6h5dbG4SPYDRVIttfeL6TCFijmePzusrN5pGAN5PHyzgSgRkxTLOcAkQeSNLTQhXn3uCmi2sItrEVWCqpx0aPwWxrUkjYjR8tfu5KFt8pqhs8WShhq7pI5Be9-xIQ44VRYjXIk-D1OGl9PehHbhoUXcu0Xb0KIpxLSat7miMyhMhCgoY
p2456
sVheight
p2457
I855
sa(dp2458
Vwidth
p2459
I1280
sVhtml_attributions
p2460
(lp2461
sVphoto_reference
p2462
VCnRnAAAAvE9i_FASsocxwsEFL9hjdRMpMpR_voCv1UgHAapq6JsOYUIO9TrBIfozLjTkT6dnDb8560-UbAZMSspKq1LmriOpgzZeF6wjBjI19qB83S6AU9ndl7NxecLS71t60tygzb6Vz4B3vNGbAA6DxMBsKBIQ7lr2hb3diw1j-YctCd8VxBoUv1gUsCVG0sS4TxPg1Pk7oUFBH4s
p2463
sVheight
p2464
I855
sa(dp2465
Vwidth
p2466
I1280
sVhtml_attributions
p2467
(lp2468
sVphoto_reference
p2469
VCnRnAAAAuq29VWf-Lf5hZoxOMTOmbK2O0ATBEOYPHTqGR7SuynMTg66r7i50PV5_tMN7PyXjB9wQ_mR7_LSKBiXw_NxIlskkH5MCG6rKwpxaXzRKTvFviybLu4Rm5JLZx2aNrLjp7d3f5av5IvsMnLYutfZ0gBIQ45pbbZPdb4G5bqmN4FYZGRoUb4RJtZ5g36jgzYwJY-Acg-_GBtg
p2470
sVheight
p2471
I855
sa(dp2472
Vwidth
p2473
I1280
sVhtml_attributions
p2474
(lp2475
sVphoto_reference
p2476
VCnRnAAAAbbbuN8Y6EZ19BrRPCsBzfHob7DSBVlq8Dq1ZsUjVqAoyZ4e0xOl87NQ6Fv4Zbk5aSa7SNNd7jpojdf529hESex1sPRPUoGMqWWcI8ms-Xllj3Zx4yMIIdW05Yh-iiwMnlXx063Dxg45c77-bdvlUKhIQL2P1fq6IxNA94DF0xo-rexoUZzm36I5W2z2N5eZxZVjKo7Vkp9Y
p2477
sVheight
p2478
I855
sasVtypes
p2479
(lp2480
Vlodging
p2481
aVestablishment
p2482
asVicon
p2483
Vhttp://maps.gstatic.com/mapfiles/place_api/icons/lodging-71.png
p2484
sVname
p2485
VHilton San Francisco Union Square
p2486
sVgeometry
p2487
(dp2488
Vlocation
p2489
(dp2490
Vlat
p2491
F37.785628
sVlng
p2492
F-122.410385
sssVadr_address
p2493
V<span class="street-address">333 O&#39;Farrell St</span>, <span class="locality">San Francisco</span>, <span class="region">CA</span> <span class="postal-code">94102</span>, <span class="country-name">United States</span>
p2494
sVinternational_phone_number
p2495
V+1 415-771-1400
p2496
sVreviews
p2497
(lp2498
(dp2499
Vrating
p2500
I3
sVaspects
p2501
(lp2502
(dp2503
Vrating
p2504
I1
sVtype
p2505
Voverall
p2506
sasVlanguage
p2507
Ven
p2508
sVtext
p2509
VAfter reading some less than stellar reviews, I was preparing for the worst. Thankfully, the harshest thing encountered within the hotel was the dated decorations of the suite (which was quite large, clean, and with a lovely view of San Francisco Bay). The staff was always quick to say hello, and the cleaning ladies were quick to replace pillow feathers after we talked to them about allergy concerns. \u000a\u000aI will echo previous reviewers, and say that the surrounding area (the Tenderloin) is not a nice neighborhood. There are vagrants and questionable characters roaming around, at all hours of the day. \u000a\u000aThe Starbucks within the hotel does charge more than the average chain, and the restaurant there (Urban Tavern) was a nice spot (also reviewed). \u000a\u000aMany people balk at the thought of paying for in-room WiFi, but that was never an issue for us. Connecting to a free, ATT&T hotspot was possible, even from the 43rd floor!
p2510
sVauthor_name
p2511
VNan Carde
p2512
sVauthor_url
p2513
Vhttps://plus.google.com/114777535440994791985
p2514
sVtime
p2515
I1416785471
sa(dp2516
Vrating
p2517
I1
sVaspects
p2518
(lp2519
(dp2520
Vrating
p2521
I0
sVtype
p2522
Voverall
p2523
sasVlanguage
p2524
Ven
p2525
sVtext
p2526
V"Many Bug Bites" & "Incapable Manager & Management"\u000a\u000aI stayed at this hotel from Nov 8th - 13th for business. When I woke up on the morning of Nov 10th, I noticed a bug bite bigger than the size of a quarter on my tummy. Because I wasn't very aware of bed bug issues and I was very busy during this trip, I didn't pay enough attention to the bites. Then on Nov 11th, I woke up with 6 bug bites (neck, arms, and tummy); each is no smaller than the size of a quarter. \u000a\u000aI was shocked and reported it to the front desk, and he reported it to the manager. I didn't know if the manager was too busy or what, he didn't come out to talk to me; instead he sent the front desk to change my room and to tell me that the would do a formal report with me in the afternoon, send people for inspection and follow up with me later. I was very busy that morning, and didn't have time to insist seeing the manager. The front desk gave me the keys to the new room and didn't offer any help moving my stuff. I moved my stuff, but I felt like this was not the right way to deal with the issue 'cause it might spread the bugs to the new room through my luggage; but apparently, they didn't care as much as I do. \u000a\u000aLater that afternoon, I called the manager about the security report. However, he seemed to be too busy to remember/care, as when I mentioned this issue, his first response was like what bug bite, which made me feel very disappointed, as I feel like I was being ignored. But anyway, the security finally came, asked me filled out a piece of paper, and left without asking questions.\u000a\u000aI waited till check-out for the manager or somebody to follow up on the inspection, but there was no calls or any official apology. I was really angry, but I didn't want to be rude either, so I asked to see the manager as I was checking out. However, the front the desk told me that all the managers were in a meeting, so I had to leave a note because I had a flight to catch. The manager left me a voice message when I was in the plane. I called him later and left message, but he didn't call me back. I called again today, but it went to the mailbox, which again made me feel like I was being ignored.\u000a\u000aI'm afraid to carry the bugs home, so I tossed away all the un-washable stuff, and spent hours doing laundry after nearly 8 hours of travel across the country!!! I really wish to wash my laptop too (I finally left it outside in my car, hoping that the cold weather here can kill the bugs if there's any)...\u000a\u000aI feel very angry and disappointed right now by their incapable and indifferent response to this whole issue!!! BTW, they charged the same price as a big room after switching me to a smaller one. \u000a\u000aFYI. The rooms that I stayed at are 1-4077 (first 3 nights) and 1-3075 (the last 2 nights). I suggest you stay away from those 2 rooms if you still want to stay in this hotel after you see this.\u000a\u000aGood luck, travelers!
p2527
sVauthor_name
p2528
VJosh Xi
p2529
sVauthor_url
p2530
Vhttps://plus.google.com/108146486311107430763
p2531
sVtime
p2532
I1416278124
sa(dp2533
Vrating
p2534
I1
sVaspects
p2535
(lp2536
(dp2537
Vrating
p2538
I0
sVtype
p2539
Voverall
p2540
sasVlanguage
p2541
Ven
p2542
sVtext
p2543
VWarning! the worst Hilton. i ever stayed. low class service, dirty and things are broken and no one can fixs them. the employee speak and act ,4 stars but they have zero quality.  Very disappointed , we will never stay in this Hilton. I will not recommend this  location. all photos deceiving . The management should review this ho el because it does not represent the Hilton.
p2544
sVauthor_name
p2545
VRemy Lethaby
p2546
sVauthor_url
p2547
Vhttps://plus.google.com/100663971883775825431
p2548
sVtime
p2549
I1417270134
sa(dp2550
Vrating
p2551
I4
sVaspects
p2552
(lp2553
(dp2554
Vrating
p2555
I2
sVtype
p2556
Voverall
p2557
sasVlanguage
p2558
Ven
p2559
sVtext
p2560
VWhat a nice hotel! There are three things that drop this from a five star review to a four star review so let's get those three things over with first: The air vent that was in the corner by the shower had a lot of obvious dust all over it - ew! The other negative was that I had learned from visiting San Francisco that the smoking rule there is that if you go outside to smoke, you have to stand at the curb or if there is no curb in front of the building you have to be at least 15 feet from the door.  Apparently, that doesn't apply here because at the main entrance there were at some points a good 20 people standing right at the door smoking.  It's like welcome to the Hilton! Each time you enter you're greeted with the smell of cigarettes! Um, no thank you! Lastly, the air condition did not work the best in our room.  We would set the thermostat for instance to 74 when it said the current temperature was 76 and then it 40 minutes it would be 77 degrees in the room. Weird! None of my negatives were too big of a deal.\u000a\u000aOkay, now on to the positives: Check-in was pretty smooth, there's rental car garage right across the street so we were able to drop off our car and then just walk to the hotel.  Because we're Hilton Honors members, we got to go that check-in line was a quarter of the length of the regular line and we got lucky again because we got to stay at the newly renovated Hilton Honors members exclusive floor. I noticed the floors color scheme was the same color scheme of the Hilton Honors program branding colors - I thought that was cool! I forget which tower we stayed in but it was the one with the pool and whatever tower that was we were on the top floor of that tower. Whether it is 6 in the morning or midnight, the main (and maybe only - I'm not sure) lobby is always PACKED. That wasn't necessarily an issue for me because whenever I was in the lobby I was always able to find at least one seat and an outlet for charging my phone. Wi-Fi is of course free in the lobby and because we were gold members we got free Wi-Fi in the room. Speaking of Wi-Fi, like all Hilton brand hotels I've ever stayed at, the Wi-Fi is slow and there was no exception here. All the staff members who I encountered throughout my stay were nice.  Another plus was that there was always a lot of security, especially by the elevators and entrance. Here's a weird, random story from when I was here: when I was walking down the hallway from my room to the elevators I could easily hear from one of the rooms what sounded like someone playing the violin. It was extremely loud. Did I mention this was at around 8 in morning!  I would hate to have been in a room on either side or across the hall.  When I went back to my room a half an hour later, I could still hear the violin music. Also as Hilton Honors member, I think only gold and diamond members, we got two vouchers a day to get one free pastry/danish, one free fruit, and one free beverage per voucher from the Starbucks in the lobby.  The line is extremely long but it moves pretty quickly.  The hotel's location was pretty good.  It's located within walking distance of both the Yerba Buena Gardens area and about a 30 minutes or less walk to the Ferry Building area. The pool area was very nice.  When I wen swimming at about 9 am it was practically empty. I was there in July and at that the time the temperature was in the 60s but the pool was heated and comfortable and refreshing. Overall, my stay was good and next time I visit San Francisco I would stay here again.
p2561
sVauthor_name
p2562
VMichael Giskin
p2563
sVauthor_url
p2564
Vhttps://plus.google.com/103832599587201585955
p2565
sVtime
p2566
I1413817325
sa(dp2567
Vrating
p2568
I2
sVaspects
p2569
(lp2570
(dp2571
Vrating
p2572
I0
sVtype
p2573
Voverall
p2574
sasVlanguage
p2575
Ven
p2576
sVtext
p2577
VHilton hotel is fed ex office, the hilton id is garbage ad to psrties thst are said pick thrm up. This toddleetubbs what I go as sees that itd a plscr of suicidal sexual affiliate,  that Pelosi its internet or Medicare services unto others that had or end up titles guardian qualities. Tyrant ldiotic lease situations within thr building code templates they hand bill dea, atf where the places they went, orvsignaled.
p2578
sVauthor_name
p2579
VT.L TUBBS
p2580
sVauthor_url
p2581
Vhttps://plus.google.com/117504501064276275248
p2582
sVtime
p2583
I1413526751
sasVformatted_phone_number
p2584
V(415) 771-1400
p2585
sVaddress_components
p2586
(lp2587
(dp2588
Vlong_name
p2589
V333
p2590
sVtypes
p2591
(lp2592
Vstreet_number
p2593
asVshort_name
p2594
V333
p2595
sa(dp2596
Vlong_name
p2597
VO'Farrell St
p2598
sVtypes
p2599
(lp2600
Vroute
p2601
asVshort_name
p2602
VO'Farrell St
p2603
sa(dp2604
Vlong_name
p2605
VSan Francisco
p2606
sVtypes
p2607
(lp2608
Vlocality
p2609
aVpolitical
p2610
asVshort_name
p2611
VSF
p2612
sa(dp2613
Vlong_name
p2614
VCalifornia
p2615
sVtypes
p2616
(lp2617
Vadministrative_area_level_1
p2618
aVpolitical
p2619
asVshort_name
p2620
VCA
p2621
sa(dp2622
Vlong_name
p2623
VUnited States
p2624
sVtypes
p2625
(lp2626
Vcountry
p2627
aVpolitical
p2628
asVshort_name
p2629
VUS
p2630
sa(dp2631
Vlong_name
p2632
V94102
p2633
sVtypes
p2634
(lp2635
Vpostal_code
p2636
asVshort_name
p2637
V94102
p2638
sassba.