(lp0
(ispot
Spot
p1
(dp2
S'duration'
p3
I100
sS'data'
p4
(dp5
Vname
p6
VBayview
p7
sVreference
p8
VCpQBggAAABSA4lSpzjKT0pCp3w20Pef57-FPeTab1SpW6ue4JD79Wu28QymA3fO4gNSfSdGp7AfDnay8Gg0eYoC3hdmVDw-82CHWPHLbBGF18h6nlhA5U2kYEKJ3FnRfvoE0P87qpyxe8Za2N5CM3Lgzkm2_kb3FTs9Whw1gKnRgajpWpvK-qwFvw1lzThzRY-j24WsCDxIQROtabzxMSfDWRUNB9_3KkhoU5CLKNqzQDAx1E99rfAf10IJzO9w
p9
sVgeometry
p10
(dp11
Vlocation
p12
(dp13
Vlat
p14
F37.730416
sVlng
p15
F-122.384424
ssVviewport
p16
(dp17
Vnortheast
p18
(dp19
Vlat
p20
F37.7522488
sVlng
p21
F-122.3569669
ssVsouthwest
p22
(dp23
Vlat
p24
F37.7083844
sVlng
p25
F-122.4080732
ssssVadr_address
p26
VBayview, <span class="locality">San Francisco</span>, <span class="region">CA</span>, <span class="country-name">USA</span>
p27
sVplace_id
p28
VChIJVTQNsxt_j4ARYEXVGCqV7Mw
p29
sVvicinity
p30
VSan Francisco
p31
sVurl
p32
Vhttps://maps.google.com/maps/place?q=Bayview,+San+Francisco,+CA,+USA&ftid=0x808f7f1bb30d3455:0xccec952a18d54560
p33
sVaddress_components
p34
(lp35
(dp36
Vlong_name
p37
VBayview
p38
sVshort_name
p39
VBayview
p40
sVtypes
p41
(lp42
Vneighborhood
p43
aVpolitical
p44
asa(dp45
Vlong_name
p46
VSan Francisco
p47
sVshort_name
p48
VSF
p49
sVtypes
p50
(lp51
Vlocality
p52
aVpolitical
p53
asa(dp54
Vlong_name
p55
VSan Francisco County
p56
sVshort_name
p57
VSan Francisco County
p58
sVtypes
p59
(lp60
Vadministrative_area_level_2
p61
aVpolitical
p62
asa(dp63
Vlong_name
p64
VCalifornia
p65
sVshort_name
p66
VCA
p67
sVtypes
p68
(lp69
Vadministrative_area_level_1
p70
aVpolitical
p71
asa(dp72
Vlong_name
p73
VUnited States
p74
sVshort_name
p75
VUS
p76
sVtypes
p77
(lp78
Vcountry
p79
aVpolitical
p80
asasVscope
p81
VGOOGLE
p82
sVformatted_address
p83
VBayview, San Francisco, CA, USA
p84
sVid
p85
V918511e2a071071132a372542250079ff49fe0a9
p86
sVtypes
p87
(lp88
Vneighborhood
p89
aVpolitical
p90
asVicon
p91
Vhttp://maps.gstatic.com/mapfiles/place_api/icons/geocode-71.png
p92
ssba(ispot
Spot
p93
(dp94
g3
I50
sg4
(dp95
Vwebsite
p96
Vhttp://www.nps.gov/goga/index.htm
p97
sVrating
p98
F4.7
sVutc_offset
p99
I-480
sVplace_id
p100
VChIJxdYX1GGOhYARiIigVMJ9TOY
p101
sVname
p102
VGolden Gate National Recreation Area
p103
sVreference
p104
VCoQBfgAAAAFw4FmkwTLqDcKY3orXfKEoR2ukLpAVPud7ebOdKUTLwfQeAs2yYd80lAAftCdMmULp4mt-R-lfexiUUJtugmqIT4edYjX1eeW0qst_USFZqYHzgf_QTPgiazfMLdeCHJw_RzchEUYnaQSDHA4lgkDp6SUZVA1Z3S7GR37yJKpQEhBqFiKbyJmpTzWiOJ2Vfe7DGhQcL1LNkZYSmyHNtG1Kf25vlCQ8qg
p105
sVformatted_phone_number
p106
V(415) 561-4700
p107
sVgeometry
p108
(dp109
Vlocation
p110
(dp111
Vlat
p112
F37.834504
sVlng
p113
F-122.504792
sssVadr_address
p114
V<span class="locality">San Francisco</span>, <span class="region">CA</span> <span class="postal-code">94123</span>, <span class="country-name">United States</span>
p115
sVuser_ratings_total
p116
I102
sVinternational_phone_number
p117
V+1 415-561-4700
p118
sVvicinity
p119
VSan Francisco
p120
sVreviews
p121
(lp122
(dp123
Vrating
p124
I5
sVaspects
p125
(lp126
(dp127
Vrating
p128
I3
sVtype
p129
Voverall
p130
sasVlanguage
p131
Ven
p132
sVtext
p133
VGreat hilly cycling with not too many cars. Very windy and steep in places so if you're a novice then take note of the signs that indicate the grade of a hill.
p134
sVauthor_name
p135
VDavid Doherty
p136
sVauthor_url
p137
Vhttps://plus.google.com/101425938795714023572
p138
sVtime
p139
I1410649425
sa(dp140
Vrating
p141
I5
sVaspects
p142
(lp143
(dp144
Vrating
p145
I3
sVtype
p146
Voverall
p147
sasVlanguage
p148
Ven
p149
sVtext
p150
VAbsolutely beautiful, hilly wilderness area just north of the city.  I ran a half marathon here in March and loved it. Lots of hills but wonderful, rewarding views along the ridge-line.  I'm hoping to come back to take some pictures of the city / Sutro tower from here.
p151
sVauthor_name
p152
VMax Heinritz
p153
sVauthor_url
p154
Vhttps://plus.google.com/102217125735823374958
p155
sVtime
p156
I1396213984
sa(dp157
Vrating
p158
I5
sVaspects
p159
(lp160
(dp161
Vrating
p162
I3
sVtype
p163
Voverall
p164
sasVlanguage
p165
Ven
p166
sVtext
p167
VIs one of the best tours and fun in SF.\u000aBotanical Garde, Museums, and beautiful place if you would like have cup of tea in the Japan Garden.
p168
sVauthor_name
p169
VCarol E
p170
sVauthor_url
p171
Vhttps://plus.google.com/106028332943283658842
p172
sVtime
p173
I1403275611
sa(dp174
Vrating
p175
I5
sVaspects
p176
(lp177
(dp178
Vrating
p179
I3
sVtype
p180
Voverall
p181
sasVlanguage
p182
Ven
p183
sVtext
p184
VBeautiful area with some nice hikes that is quite accessible from San Francisco.  Though, if you have time for the trip, mount tam to the north is even nicer.
p185
sVauthor_name
p186
VAndrew Duchi
p187
sVauthor_url
p188
Vhttps://plus.google.com/117034590178289719142
p189
sVtime
p190
I1390611829
sa(dp191
Vrating
p192
I5
sVaspects
p193
(lp194
(dp195
Vrating
p196
I3
sVtype
p197
Vquality
p198
sasVlanguage
p199
Ven
p200
sVtext
p201
VEverytime I come down to the Bay Area, is to show my visiting friends actually how beautiful this area is.\u000aIt's been given a bad rep over the years, mainly to peoples lifestyles. Well lifestyles are a huge part of life, if we can only enjoy ourselves because it matches only the way we think it should be, I suggest you stay home!\u000aSan Francisco has many beautiful places to go; such as any of the old Military Forts, Buildings, parks, museums, scenery for the photo enthuisists..\u000aCome and enjoy the coast line and see history unfold all around you!
p202
sVauthor_name
p203
VEldon Henry
p204
sVauthor_url
p205
Vhttps://plus.google.com/111000134307967374586
p206
sVtime
p207
I1361392098
sasVphotos
p208
(lp209
(dp210
Vwidth
p211
I1280
sVheight
p212
I960
sVphoto_reference
p213
VCnRoAAAA2uw2MtztEKZhHBCbkjO2C0PQkXfhLc9LGddsv97o0Xu13ZvRlM06iTaziyojoXB40waP4FXe5-UUOzIOF70kd4QhFKbrzGnrIB_E3Y-eRH6wFuhTQns3PxP55X8uJ4N_t0w98A7H5mFvYhfrjBV_-hIQCTFq3UySVnP25nloV2sybhoUw3nDpKRmgQILGVTbZefOeMVuNY0
p214
sVhtml_attributions
p215
(lp216
V<a href="https://plus.google.com/111000134307967374586">Eldon Henry</a>
p217
asa(dp218
Vwidth
p219
I1296
sVheight
p220
I972
sVphoto_reference
p221
VCpQBiwAAAAi6XHaNZoN_zK9KTyU59jakIVx9RCHnOr0gN_ApE1wll7DaSz7X12SE1pL9n87XyWXkWvG1uWRpJeHPzCEflurFkXQVXM8T-zhP9EDL1oabnDVAGy4SnyLix69-fTu55cstHXKUaBp9o2KCVoBM-0jPvQGRqg3Qx8UcLNFgMSSEKttWKLXiy-3ezHmKYAjw8RIQEEZFQcQQWrtxPFrsuBvh4xoUSRpkbY0x1LjGsDPGOY1PeDFpPXU
p222
sVhtml_attributions
p223
(lp224
VFrom a Google User
p225
asa(dp226
Vwidth
p227
I2000
sVheight
p228
I1125
sVphoto_reference
p229
VCnRoAAAAA_yNvi832QFYPV5d4RK8dQXdFheeTGBr7lkok5DS1S-Vv_FqXfa25qc57TmH0vt_XeYPRlgV5ZOswm8ECUzeQ90I5usH5Qf1mQhyhVj-r04Vhx1baKS5m-YAEo0mS3qbmj0X56i0wEA1FTJKG7V4EhIQEKzuGNB1a79TTit16Vv_QxoU21m2XNpBDzjPXJ9L7AH4djQ9fJA
p230
sVhtml_attributions
p231
(lp232
V<a href="https://plus.google.com/116913548795972454248">Zhongliang Xu</a>
p233
asa(dp234
Vwidth
p235
I1344
sVheight
p236
I760
sVphoto_reference
p237
VCpQBiwAAAOgrreTFEzGrBM4zHHl6CQ9hiaZ0_chG4p__9WdANPCCKYTgq-eGOGmH1wPc620IAvT0voHYnMnuroXSx7jkKNUFe8opcOFpqUMGiKab2plTI0VpSHo8AuTJEl3DJZKjlJQVacEAOceMSEprokD_fuGFpK3CeLFsGVHBwPVjlO2M19qZ9EJxSaH6zSV2JCHBsxIQHoElSBg-GzYz5WEGJK0ocxoURrT7_TVUHCicOkHk0KYOnPzI4co
p238
sVhtml_attributions
p239
(lp240
V<a href="https://plus.google.com/106965600540781805193">Jose C</a>
p241
asa(dp242
Vwidth
p243
I2048
sVheight
p244
I1536
sVphoto_reference
p245
VCnRoAAAAtJURYjJGYILGoKfXvQOzrdoLdEtEEt3uKREJPddFcUDWUpJ5mCukZ48KoAsCVPVTUJMYt5sZLOecOg1zPu2dtGQdk89-jP0Fi9KQM8LgEupGEUDGq9WzWmX4ERB1aFYhm2Rp1KR0iM_UVlCk3zsofBIQKrrePxXyL5WNAghluOZsIhoUO1ynCtSQ-fpckr9e9Es4Qws40do
p246
sVhtml_attributions
p247
(lp248
V<a href="https://plus.google.com/106521304996220499103">Ming Mak</a>
p249
asa(dp250
Vwidth
p251
I1296
sVheight
p252
I972
sVphoto_reference
p253
VCpQBiwAAAKGO6JzJlkNzOZQqrNRBCYVOUrsxx-Mtn4WxzRWxXAei8Dc73n2lEFamgOyGiHicR2JpRy-qgkD6w6y_ljucbMN84AXL4UA5NxhRSeqJUsGKxIzVTx2rO3dr3uTcS-QOd9-vw7CglD7GtBFt5c5lr2tTXbPSeA0-pFVJySu_aAaXG3NRhp5PsOKwz9pI3aBm9RIQ7xm2bxwVfneTo98jlmPT3BoUUHt2HbC3n95LBAn7SdPVKL_wqN0
p254
sVhtml_attributions
p255
(lp256
V<a href="https://plus.google.com/113872060182239393125">Srimahesh Talatam</a>
p257
asa(dp258
Vwidth
p259
I816
sVheight
p260
I459
sVphoto_reference
p261
VCnRoAAAAtwrCL96dVQRqxI7T275VA1kvZmbdgyDNLWJ11wMedBkMVQRmXAqhDAkP89xdeMDPEXJwPERowAZ-_Cy-q5rZTRx5txms9dyvSqDp8hhiE02IngknTWaFXfuEzb0NgC3oLTaoz4YG47I9OUFJbIgrHhIQZa38X3RMGoZhOeKz0a_HXBoUoAZA1k3sXyaghoMbGUQ2Jhnv_aQ
p262
sVhtml_attributions
p263
(lp264
V<a href="https://plus.google.com/113221385464453900204">william vidal</a>
p265
asa(dp266
Vwidth
p267
I1296
sVheight
p268
I972
sVphoto_reference
p269
VCpQBiwAAAKj5huWmZc9h37Ya4dI4YNFutAod9IQy4djEjHs7EGPIEzwZKghdhcqDw6B6BY_pVAgq9C7ftnHBotinPZ55JNBoTA28jYL6qC19u4cjbkvBnW0zVzj837vbX4ZNQMzSezAQ4b0aDcO_P0wbAzMXEQSwCOYuWx2JMa8fx_cmxNVIo5337NUIK5YFyN2EsOcINRIQYl5QtobQ4eJwb34V-2EinxoUFxxqtKgKfbaDiDOEgQ69Akn_g08
p270
sVhtml_attributions
p271
(lp272
V<a href="https://plus.google.com/113872060182239393125">Srimahesh Talatam</a>
p273
asa(dp274
Vwidth
p275
I4128
sVheight
p276
I2322
sVphoto_reference
p277
VCnRoAAAAavn6n3ZjfYWHN85o5zZ7_qPA14mP539-jwQ6Wq3-0Hmp5-4WCF-sZ2sB2HVo323py0jPjj0AkBLWAPCgdUSWzU0BM4m6rCd8uzeeBNAd4FxJUBkVeQACduT_ys_x5G7npxilFwqIGOZND3kMnyL-JBIQ6wX6aTn344d49cTfajKCDxoUuwAdbC9jHxxc40uNkqPnoYbnSac
p278
sVhtml_attributions
p279
(lp280
VFrom a Google User
p281
asa(dp282
Vwidth
p283
I4000
sVheight
p284
I3000
sVphoto_reference
p285
VCnRvAAAAzmQQ37vMCi0K3_o69qhGLw7jJ4w9Zl7t5QQQPXJLpD_PE-5e2TIfx8k8MY_xCGP_6M3rVLw4Huap9HTDqii4ubxEomhBmS4eobpU8B-RohjVgquobdMXH7w_90_PAlWTbyxkos8PyCIZN3XFfThd7xIQUpH_gk-wszMA3TyTbChXnRoUqrVjq2d-tt0JYSzHJY5bDtZiXXo
p286
sVhtml_attributions
p287
(lp288
V<a href="https://plus.google.com/109363976560217503323">Steven La Vinger</a>
p289
asasVurl
p290
Vhttps://plus.google.com/100583653707384517268/about?hl=en-US
p291
sVaddress_components
p292
(lp293
(dp294
Vlong_name
p295
VSan Francisco
p296
sVshort_name
p297
VSF
p298
sVtypes
p299
(lp300
Vlocality
p301
aVpolitical
p302
asa(dp303
Vlong_name
p304
VCalifornia
p305
sVshort_name
p306
VCA
p307
sVtypes
p308
(lp309
Vadministrative_area_level_1
p310
aVpolitical
p311
asa(dp312
Vlong_name
p313
VUnited States
p314
sVshort_name
p315
VUS
p316
sVtypes
p317
(lp318
Vcountry
p319
aVpolitical
p320
asa(dp321
Vlong_name
p322
V94123
p323
sVshort_name
p324
V94123
p325
sVtypes
p326
(lp327
Vpostal_code
p328
asa(dp329
Vlong_name
p330
V0022
p331
sVshort_name
p332
V0022
p333
sVtypes
p334
(lp335
Vpostal_code_suffix
p336
asasVscope
p337
VGOOGLE
p338
sVformatted_address
p339
VSan Francisco, CA 94123, United States
p340
sVid
p341
Va086663663c933df7081560fc939b31d45bd4df9
p342
sVtypes
p343
(lp344
Vpark
p345
aVestablishment
p346
asVicon
p347
Vhttp://maps.gstatic.com/mapfiles/place_api/icons/generic_business-71.png
p348
ssba(ispot
Spot
p349
(dp350
g3
I150
sg4
(dp351
Vrating
p352
F4.2
sVreference
p353
VCoQBcwAAABrV_lYPqZb3ob7zSdhplUGH-zwJdZ5RtvQdewRlT5I36m8J4t_oZ0eRKVcchpXnmKRmHq-pa7Apwk597si-Zj-Lh-EZLeE80ClfzFXIjgYoW54lTF6eGg2dzsa-6KLl80q8M_dvgZCr_cLQCZeUFfXCPWOiOFdYWL4yr5sGl8JnEhALJFwl8Ul6fcKjTuAieNt4GhST-Je4U84tkk46w9kYYk6qGkRc1A
p354
sVplace_id
p355
VChIJN2S4EI2AhYAR9J4Qeh1U8Aw
p356
sVgeometry
p357
(dp358
Vlocation
p359
(dp360
Vlat
p361
F37.792396
sVlng
p362
F-122.410504
sssVformatted_address
p363
V950 Mason St, San Francisco, CA 94108, United States
p364
sVid
p365
Va9dbcfebeadf2c2e488dd47116305abb181a0cbb
p366
sVopening_hours
p367
(dp368
Vweekday_text
p369
(lp370
VMonday: Open 24 hours
p371
aVTuesday: Open 24 hours
p372
aVWednesday: Open 24 hours
p373
aVThursday: Open 24 hours
p374
aVFriday: Open 24 hours
p375
aVSaturday: Open 24 hours
p376
aVSunday: Open 24 hours
p377
asVopen_now
p378
I01
sVperiods
p379
(lp380
(dp381
Vopen
p382
(dp383
Vday
p384
I0
sVtime
p385
V0000
p386
ssassVvicinity
p387
V950 Mason St, San Francisco
p388
sVscope
p389
VGOOGLE
p390
sVwebsite
p391
Vhttp://www.fairmont.com/san-francisco
p392
sVutc_offset
p393
I-480
sVuser_ratings_total
p394
I212
sVphotos
p395
(lp396
(dp397
Vwidth
p398
I576
sVheight
p399
I574
sVphoto_reference
p400
VCoQBfAAAAC9EakjVtEKmbAWd_nidCdF435F5kNOWz4EwkorYWwGgF9yIr5FnPotZOvPbiumv4Rp353eLdq73XeDykMd7RXvISStmqMLNUAPjEZJjsSW8CUEoHHH14bryfFrR0uqr5AH63MDo-wntwQqdghfVaGGKAk6vLKVILnHoagB35jU4EhC1DFjrSxZbc4hK6B8rIUHVGhQDWl73OhSTRLe8iNYUhKPOo6H04A
p401
sVhtml_attributions
p402
(lp403
sa(dp404
Vwidth
p405
I1190
sVheight
p406
I960
sVphoto_reference
p407
VCnRqAAAAgCAQ4ZPBnHkgA-bqNM4BVHogpmSLnFEelDeHbLEiWzQeLD13cndE4VSWtriH0VvPIJyUIPSigNhAzdn4cS3o65ajonb5GFDxn_iMMeG1ZQ_aFoxFmt18yQiT9ZSeQVGhGEndNECbY4cNLaf__IySERIQ5zj9dIeuXaCUO_naQnCL8xoUJNgCNnDVaW17HOo3QevynWPmQOA
p408
sVhtml_attributions
p409
(lp410
sa(dp411
Vwidth
p412
I1280
sVheight
p413
I645
sVphoto_reference
p414
VCnRnAAAAtM2StV7d5Lfsve6IT45SdZh03_1ZvS62to6FPQMnlQuYgsUsILjS3z8MXO35Zb987D95OhYsQLJe_GA7tJDoGBcCWja7tKgGF9eRqI4ZEqc2Sx4mhx2ROpT5-deJmimJGYUXgfE0DZjgYqJjaNEMrRIQqj9Kqvp0JDxu1W8278uTSxoUqXbMNFWafJdvzKL2Jr_iWMNRZ2o
p415
sVhtml_attributions
p416
(lp417
sa(dp418
Vwidth
p419
I1200
sVheight
p420
I800
sVphoto_reference
p421
VCnRnAAAAQCmKPLe7dnZLuLs7pGpRz8Kq28ODHnEFDhbpdwJtrO7xIzIxwviX69IwaCvxcamsE5ZnQ7yw4K0WQ3Zx_kDhiWQibzySJeB8XWeGdyWiygNUok0Ra1ZCSoxVbHLvREqQ4N2Mned3YODm0_SnqzPkThIQv0gjABOiMlWGvn9h3yAqdhoUITVUvhqeyGzGM3X0u2cvJ6gbu2w
p422
sVhtml_attributions
p423
(lp424
sa(dp425
Vwidth
p426
I1200
sVheight
p427
I800
sVphoto_reference
p428
VCnRnAAAA7cXm_TEYP7VkM_5Tlj28pFtvXd4KhIXUzdzmqNwtWuSFsiI3b59qCMXctbaxX4Y7OVAecCjzWeqtsd_fxCnFdUVyMVLluhr7KqvIG0gi3E8eHNA1EiB38OV8xq_fE8dB0khBQQIFiocOLhPq-rgz3xIQQpsh8boFhcHmLZdMhYKl0RoUs6GKYRY3qofZiEX--6sIG9vP4Bk
p429
sVhtml_attributions
p430
(lp431
sa(dp432
Vwidth
p433
I1200
sVheight
p434
I800
sVphoto_reference
p435
VCnRnAAAACr4ZWHhQG-mF13QHZFf3QfrEAP_dFWTeGuxs47U5mZsPO7sv0i9jjNige1qFjH4SjZAboq9qv9UVHjaf5gPI8-ScOnDhC_5BO0wMWQ2puJtUYQG_52r5AjRIm1CiYIeaa1g0T7sJH2ht2bNrSvXsPhIQT23rycV5XkHl4Tj06Wvb1BoUrAEr4Zl-RFY3pCqVhB8nxH311J4
p436
sVhtml_attributions
p437
(lp438
sa(dp439
Vwidth
p440
I1200
sVheight
p441
I800
sVphoto_reference
p442
VCnRnAAAAknT_UNcDNUwId1QCMK5GzSFIr206FDa0zRVWhVknen-2WbfYDa7OO_XKzkMKFXqyfdxp2VcZPlczuVQlqYrZ9wd-qjeEM0RdfzdOvD-c30qOjWjzySGv8VD7UyHmy10eJAE1om7R7Dg0wLiOyw00fBIQmeNidnXydHKMsq-qAuKVHBoU1Xwe2wjvawQ3LAWCTsR40xGIbGw
p443
sVhtml_attributions
p444
(lp445
sa(dp446
Vwidth
p447
I1200
sVheight
p448
I800
sVphoto_reference
p449
VCnRnAAAAPXaPOoeCvUbs6iYbGyMdOIK7Yb1j-arzgrrL5d7HZ6bFhsOXdzX2Kf1kXbiWCxF31wx25FI78uk69_xT_aZBb_MOtimWbh1f4OUZ8QH5yNAftPWII7FxZNmA8Wz8gd4Mf76kxC_4m6IB5DND1hH77hIQHXeP70SqKn4-Rh_iLXDUQhoUjMQEjtwJduTZWJ5_5l4ZQ4mxLGs
p450
sVhtml_attributions
p451
(lp452
sa(dp453
Vwidth
p454
I1200
sVheight
p455
I902
sVphoto_reference
p456
VCnRnAAAA1Yz4FWGBZSa3xpwI62EKrgIecSfjSOrh2tVaLbZctpTVLzQtWytCK1OTIwAGbhT-RlnmrQXGXc4qpdyoJ-12B3hLcijfsfS_mvVbAkdCgXS19DWNVru4cwr8YJBmuRgIz7NSG3MteooXeaRDDrosiRIQj1_LWK1p94FiJ-dLiXJOHxoU0w_9U-SYk6JBe2vfnJicOFW-diE
p457
sVhtml_attributions
p458
(lp459
sa(dp460
Vwidth
p461
I1280
sVheight
p462
I881
sVphoto_reference
p463
VCnRqAAAAyok9lYcA9O0NfRoasRpS1VFkwlynNKIeF6yYgU6RoT8xEelostYazUUNhV7O4YsDskuEA0-DwDR-vpv-cRACm-lV8n0aHqBo9QpbOnUhdHaF1JXBItX3MQKUCv0oOg4T04fKa4Mv61bPsv6wB6jCaxIQvLGRNb2HFPyAFlNHJW-ZkBoU1GPripoXHngAlxXkTCf-oOnvKwU
p464
sVhtml_attributions
p465
(lp466
sasVtypes
p467
(lp468
Vlodging
p469
aVestablishment
p470
asVicon
p471
Vhttp://maps.gstatic.com/mapfiles/place_api/icons/lodging-71.png
p472
sVname
p473
VThe Fairmont San Francisco
p474
sVurl
p475
Vhttps://plus.google.com/114386282276154448100/about?hl=en-US
p476
sVadr_address
p477
V<span class="street-address">950 Mason St</span>, <span class="locality">San Francisco</span>, <span class="region">CA</span> <span class="postal-code">94108</span>, <span class="country-name">United States</span>
p478
sVinternational_phone_number
p479
V+1 415-772-5000
p480
sVreviews
p481
(lp482
(dp483
Vrating
p484
I5
sVaspects
p485
(lp486
(dp487
Vrating
p488
I3
sVtype
p489
Voverall
p490
sasVlanguage
p491
Ven
p492
sVtext
p493
VThis hotel is stunning. I've only been in the lobby area and to some of the meeting / event rooms. They are flawless and breathtaking. If you're in the area, drop by for a quick peek. If you like grand rooms with a historical feel you will not be disappointed.  
p494
sVauthor_name
p495
VAmy Meyer
p496
sVauthor_url
p497
Vhttps://plus.google.com/102690091571148307715
p498
sVtime
p499
I1407802650
sa(dp500
Vrating
p501
I3
sVaspects
p502
(lp503
(dp504
Vrating
p505
I1
sVtype
p506
Voverall
p507
sasVlanguage
p508
Ven
p509
sVtext
p510
VBeautiful place, especially the main lobby. This continues with renovated, beautiful rooms, and yellow marble bathrooms. Service here is okay, but not up to 'par' as used to Fairmonts. We have stayed at Fairmont in D.C. and NYC, and have always had great experience. Staff here is not as good as typical. Doormen outside seem understaffed, and there are a ton of people standing around. They can't really tell who is coming and going. Front desk with very young girls in the evening, that were not very helpful when I approached with a simple question. Also, it is a little uncomfortable having to break up their huddle around a cell phone. Not a big deal, and probably more a reflection of their age. I just stayed at a hotel for $150/night, and staff was much friendlier and responsive. \u000a\u000aWalls are paper thin, and I can literally hear and understand every word of the neighbor's words. Probably not management's fault, it's an old building.\u000a\u000aI feel bad with negative remarks, but management and staff that do an outstanding job should be rewarded. Had a great time here in SF, however.\u000a\u000a
p511
sVauthor_name
p512
VBrian Modena
p513
sVauthor_url
p514
Vhttps://plus.google.com/116551189392506282628
p515
sVtime
p516
I1406489780
sa(dp517
Vrating
p518
I5
sVaspects
p519
(lp520
(dp521
Vrating
p522
I3
sVtype
p523
Voverall
p524
sasVlanguage
p525
Ven
p526
sVtext
p527
VAs if you're walking back in time\u2026 a beautiful and thoughtfully orchestrated building with a rich history. Had a wonderful time at a fundraiser here recently. The thoughtful and detail oriented architecture was definitely noticed by all. Modernism is a part of our time now, but there is something that is easily appreciated by all when it comes to thoughtfulness- even when it's architecture. Highly recommended for a nice reminder of creativity and beauty from a great period in time. 
p528
sVauthor_name
p529
VLillian Chan
p530
sVauthor_url
p531
Vhttps://plus.google.com/111958487714652939736
p532
sVtime
p533
I1402737720
sa(dp534
Vrating
p535
I5
sVaspects
p536
(lp537
(dp538
Vrating
p539
I3
sVtype
p540
Voverall
p541
sasVlanguage
p542
Ven
p543
sVtext
p544
VStayed here 2 weeks ago, for 5 days. I was SHOCKED!!!! in a good way\u2026. I've stayed at many hotels in San Fran. By far, these rooms were the biggest I've ever seen! And that says a lot for the city by the bay\u2026. Had room to hang all clothes in the closet, and even an extra rack for our luggage. Temperature was well controlled throughout the hotel. Bell service was great, and the people at the front desk were always helpful. The only bad thing is the Valet Parking price. $60 per day is a bit steep, but I probably shouldn't have had a rental car in the city anyway. But I will definitely stay here again on my next trip! Well wort the price!
p545
sVauthor_name
p546
VRobert Peterson
p547
sVauthor_url
p548
Vhttps://plus.google.com/100510007029790173763
p549
sVtime
p550
I1408297701
sa(dp551
Vrating
p552
I1
sVaspects
p553
(lp554
(dp555
Vrating
p556
I0
sVtype
p557
Voverall
p558
sasVlanguage
p559
Ven
p560
sVtext
p561
VCrazy paranoid Security who are rude and accusatory to friends of guests. I went to go visit a friend of mine at night. I couldn't find the room number. Since no hotel staff could be found I asked the only person I could find. The man I asked was part of a painting crew. To my surprise they all spoke Cantonese and barely a word of English. I showed one of the men the room number and with much effort and hand signals the kind Chinese man told me where I could find the room. When I started to turn left instead of right the man shouted out to me. But because of his strong Cantonese accent the "No" sounded like a loud "Uhhhh".  Then from out of nowhere this 6'4" Caucasian man with a thick brown mustache and brown blazer comes out and says, "Why is he YELLING at you?!" I responded saying, "What? Who?" Then the security pointed to the group of Chinese painters. I had no idea what he was talking about because even with the thick Cantonese accent I still heard a "No". I didn't register that anyone was yelling at me. As I tried to process the words of this 41 year old Security guy as hovered his 6'4" 270 lb body over my 5'6" 125lb frame and staring at me as if he was about to beat me up. "Do you have the room number?" he asked. I said yeah. But this Security guy actually looked kinda crazy and I could only guess what he might do to my friend. I mean was stopped for no reason, perhaps this paranoid Security would hurt my friend. Then as I tried to form the words through the intimidation Security man said, "Let's walk this way." Then walked me to the exit as if he was doing a perp walk and walking slightly behind me and so close that he gave me the feeling that if I so much as paused he'd throw me to the ground. When he had me at the exit there was a cab waiting and he watched me get in the cab and stood there staring at me like a mad dog even while I sat in the taxi until it had driven out of sight.  All I wanted to do was see my friend and all my friend wanted was to have a romantic visit with an old girlfriend and the Fairmont Security ruined everything.  
p562
sVauthor_name
p563
VRuby Garcia
p564
sVauthor_url
p565
Vhttps://plus.google.com/105570168439947872947
p566
sVtime
p567
I1404804429
sasVformatted_phone_number
p568
V(415) 772-5000
p569
sVaddress_components
p570
(lp571
(dp572
Vlong_name
p573
V950
p574
sVshort_name
p575
V950
p576
sVtypes
p577
(lp578
Vstreet_number
p579
asa(dp580
Vlong_name
p581
VMason St
p582
sVshort_name
p583
VMason St
p584
sVtypes
p585
(lp586
Vroute
p587
asa(dp588
Vlong_name
p589
VSan Francisco
p590
sVshort_name
p591
VSF
p592
sVtypes
p593
(lp594
Vlocality
p595
aVpolitical
p596
asa(dp597
Vlong_name
p598
VCalifornia
p599
sVshort_name
p600
VCA
p601
sVtypes
p602
(lp603
Vadministrative_area_level_1
p604
aVpolitical
p605
asa(dp606
Vlong_name
p607
VUnited States
p608
sVshort_name
p609
VUS
p610
sVtypes
p611
(lp612
Vcountry
p613
aVpolitical
p614
asa(dp615
Vlong_name
p616
V94108
p617
sVshort_name
p618
V94108
p619
sVtypes
p620
(lp621
Vpostal_code
p622
asassba(ispot
Spot
p623
(dp624
g3
I50
sg4
(dp625
Vrating
p626
F3.9
sVutc_offset
p627
I-480
sVplace_id
p628
VChIJcT5nNoaAhYARVdbyW3zPwus
p629
sVname
p630
VSan Francisco Marriott Marquis
p631
sVreference
p632
VCoQBeAAAANYOSsYI8JgyYy6AgVz6yaP-CqmFtl6KUdv8gofJyomULyrwpHvQwdVwKzaxX2OJvCbB1C6QJm9t1rHLcq1FlrvDMfpWDYLpHNYHRoka6xoIszcpdGFfxK4plxGmq2VVY9rrxrUyAbpjiDarVSdrUIyyemTd2zsytSd9ZfyfMsy4EhCyAS50uMkRZdHX3zdv59rbGhQO0Ak9RRZe4e1Fk0cQsgtroIyfGA
p633
sVformatted_phone_number
p634
V(415) 896-1600
p635
sVgeometry
p636
(dp637
Vlocation
p638
(dp639
Vlat
p640
F37.785232
sVlng
p641
F-122.404387
sssVadr_address
p642
V<span class="street-address">780 Mission St</span>, <span class="locality">San Francisco</span>, <span class="region">CA</span> <span class="postal-code">94103</span>, <span class="country-name">United States</span>
p643
sVuser_ratings_total
p644
I125
sVinternational_phone_number
p645
V+1 415-896-1600
p646
sVvicinity
p647
V780 Mission St, San Francisco
p648
sVreviews
p649
(lp650
(dp651
Vrating
p652
I1
sVaspects
p653
(lp654
(dp655
Vrating
p656
I0
sVtype
p657
Voverall
p658
sasVlanguage
p659
Ven
p660
sVtext
p661
VTo deal with customer service over an reservation issue was the most discriminatory and humiliating telephone event of my life so far two representatives hung up on me ( Iam Marriott rewards member too), made fun of my husband's name started screaming and yelling at me,would not give me her name and she also hung up on me yesterday evening. I will be filing a complaint with the better business admin and Ca Dept of Consumer Affairs.\u000a
p662
sVauthor_name
p663
VLidia Iannicelli
p664
sVauthor_url
p665
Vhttps://plus.google.com/113290576894401125156
p666
sVtime
p667
I1414440405
sa(dp668
Vrating
p669
I4
sVaspects
p670
(lp671
(dp672
Vrating
p673
I2
sVtype
p674
Voverall
p675
sasVlanguage
p676
Ven
p677
sVtext
p678
VEnjoyed the hotel and it's location was superb.  Great customer service.  The only problem was the bellhop service. They were rude and expected a tip for their rudeness. Other than that this hotel was amazing. 
p679
sVauthor_name
p680
VWilliam Birdshead
p681
sVauthor_url
p682
Vhttps://plus.google.com/106070413165326970187
p683
sVtime
p684
I1399848580
sa(dp685
Vrating
p686
I5
sVaspects
p687
(lp688
(dp689
Vrating
p690
I3
sVtype
p691
Voverall
p692
sasVlanguage
p693
Ven
p694
sVtext
p695
VThis is one of my favorite hotels in the City. In the last few times I have stayed there, not only have I received an email from Marriott in advance confirming my arrival, but an email from guest services from the hotel itself asking about any requests I might have. When I arrived I was greeted by a friendly, helpful staff and upgraded to a suite with an incredible view of San Francisco. Every wish I made was granted, and every time I stay there they comment on and appreciate my loyalty. \u000aThis is a well located hotel; walking distance to the Ferry Building and many other attractions. The restaurant is open and friendly, and the view from the appropriately named "View Lounge" is stunning. \u000aAfter leaving the hotel I received another email from guest services wanting to make sure my stay was satisfactory. I was happy to respond that it was beyond satisfactory. \u000aI highly recommend this hotel.
p696
sVauthor_name
p697
VColleen Brennan
p698
sVauthor_url
p699
Vhttps://plus.google.com/109644931818394502043
p700
sVtime
p701
I1405442127
sa(dp702
Vrating
p703
I3
sVaspects
p704
(lp705
(dp706
Vrating
p707
I1
sVtype
p708
Voverall
p709
sasVlanguage
p710
Ven
p711
sVtext
p712
VEarly check-in is not an uncommon thing to request, yet here the evening before my reservation, first I'm told that the phone number in the email is the wrong number, and then told by the hotel that I will need to call the morning of the reservation (at which point I'll be on a plane), and even then it's a 50/50 chance.  Service is what sets great hotels apart from just-ok hotels, and so far Marquis is ranking "just ok".
p713
sVauthor_name
p714
VDustin Mitchell
p715
sVauthor_url
p716
Vhttps://plus.google.com/105883044168332773236
p717
sVtime
p718
I1411346693
sa(dp719
Vrating
p720
I5
sVaspects
p721
(lp722
(dp723
Vrating
p724
I3
sVtype
p725
Voverall
p726
sasVlanguage
p727
Ven
p728
sVtext
p729
VGreat room, comfortable. Possibly the highest-capacity hotel I've ever stayed in; it constantly had people coming and going in the lobby. But my room on the 7th floor was quiet.
p730
sVauthor_name
p731
VJason Long
p732
sVauthor_url
p733
Vhttps://plus.google.com/111193045009768821920
p734
sVtime
p735
I1408335037
sasVphotos
p736
(lp737
(dp738
Vwidth
p739
I610
sVheight
p740
I423
sVphoto_reference
p741
VCnRnAAAAb0iiotRbDezU8BWPnTMQWXAk5ANnYgj-wkMqIA5z6PQKRrOyCU807w_mx_EcTb0puA3W4TeDtAJ5JFZsu_ER6wtjFgsQW-R70k9UVSf0mHsSFk3CNIsAanFajkU3rJaNnJKSsSjhaxjEkxe7k0hQMxIQcJnx3M_H_3ts5Se3_gM0phoUbUiX6FznEYGFdvKvienIdzCdC8M
p742
sVhtml_attributions
p743
(lp744
sa(dp745
Vwidth
p746
I610
sVheight
p747
I423
sVphoto_reference
p748
VCnRnAAAAxyT_iVqIDg9hnEupowL2VY8VYUhSKRAV4q0csslF4SBk7MPX1VWg0WgA98qqCm6nx22dJK9Q4diov3_uTVnHYe7QyT2o8Gqu4yqjMSb-bE8aJ9qIx-lsEBQDDlfWbcXcpZd5mRWC9yAkfBKR9YwsrBIQG-_aNEjBW3CUto5Gki16shoUqAlCMJ67WBsa5pUkazdKzHFvjno
p749
sVhtml_attributions
p750
(lp751
sa(dp752
Vwidth
p753
I610
sVheight
p754
I423
sVphoto_reference
p755
VCnRnAAAAqGfJaA3SrQVQ7CcYpmj_mNEuCsa2IID2uLeULNweZCHOS6fTHmZBvoZH_B6IZKebFiCatrazkaZdG6u4d_pvntX8wJeNq88qRGh9js8nh08uNRN4kDKAxHTrlHw9ZIcSrF2qN3B19BP2_Uhn2l5qFRIQXp2xRK0i0WAG9Hn_hFNP_BoUAjd-chCilsfYbBgeNM5ZVwSbvHI
p756
sVhtml_attributions
p757
(lp758
sa(dp759
Vwidth
p760
I610
sVheight
p761
I423
sVphoto_reference
p762
VCnRnAAAAc7usYfuwbZudjFhtyY1SMAsqmBEhkSJ_RaX9DosLMvtL_7_G2-oHKGmmTu-VtAzglropM2290_9te3UPJHGLqcJhTvzYEMXWeZxMlbrU8XEdC9WAkXzlgS6o3HGVIBJnIe-8Fmdnt05fi3uzKjgT1hIQOjqGnLeThHfjS9YGILe4XBoU94R4LxHDlLj1J0tI9kHh9CO5SSY
p763
sVhtml_attributions
p764
(lp765
sa(dp766
Vwidth
p767
I610
sVheight
p768
I423
sVphoto_reference
p769
VCnRnAAAAGUhmQaVI0D7Q2veyg1KRCY8MiHzYPpK9OBRiLH_-_VSrOSjiv2oh2n77fjfMlDUebi9rkp_qV4ALXs_xiKI_L3NIBKRC48WriZzDfMIJjBvVob9me78WViRdrCmumOJ8JelKHAnq8de90vv8yT8EsxIQ31JJR9MoU0k4lzcaTUhV5RoU7jR--G1_Y4xFxPJUhvLCblm2NeQ
p770
sVhtml_attributions
p771
(lp772
sa(dp773
Vwidth
p774
I610
sVheight
p775
I423
sVphoto_reference
p776
VCnRnAAAAXzhi5pdQDaRmDC6fDHBk1GRCeg2dfsNxg0xICOUUmz9PeDvYPVuB0sdnLiJXkWrQH8vsH4HP9m8DhNH5ciHm3gVwVOl-wsMaK1KksbFLiZreS1ljo1VzxOGni5XZV51Fawy0CGTpLj9CGdwhUUPaUxIQdhszuxDXYTNZEW7M7iZz8RoUySox8mAJ9o57-26j6lt-WhiedGg
p777
sVhtml_attributions
p778
(lp779
sa(dp780
Vwidth
p781
I610
sVheight
p782
I423
sVphoto_reference
p783
VCnRnAAAATJ0GzBRig06y9qz9wB0aCeSi2dePxChHnXleEaUU-MLOMlPlzHUi1GgYJ-mCLhmqAAY7WWhnNBXRJuSz8PzEFSd6J9WmrEl3xVWsluCMO_foEI8kbwYKvsuRNM1g09fmdkHTxFIwhNwG9bjqwLYaEhIQiGDWouydHPbQ9n6KY5wMlRoUJxmBI5sukKyE9FPgIYfJR3kMsu0
p784
sVhtml_attributions
p785
(lp786
sa(dp787
Vwidth
p788
I610
sVheight
p789
I423
sVphoto_reference
p790
VCnRnAAAAW8f4SkO7m8Ysed_-IYNqxxZ0s8hGr-XnCM7s9ke5RMr6UxRtY-KXsiZ1RP8ymq28sAwnWcLPHzdHXKO_5cZ7MQk3zmy89WH8qKmoYytH46iFVRlnuBOB9TDimzK3EDPROc-HemR4B1m1iuoOpZClKxIQWQLy8E9URVEVO4vF8CTMZxoUr58Tb-3IyX8tmj_Eeth-zOqJ0eI
p791
sVhtml_attributions
p792
(lp793
sa(dp794
Vwidth
p795
I610
sVheight
p796
I423
sVphoto_reference
p797
VCpQBhQAAAHP0zddL3TPwnOjLbwcv9TG9uPZ7uwebZIW3Z6_rCE4lFDwME-iCUCr13-8mUA2teh9v26AonXum7vKDox1ue_BVvxxBDyfm1nDeI_xU9KWaLS-DX_u_W67scA3vu99FlyEWTxnSbjMihxsUXf583gtMHuqCL-OX-qrqTAkV4e3_7je-0sn9ESwJ4Uh2cNX98xIQjEUvsUni-ukLIcnwjJH4PRoUIFIutC2nmHqY-6yeCkfm8wH20uc
p798
sVhtml_attributions
p799
(lp800
sa(dp801
Vwidth
p802
I610
sVheight
p803
I423
sVphoto_reference
p804
VCnRnAAAAQ_1yRmuk-4Vu7cp7zhYpN-sLsdMNYJ4bvUX7KXY1kZZFKPQKqCZSo9pG-rKQstK3t3sP84y_GtM1L4JRH_kytHxIi6dYHloGD6vb6xKWqRX2XH5HkB2EJZmoqwIUMUEMCuITuZQVSqRikEx0HuPwcRIQHYQfE5y83-RpOAfjaC2b1xoUOmcXOGyCQ27i018zyEpK4j_6gcU
p805
sVhtml_attributions
p806
(lp807
sasVaddress_components
p808
(lp809
(dp810
Vlong_name
p811
V780
p812
sVshort_name
p813
V780
p814
sVtypes
p815
(lp816
Vstreet_number
p817
asa(dp818
Vlong_name
p819
VMission St
p820
sVshort_name
p821
VMission St
p822
sVtypes
p823
(lp824
Vroute
p825
asa(dp826
Vlong_name
p827
VSan Francisco
p828
sVshort_name
p829
VSF
p830
sVtypes
p831
(lp832
Vlocality
p833
aVpolitical
p834
asa(dp835
Vlong_name
p836
VCalifornia
p837
sVshort_name
p838
VCA
p839
sVtypes
p840
(lp841
Vadministrative_area_level_1
p842
aVpolitical
p843
asa(dp844
Vlong_name
p845
VUnited States
p846
sVshort_name
p847
VUS
p848
sVtypes
p849
(lp850
Vcountry
p851
aVpolitical
p852
asa(dp853
Vlong_name
p854
V94103
p855
sVshort_name
p856
V94103
p857
sVtypes
p858
(lp859
Vpostal_code
p860
asasVurl
p861
Vhttps://plus.google.com/106887444712850191170/about?hl=en-US
p862
sVopening_hours
p863
(dp864
Vweekday_text
p865
(lp866
VMonday: Open 24 hours
p867
aVTuesday: Open 24 hours
p868
aVWednesday: Open 24 hours
p869
aVThursday: Open 24 hours
p870
aVFriday: Open 24 hours
p871
aVSaturday: Open 24 hours
p872
aVSunday: Open 24 hours
p873
asVopen_now
p874
I01
sVperiods
p875
(lp876
(dp877
Vopen
p878
(dp879
Vday
p880
I0
sVtime
p881
V0000
p882
ssassVscope
p883
VGOOGLE
p884
sVformatted_address
p885
V780 Mission St, San Francisco, CA 94103, United States
p886
sVid
p887
Vf007d2f91c0070ebdfec60275baa33623f0b771b
p888
sVtypes
p889
(lp890
Vlodging
p891
aVestablishment
p892
asVicon
p893
Vhttp://maps.gstatic.com/mapfiles/place_api/icons/lodging-71.png
p894
ssba(ispot
Spot
p895
(dp896
g3
I150
sg4
(dp897
Vwebsite
p898
Vhttp://sanfrancisco.giants.mlb.com/sf/ballpark/
p899
sVrating
p900
F4.7
sVutc_offset
p901
I-480
sVplace_id
p902
VChIJ_T25cNd_j4ARehGmHe0pT84
p903
sVname
p904
VAT&T Park
p905
sVreference
p906
VCnRjAAAAO_lwRDmLPCzb2c7bwa-Kz9TivFJXG1sHvIaP4O0pWo02VKDijGqGOtEqAlaMPmpkapPVkE-gtu89aJezNBNXN5ggZy10ISSquQlJTsT0fpBwFDj4uHp0KuCpJc4HQJiOsDiQ63TZy2MGXgcY1jx-ABIQpNqS3dkCnYRh8CZHo4NHOhoUPaC8_R2P28B9HEDy5py739yvyBo
p907
sVformatted_phone_number
p908
V(415) 972-2000
p909
sVgeometry
p910
(dp911
Vlocation
p912
(dp913
Vlat
p914
F37.778595
sVlng
p915
F-122.38927
sssVadr_address
p916
V<span class="street-address">24 Willie Mays Plaza</span>, <span class="locality">San Francisco</span>, <span class="region">CA</span> <span class="postal-code">94107</span>, <span class="country-name">United States</span>
p917
sVuser_ratings_total
p918
I512
sVinternational_phone_number
p919
V+1 415-972-2000
p920
sVvicinity
p921
V24 Willie Mays Plaza, San Francisco
p922
sVreviews
p923
(lp924
(dp925
Vrating
p926
I5
sVaspects
p927
(lp928
(dp929
Vrating
p930
I3
sVtype
p931
Voverall
p932
sasVlanguage
p933
Ven
p934
sVtext
p935
VI've been here for Giants baseball game,  concerts, and corporate events. The place is very clean and easy to walk through. During games there's TVs all around the stadium near the the food stands and bathrooms so you don't miss any action. The lines for food may be long, and there's so many so it's not too bad! If you are lucky if you go the Virgin America club level you're treating to a great view of the field and even better access to food and drinks! The club level has so much space including a bowling ball alley, galleries of old baseball bats, etc. Try to take a tour of the place if you can! The garden in the back is a welcome addition.
p936
sVauthor_name
p937
VAprille Espinueva
p938
sVauthor_url
p939
Vhttps://plus.google.com/100822860986184584169
p940
sVtime
p941
I1413043156
sa(dp942
Vrating
p943
I5
sVaspects
p944
(lp945
(dp946
Vrating
p947
I3
sVtype
p948
Voverall
p949
sasVlanguage
p950
Ven
p951
sVtext
p952
VGreat stadium - and in the middle of SOMA as well!  The parking can be a bit annoying though as an FYI.\u000a\u000aThe stadium itself is great - I've only come for Giants games, and I've sat usually in the Virgin Airlines area (there's a separate escalator for this).  I really enjoy the food here - I love the garlic fries and I love how clean this stadium is even though it's been open for some time!  \u000a\u000aIt can get very cold here - most people don't realize how cold San Francisco can get at night without the sun, so definitely bring a jacket!  The wine can be really pricey as well so watch out for that. 
p953
sVauthor_name
p954
VSally Zhao
p955
sVauthor_url
p956
Vhttps://plus.google.com/112631984024381153921
p957
sVtime
p958
I1412978141
sa(dp959
Vrating
p960
I5
sVaspects
p961
(lp962
(dp963
Vrating
p964
I3
sVtype
p965
Voverall
p966
sasVlanguage
p967
Ven
p968
sVtext
p969
VBeautiful park, awesome time! We went to the Giants vs. Dodgers game, we're Dodger fans, and people were actually pretty civil, considering how big of a game it was. People were telling me before I went, "try the garlic fries," NASTY!! I only took 6 bites or so, and that's only because they were $8!! I tossed them. And I like garlic. But overall, it was a great experience, pricey, just like any other professional game, but worth it.
p970
sVauthor_name
p971
VAmy Blaisdell
p972
sVauthor_url
p973
Vhttps://plus.google.com/100327111590932161816
p974
sVtime
p975
I1410903632
sa(dp976
Vrating
p977
I5
sVaspects
p978
(lp979
(dp980
Vrating
p981
I3
sVtype
p982
Voverall
p983
sasVlanguage
p984
Ven
p985
sVtext
p986
VWhat can I say about AT&T park?! Anywhere you sit or stand is awesome!!! Entertainment galore! I love their crab cake sandwiches and of course, their garlic fries. The best thing about AT&T Park - The San Francisco Giants!!!!
p987
sVauthor_name
p988
VSharon Bee
p989
sVauthor_url
p990
Vhttps://plus.google.com/112933525571389870098
p991
sVtime
p992
I1413243471
sa(dp993
Vrating
p994
I5
sVaspects
p995
(lp996
(dp997
Vrating
p998
I3
sVtype
p999
Voverall
p1000
sasVlanguage
p1001
Ven
p1002
sVtext
p1003
VMy favorite place in San Francisco. Such a beautiful ballpark with amazing energy. Tons of delicious and unique food options. So much to see and do, you will never be bored. Depending on time of the year you can get tickets for pretty inexpensive. Try the garlic fries!
p1004
sVauthor_name
p1005
VBrendon Nemeth
p1006
sVauthor_url
p1007
Vhttps://plus.google.com/105213255561655655900
p1008
sVtime
p1009
I1413257141
sasVphotos
p1010
(lp1011
(dp1012
Vwidth
p1013
I1632
sVheight
p1014
I1224
sVphoto_reference
p1015
VCnRtAAAAsYMhRVsNNoGKR51PtVJE3qTGcSm2Ww0QOzDRoANmY2eXKr49aHROPpFIJnhUvefBZwpDv-T9G0nhj_PMdR0SdpqkDIJk4MvJJRyn1bcKqg6jcafbcffNY0Mb2SStztmGHMf0gSQddSLy5q8qM65rzxIQOIbrZ-cvCG5L9fdCyiPlmRoUmtiZt1UGWf8pEvyUmWd5hpyX96Q
p1016
sVhtml_attributions
p1017
(lp1018
VFrom a Google User
p1019
asa(dp1020
Vwidth
p1021
I2048
sVheight
p1022
I1536
sVphoto_reference
p1023
VCpQBhgAAAPsH7X5bDuoM7dhVQ7WrGjT4L--mfc0UGvtn7Mo35ozqAqCOM4a5tHvsGGMFgYqyFBRd3KjxsWjaTzy9ChowLhivPF5BjZv3YjtnVpMOL8tjbwGLPAjBfX4R2ObCSQfl2r8xt-62V_VubMsS_Vl5qfVmLqDfRUM0ABRp1RJZNiv1QKR4lTI1BcscGrMoYZpvZBIQNAYCVxMEP_W2Q7hPf8HyGhoU7CfeaO7UFnZE3JiwZdCIKh2Cdz8
p1024
sVhtml_attributions
p1025
(lp1026
V<a href="https://plus.google.com/106170335079428053302">Corrie Davidson</a>
p1027
asa(dp1028
Vwidth
p1029
I1024
sVheight
p1030
I768
sVphoto_reference
p1031
VCoQBdgAAADb8ny5gCEwJS6nDfDdjRD15e9SFTtP8HhXx4lv7ZHamE2vd1dV88PfeFdVeE2wqcCXMrIm07eqF6XToa8k6Tlup03Axdikb_KHy8S_ZIIa97y4ldh_ECzAry6Czt-90WKYgEjzm1TvZmIhLCty4pFqfJCQIHYKY9842XFvYyRRuEhCCLK1O-u2ZNJcwIRqTgnynGhRLG7pHAFzPT4wGz0Olzw0XD6mdww
p1032
sVhtml_attributions
p1033
(lp1034
VFrom a Google User
p1035
asa(dp1036
Vwidth
p1037
I2048
sVheight
p1038
I1536
sVphoto_reference
p1039
VCoQBcQAAAPmuChomCC5XxsbL-CJAtjbFgMjQl1kAKqKtOFY_vfW3aUPDE6DztgIoqghFW85J03zaPpwjCFPqvf9XOsUaouRFr8RoMlde6mP2cPRsKbUV6T2ybKlPFER9CZalh_TqP8bQovOT8no6RFKemgmsNMRB8HeS_KjG8SLKyHrsF_tqEhDDbtZqOFdVPRjdutBpOxrfGhQVfLu3ccdlOWywJjQ48_SjyTneYA
p1040
sVhtml_attributions
p1041
(lp1042
V<a href="https://plus.google.com/112095627515954870302">Garrett Messer</a>
p1043
asa(dp1044
Vwidth
p1045
I1280
sVheight
p1046
I960
sVphoto_reference
p1047
VCnRoAAAAqfVsqxdwzq-g9ZwKSfYjoOtCVOOhg0RRLPivUDH5kW-RH5Rv79swnUwOtDFPQ1khhuw1x45gO7y0HoiuASqPu7wwQ6WkauBZj1L-z1XvLa1iHtowvUlLtp8BpBhDgu-5RNV1hocsiOjivKeH4p-ZghIQUH_uDYavx4qf3jx5R8Y2uBoUCNJ0DxTunuHhPeqmC0QCeXB0yMs
p1048
sVhtml_attributions
p1049
(lp1050
V<a href="https://plus.google.com/108152127945250235563">Michael Villalobos Gomez</a>
p1051
asa(dp1052
Vwidth
p1053
I500
sVheight
p1054
I332
sVphoto_reference
p1055
VCnRtAAAAmIY3iWeauGERPaChlZE0cvNUkcfErK87nt7JvI814Oha9AItP_UV-3nI72UPrk8o1mwd_O73W7gXyKLClKlIorKRTUHuVNFTvtiYaeDEROYPLETTmVeblcrjjyPiqWxqu2ZUFcbFW0a2rx3ijYkiIRIQJURMExBbbZ60DovKjf3IfRoUpy8dbFDbZLenO9woQoiXNwn-JOg
p1056
sVhtml_attributions
p1057
(lp1058
V<a href="https://plus.google.com/117701647401983318963">Piero Fusco</a>
p1059
asa(dp1060
Vwidth
p1061
I394
sVheight
p1062
I314
sVphoto_reference
p1063
VCnRtAAAA2lvnkpb0ysFN1wPksPOlk5HVqy9g__couXJAAk75qs4q-Ac3UMVnh4wdjZ7pERx-9s3XxPrusPqYOR4ZnpZDgDLkBfYM-Ee6uof1csBNtpEO0dElE7Wmami7mVCGqF_7G_JtLUtzB2umhxm5xWtJlhIQXDWQcJut_Jkfuw_WrRWMzBoUH3SLaqM8Kz1bqSCX50QkJXKX5qU
p1064
sVhtml_attributions
p1065
(lp1066
VFrom a Google User
p1067
asa(dp1068
Vwidth
p1069
I2048
sVheight
p1070
I1536
sVphoto_reference
p1071
VCpQBhgAAABsI6QvzBorz9terS_mMuMNieA07K-OL0pSdjy2dDlBIUgUkZ_d-Epc_n_WrNpJeGqmw0g0jvehZtyh_V0mTdRxxkmSeXtBXOpNfJsT2x9u97qkZf_irKYD5LBqNgIkSqIuvrtm9t0VogO6X_0chY-fGY6yjnKLtuGROGZYQ7-UdkUBzDrz4sCFCLeA80pWkkBIQ883KZJTWRWWgZioYKp76jxoURdgEYLivxgFyXcudxjhn5evNmTo
p1072
sVhtml_attributions
p1073
(lp1074
V<a href="https://plus.google.com/106170335079428053302">Corrie Davidson</a>
p1075
asa(dp1076
Vwidth
p1077
I2448
sVheight
p1078
I3264
sVphoto_reference
p1079
VCnRoAAAAxDZi_hQR4b4P5Br5zckOymxxCe_ZBcJujRuYgL2Z2QQvlJk3XVGnRtIIsnaPXvInMDwnyaPg6QotXaD5LuYGN4pu90t8c0Oqo5faFGWXtWraIE6C2Gcbm8WeQ5bIliBpspiVsvFuj2ZQK0A7pgRFshIQeneik12o2Oju8ewtgB7BrRoU6PGd0bxTaF6KoK_RSNFnFuKU0qE
p1080
sVhtml_attributions
p1081
(lp1082
V<a href="https://plus.google.com/114499818319322887155">Tyler Inocencio</a>
p1083
asa(dp1084
Vwidth
p1085
I1296
sVheight
p1086
I972
sVphoto_reference
p1087
VCnRtAAAAVfitGDEyBL8-QUI4BQWjGhkVp5JRdmRjCKe2CPYTmXs4CEzu0Xpt_jip5CYLSkNUAF_sbvD2pEC-Fh2cmhbT2pF3eQJqwFY5iq4yHtR_niqAcF0vgNit8qQ_s_5TtbOf2wUca2ELZWyX298h3KkA4hIQkbo8cbKTR_anGY48EWBJ9hoU9Xj7BDI3lkUwicfMgnujM-cfx8A
p1088
sVhtml_attributions
p1089
(lp1090
V<a href="https://plus.google.com/117454953906757170811">George Fosselius</a>
p1091
asasVurl
p1092
Vhttps://plus.google.com/114995991922311473611/about?hl=en-US
p1093
sVaddress_components
p1094
(lp1095
(dp1096
Vlong_name
p1097
V24
p1098
sVshort_name
p1099
V24
p1100
sVtypes
p1101
(lp1102
Vstreet_number
p1103
asa(dp1104
Vlong_name
p1105
VWillie Mays Plaza
p1106
sVshort_name
p1107
VWillie Mays Plaza
p1108
sVtypes
p1109
(lp1110
Vroute
p1111
asa(dp1112
Vlong_name
p1113
VSan Francisco
p1114
sVshort_name
p1115
VSF
p1116
sVtypes
p1117
(lp1118
Vlocality
p1119
aVpolitical
p1120
asa(dp1121
Vlong_name
p1122
VCalifornia
p1123
sVshort_name
p1124
VCA
p1125
sVtypes
p1126
(lp1127
Vadministrative_area_level_1
p1128
aVpolitical
p1129
asa(dp1130
Vlong_name
p1131
VUnited States
p1132
sVshort_name
p1133
VUS
p1134
sVtypes
p1135
(lp1136
Vcountry
p1137
aVpolitical
p1138
asa(dp1139
Vlong_name
p1140
V94107
p1141
sVshort_name
p1142
V94107
p1143
sVtypes
p1144
(lp1145
Vpostal_code
p1146
asasVscope
p1147
VGOOGLE
p1148
sVformatted_address
p1149
V24 Willie Mays Plaza, San Francisco, CA 94107, United States
p1150
sVid
p1151
V2fabca457541277971b0bc91a40bbad02ecbb5ba
p1152
sVtypes
p1153
(lp1154
Vstadium
p1155
aVestablishment
p1156
asVicon
p1157
Vhttp://maps.gstatic.com/mapfiles/place_api/icons/stadium-71.png
p1158
ssba(ispot
Spot
p1159
(dp1160
g3
I200
sg4
(dp1161
Vrating
p1162
I4
sVreference
p1163
VCqQBkQAAANMLArENgYk4g_1TmgTrFDIe8WK_dirr15efvlZetegTuiaR5a-G2u2db0V92TnbAGeDJxHEoZk7j9RL_GvcFUiXluGGnLjVQhnIEFqVvUoo_Br97ADBZ5lvt0ZOAU3NEExrDP3uek3b25CZy4j2aEfgc8GenNADvauNtreaQz5bhIYhUpGPlN9sELvt2wGe1z8PCzSxxVvKWlSlUe9LTxUSEL4FvVsfnT-DeZVm5HyzvokaFIJDDXKXEB3adeNWyrMOaLu-harP
p1164
sVprice_level
p1165
I4
sVplace_id
p1166
VChIJ150MH4iAhYARy399PwjhCb4
p1167
sVformatted_address
p1168
V2 New Montgomery St, San Francisco, CA 94105, United States
p1169
sVid
p1170
Vf62741e305ade8cf3fab5b364cd7aafb1ce89f58
p1171
sVformatted_phone_number
p1172
V(415) 512-1111
p1173
sVopening_hours
p1174
(dp1175
Vweekday_text
p1176
(lp1177
VMonday: Open 24 hours
p1178
aVTuesday: Open 24 hours
p1179
aVWednesday: Open 24 hours
p1180
aVThursday: Open 24 hours
p1181
aVFriday: Open 24 hours
p1182
aVSaturday: Open 24 hours
p1183
aVSunday: Open 24 hours
p1184
asVopen_now
p1185
I01
sVperiods
p1186
(lp1187
(dp1188
Vopen
p1189
(dp1190
Vday
p1191
I0
sVtime
p1192
V0000
p1193
ssassVvicinity
p1194
V2 New Montgomery St, San Francisco
p1195
sVscope
p1196
VGOOGLE
p1197
sVwebsite
p1198
Vhttp://www.sfpalace.com/
p1199
sVutc_offset
p1200
I-480
sVuser_ratings_total
p1201
I197
sVphotos
p1202
(lp1203
(dp1204
Vwidth
p1205
I343
sVheight
p1206
I230
sVphoto_reference
p1207
VCnRnAAAA9RXqqhhPfchbsqbOx6Dh14ABdj7EzMMwTzDkb6bJER5bBU1N2J3DnXPfBlQYvDVq2JdseniUMl9FwjSX0gaFf5DdHSTzxTS2t5fRoO_ahAjrAoGyYHnpDeII6LIOokVuQtYwq9GyUX573OcD43QAzBIQ8i5yniC0gwB-32obBHscyBoUJPw8cS5KNgrtBQ1Ysa7LpUw9_5k
p1208
sVhtml_attributions
p1209
(lp1210
sa(dp1211
Vwidth
p1212
I343
sVheight
p1213
I230
sVphoto_reference
p1214
VCnRqAAAA5ak4Aklc1FkEGIZWI844vjvZT-pyU1cajvHjEfdd8oGeBWHsY5o7geWKzfFJ-aL6N5lT-7O68qfH34VTRwTOn4Pw7zd00EcvFzWESWOxLDjAGLEI2OiM3UCS4KT2s2VzCSSMVbP38ulPqmqsFrqt5RIQFG4b4QNv1zmsH-Mr6527yxoUG-wSpy1QVJHYjYLdnjhD9D4fX-M
p1215
sVhtml_attributions
p1216
(lp1217
sa(dp1218
Vwidth
p1219
I343
sVheight
p1220
I230
sVphoto_reference
p1221
VCnRnAAAA27uTmvTtRnj9M6oclIlCpIy46I0E-lrAWtM99_laYPuIxdEQr1VLQBbLwrqF9Zk8hiJYVN-SLMbuECZg-NDzmBRzK0kSVGrUl_l_IaOEPTY3cnNMBovt-TPD7iBwWoN3G8lOUjnW0Y8SVp7Xw8OghBIQ6ObV7A-7Ad0Z1G7WEbJR9BoUNy82prQOLdTu2ZrdiuQm1T14MFM
p1222
sVhtml_attributions
p1223
(lp1224
sa(dp1225
Vwidth
p1226
I343
sVheight
p1227
I230
sVphoto_reference
p1228
VCnRnAAAAqdljdtwGLwKy6T_NrLHyEDX4WgDqSvy0-gE7C3uClIg91fxM7mvM-ReRVlAEx8hWG5H880dnxsW7QZtPupsEmvg8a28QWXZSR9YGjbrboog_vmJvWSIZBKVvgtdImXAfulxdoaGWzBcIXvzDeXwm1RIQ2NkJ31D0PyPWzuGAjDjuvRoU9l8ZvcMwQ451HFLlu0jgAUadbP4
p1229
sVhtml_attributions
p1230
(lp1231
sa(dp1232
Vwidth
p1233
I343
sVheight
p1234
I230
sVphoto_reference
p1235
VCnRnAAAAkkGZn7hcPvCE6Se-qoakIVLcUnHk_zAXg4JYCkJvjUxvV7lt2hZHRYStvIqLNbUwzVAaCoSdDfLFeZPQcUT6yWnlXtRIpnLw4h7QQtLtnfb8Tx938VqrkqXwjAQIoGmb-BKu49kAzj-G-SnkCF7RzxIQF42KY6StHaQW3ODvS4r_7hoUV0yRGZXIWLt0AVk8lIBBniKKKSE
p1236
sVhtml_attributions
p1237
(lp1238
sa(dp1239
Vwidth
p1240
I343
sVheight
p1241
I230
sVphoto_reference
p1242
VCnRnAAAABAQBjQxvahzmULuH_vxyn4ZMj_7foOwbMeqWSyEgEShRBXbK0PtUy1s9OYoFMZQsjy1KQT6Qjwh2zW8O1SdnAxoMe_f6XeeeIHsTd7JoM1zUUNI2c0bRpPoip9OTll6w21NKWmsMjcWQ8FvX4Qdu5hIQCtYOzu0oDFann7tLsbpSthoUb0AZk3HXZMnE5TUBlCg-OfUv_z8
p1243
sVhtml_attributions
p1244
(lp1245
sa(dp1246
Vwidth
p1247
I343
sVheight
p1248
I230
sVphoto_reference
p1249
VCnRqAAAAOvL-JNReQNKxJbFJWlfzPhMwItB-LAL4f7oDn4nAL07L3jYxuke7R-Lb8rEyyGA1DuJ1n7UR3duXDFqgFiYbqCZFjzDjXxxsFSsdanzzOqgwF0bowTujP0Al6fn0SAdFJla0qjZOFRgACyOIofO9ohIQawVjL-3mS79t5-hYjbncqBoULnomyLsP-jsqG9mK2z1P2BZ1F2I
p1250
sVhtml_attributions
p1251
(lp1252
sa(dp1253
Vwidth
p1254
I343
sVheight
p1255
I230
sVphoto_reference
p1256
VCnRqAAAA3RFVC0SpAGjlacfPQqJyO3N8wl00_5w8WK7GG3tZ3056KvsJprMu0x0oYGDUt2YSPeUY2jVc0oHi0K4EdcuxmYXTstBYrph0t8fwlazJ4WPZcSNVj0JhjcpwOmrY3xeBMK7WkHThLd7njEt-WQoHyRIQwTdpmR2IwMuGJd6zV_kxOxoUdAyl7ewGVXDxnuI_VB2b16gfzyM
p1257
sVhtml_attributions
p1258
(lp1259
sa(dp1260
Vwidth
p1261
I343
sVheight
p1262
I230
sVphoto_reference
p1263
VCnRqAAAAzRHJ7dlypvdmA7DXuZklg6DJi85TV6qAlrRkf3pT9f9lNB6-V8YEp_5P1kJbE4tuMImfXKyTuWM41RBRpYCcIxd39YZKoXPqJtxIcuvPBnwYWuBO5Rq-zUrWj5qEoVxH4WK26d1vb3bCpnUNQiURnhIQ6dSMTdeEgI_ZnRLhyRTkcxoUBNMKcXjiIZVREIV8Qf_AINkLQ1c
p1264
sVhtml_attributions
p1265
(lp1266
sa(dp1267
Vwidth
p1268
I343
sVheight
p1269
I230
sVphoto_reference
p1270
VCnRqAAAA4cmhlS-y89Yy7AAOUAgxun68xzIHqwgpASGZ8jU0hzu7EA1WjkQDBdJ7sncuE6tTvTSUOpIXEQUeSCEpu_5s_LQczzdH8Vjqvsf_6LpDo6V9WiiCXWH44N0KZBUwkChZyiTyUWShNJerR2zBb4boFxIQUGM7asweO4skMJO7KSaGAxoUxN3XvAAVehGfBINd_4HjtSSe07Q
p1271
sVhtml_attributions
p1272
(lp1273
sasVtypes
p1274
(lp1275
Vlodging
p1276
aVestablishment
p1277
asVicon
p1278
Vhttp://maps.gstatic.com/mapfiles/place_api/icons/lodging-71.png
p1279
sVname
p1280
VPalace Hotel, a Luxury Collection Hotel, San Francisco
p1281
sVurl
p1282
Vhttps://plus.google.com/118209841820254113466/about?hl=en-US
p1283
sVadr_address
p1284
V<span class="street-address">2 New Montgomery St</span>, <span class="locality">San Francisco</span>, <span class="region">CA</span> <span class="postal-code">94105</span>, <span class="country-name">United States</span>
p1285
sVinternational_phone_number
p1286
V+1 415-512-1111
p1287
sVreviews
p1288
(lp1289
(dp1290
Vrating
p1291
I5
sVaspects
p1292
(lp1293
(dp1294
Vrating
p1295
I3
sVtype
p1296
Voverall
p1297
sasVlanguage
p1298
Ven
p1299
sVtext
p1300
VI've only been here for events in the Grand Ballroom and to Tea.  So this review is based on those experiences, which have been superior!  Tea at the Sheraton Palace should be on everyone's bucket list.  The room is over the top elegant, as is the service.  This experience sets you back to another place and time, it is truly a respite from the frantic life we all seem to be rushing around in.  Reservations for tea are a must. 
p1301
sVauthor_name
p1302
VYoni Mayeri
p1303
sVauthor_url
p1304
Vhttps://plus.google.com/105820450885180571966
p1305
sVtime
p1306
I1412953438
sa(dp1307
Vrating
p1308
I5
sVaspects
p1309
(lp1310
(dp1311
Vrating
p1312
I3
sVtype
p1313
Voverall
p1314
sasVlanguage
p1315
Ven
p1316
sVtext
p1317
VThe hotel is beautiful, and the staff is very friendly and helpful.  I recently proposed at the hotel to my girlfriend, and the plan required some coordination with the hotel.  Prior to my arrival I called to coordinate with the hotel, the receptionist connected me with Adriana.  Adriana told me she had me covered. Just to start, she made it possible for me to do the check-in process over the phone and via a secure site so that when I arrived I'd just need to show my ID in exchange for the keycard, and had a bucket of ice placed in the room along with chocolate covered strawberries minutes prior to our timed arrival.  She made the entire experience flawless for me, and extremely special for the two of us.  My fiance was head over heals.  Thank you, Adriana.  We look forward coming back to stay for our anniversaries to come.  
p1318
sVauthor_name
p1319
VDaniel Garzia
p1320
sVauthor_url
p1321
Vhttps://plus.google.com/102573460518502520362
p1322
sVtime
p1323
I1409678518
sa(dp1324
Vrating
p1325
I4
sVaspects
p1326
(lp1327
(dp1328
Vrating
p1329
I2
sVtype
p1330
Voverall
p1331
sasVlanguage
p1332
Ven
p1333
sVtext
p1334
VDon't miss this lobby and restaurant. The food is good. Especially the Sunday Brunch. But just to sit in this three story atrium is the treat. Imagine this was used over 150 years ago. Plus the bar is a throw back to 100 years ago. Enjoy. 
p1335
sVauthor_name
p1336
VTom Flood
p1337
sVauthor_url
p1338
Vhttps://plus.google.com/115575784208091767568
p1339
sVtime
p1340
I1405422502
sa(dp1341
Vrating
p1342
I4
sVaspects
p1343
(lp1344
(dp1345
Vrating
p1346
I2
sVtype
p1347
Voverall
p1348
sasVlanguage
p1349
Ven
p1350
sVtext
p1351
VBeautiful hotel, center of the city. Room was average size with high ceilings, very nice bathroom and comfortable bed. Gorgeous inside the lobby (there was a wedding or something happening during our stay). Lots of traffic getting there to the valet but otherwise great. 
p1352
sVauthor_name
p1353
VShaw Levin
p1354
sVauthor_url
p1355
Vhttps://plus.google.com/117722603808387603069
p1356
sVtime
p1357
I1411845235
sa(dp1358
Vrating
p1359
I5
sVaspects
p1360
(lp1361
(dp1362
Vrating
p1363
I3
sVtype
p1364
Voverall
p1365
sasVlanguage
p1366
Ven
p1367
sVtext
p1368
VBeautiful, well preserved, old Hotel. Other old hotels in this city should take note. Old does not have to mean run down. Class act.
p1369
sVauthor_name
p1370
VJoAnn Gamma
p1371
sVauthor_url
p1372
Vhttps://plus.google.com/110299714971709099718
p1373
sVtime
p1374
I1414738296
sasVgeometry
p1375
(dp1376
Vlocation
p1377
(dp1378
Vlat
p1379
F37.788599
sVlng
p1380
F-122.402019
sssVaddress_components
p1381
(lp1382
(dp1383
Vlong_name
p1384
V2
p1385
sVshort_name
p1386
V2
p1387
sVtypes
p1388
(lp1389
Vstreet_number
p1390
asa(dp1391
Vlong_name
p1392
VNew Montgomery St
p1393
sVshort_name
p1394
VNew Montgomery St
p1395
sVtypes
p1396
(lp1397
Vroute
p1398
asa(dp1399
Vlong_name
p1400
VSouth Beach
p1401
sVshort_name
p1402
VSouth Beach
p1403
sVtypes
p1404
(lp1405
Vneighborhood
p1406
aVpolitical
p1407
asa(dp1408
Vlong_name
p1409
VSan Francisco
p1410
sVshort_name
p1411
VSF
p1412
sVtypes
p1413
(lp1414
Vlocality
p1415
aVpolitical
p1416
asa(dp1417
Vlong_name
p1418
VSan Francisco County
p1419
sVshort_name
p1420
VSan Francisco County
p1421
sVtypes
p1422
(lp1423
Vadministrative_area_level_2
p1424
aVpolitical
p1425
asa(dp1426
Vlong_name
p1427
VCalifornia
p1428
sVshort_name
p1429
VCA
p1430
sVtypes
p1431
(lp1432
Vadministrative_area_level_1
p1433
aVpolitical
p1434
asa(dp1435
Vlong_name
p1436
VUnited States
p1437
sVshort_name
p1438
VUS
p1439
sVtypes
p1440
(lp1441
Vcountry
p1442
aVpolitical
p1443
asa(dp1444
Vlong_name
p1445
V94105
p1446
sVshort_name
p1447
V94105
p1448
sVtypes
p1449
(lp1450
Vpostal_code
p1451
asassba(ispot
Spot
p1452
(dp1453
g3
I250
sg4
(dp1454
Vrating
p1455
F4.3
sVreference
p1456
VCnRoAAAA9HeElExliD0JZLw4tWZBssgrSXNqpsTk9YSC5a5PvdKIvOxPgyXOJz8OtTC61cLcXERSQ9OSo3lklv_7YYt44xINbSXLkce7ZT4a_Z4uVkSzpCQRCZaztRKl_v0_wjUDrM0BgAePgBT_xXAEn_KathIQeLd4hdeTQbIWRyIOEhRS0RoUgl6XcB043ofJLaW7DJY91CMerVo
p1457
sVplace_id
p1458
VChIJI7NivpmAhYARSuRPlbbn_2w
p1459
sVgeometry
p1460
(dp1461
Vlocation
p1462
(dp1463
Vlat
p1464
F37.771517
sVlng
p1465
F-122.468733
sssVformatted_address
p1466
V50 Hagiwara Tea Garden Dr, San Francisco, CA 94118, United States
p1467
sVid
p1468
V2a7464f9faa0b872fcc3132045a4b29e7661f83c
p1469
sVopening_hours
p1470
(dp1471
Vweekday_text
p1472
(lp1473
VMonday: Closed
p1474
aVTuesday: 9:30 am \u2013 5:15 pm
p1475
aVWednesday: 9:30 am \u2013 5:15 pm
p1476
aVThursday: 9:30 am \u2013 5:15 pm
p1477
aVFriday: 9:30 am \u2013 8:45 pm
p1478
aVSaturday: 9:30 am \u2013 5:15 pm
p1479
aVSunday: 9:30 am \u2013 5:15 pm
p1480
asVopen_now
p1481
I00
sVperiods
p1482
(lp1483
(dp1484
Vclose
p1485
(dp1486
Vday
p1487
I0
sVtime
p1488
V1715
p1489
ssVopen
p1490
(dp1491
Vday
p1492
I0
sVtime
p1493
V0930
p1494
ssa(dp1495
Vclose
p1496
(dp1497
Vday
p1498
I2
sVtime
p1499
V1715
p1500
ssVopen
p1501
(dp1502
Vday
p1503
I2
sVtime
p1504
V0930
p1505
ssa(dp1506
Vclose
p1507
(dp1508
Vday
p1509
I3
sVtime
p1510
V1715
p1511
ssVopen
p1512
(dp1513
Vday
p1514
I3
sVtime
p1515
V0930
p1516
ssa(dp1517
Vclose
p1518
(dp1519
Vday
p1520
I4
sVtime
p1521
V1715
p1522
ssVopen
p1523
(dp1524
Vday
p1525
I4
sVtime
p1526
V0930
p1527
ssa(dp1528
Vclose
p1529
(dp1530
Vday
p1531
I5
sVtime
p1532
V2045
p1533
ssVopen
p1534
(dp1535
Vday
p1536
I5
sVtime
p1537
V0930
p1538
ssa(dp1539
Vclose
p1540
(dp1541
Vday
p1542
I6
sVtime
p1543
V1715
p1544
ssVopen
p1545
(dp1546
Vday
p1547
I6
sVtime
p1548
V0930
p1549
ssassVvicinity
p1550
V50 Hagiwara Tea Garden Dr, San Francisco
p1551
sVscope
p1552
VGOOGLE
p1553
sVwebsite
p1554
Vhttp://deyoung.famsf.org/
p1555
sVutc_offset
p1556
I-480
sVuser_ratings_total
p1557
I119
sVphotos
p1558
(lp1559
(dp1560
Vwidth
p1561
I953
sVheight
p1562
I953
sVphoto_reference
p1563
VCnRwAAAAH5Fm1bqxpPeLNu4_3P-X2e065JhqMf10577bB7K2PJ24NP8oJnjn3Cf2XjLAekFrtzPp9wLH095lLI9zgm6nHTmr7jF8gNY2S5FN-XcYDtxCVANgBr6u5vFgoY1WuAa8z3uJy5D5DN-FjDI62V5sCRIQwTC4Q6fTaueHk4jlutCwFxoU76Jc4TmgxjOd0MPkLLfy1mU-Jt8
p1564
sVhtml_attributions
p1565
(lp1566
sa(dp1567
Vwidth
p1568
I2048
sVheight
p1569
I1361
sVphoto_reference
p1570
VCnRqAAAALwimRjF8GR0ugWiqHD3uBN29fA3RuT9SD8gMWnq_2JESMDR8y3ttf12nv-Xg9eHPIDeCiaST8-_o7Or7r8Nmv2xouykNdkh5M0lAZHH6yXGyYSJ5EmZDKM7T6RMTFXhw5c845I8WT0xtAcZSMIPn1hIQ4p4QN7_1INdRU33gJIyWXxoU0S1sy2214elZcjyVSCkI1M3lL_8
p1571
sVhtml_attributions
p1572
(lp1573
V<a href="https://plus.google.com/107703067300113514526">Cornelius O&#39;Leary Jr</a>
p1574
asa(dp1575
Vwidth
p1576
I1984
sVheight
p1577
I1488
sVphoto_reference
p1578
VCnRqAAAACZME31rA7L37Ox0znI49MH8RlMMejg7JMCdFVHxhaN8-xB44yhntK9JJYdbYwGhEEnZsRWcMWY4GBuqbv9USBf8ilMQ_HY35b3It7QZvUYBHZCqt4rz9FHWDrJqUJt8UA2YedT5qw2nXxf3xNlk2IBIQRAMJ9dYEAVeCDe-EJgvBTBoU7gPO-Ve2G92scOTIpIwCTZSSQkI
p1579
sVhtml_attributions
p1580
(lp1581
V<a href="https://plus.google.com/113173931251785215708">Henning Nielsen</a>
p1582
asa(dp1583
Vwidth
p1584
I380
sVheight
p1585
I276
sVphoto_reference
p1586
VCnRqAAAA6-du70QOulBm-K6ZxzzDc1B94IrqvSlKSl4J7pxSBA2_zpKmtw7INXKl9DJJoHtGYMxH5xFo_8B8FjdQm3jOQkOqqp8RLBAHtxVFadIKU7BgL8-k99yNuAWjTmfivAwwO55vrEl7HFjShAOnFe-gbBIQN8GYDdj6kE8_6Kb72GHTPxoUfjyT81kCnnvOoZhtiHiBhPk24Zk
p1587
sVhtml_attributions
p1588
(lp1589
V<a href="https://plus.google.com/100146962083959904819">Sarah White</a>
p1590
asa(dp1591
Vwidth
p1592
I2048
sVheight
p1593
I1361
sVphoto_reference
p1594
VCnRqAAAAX--z88wLaSY2UFQXMZBph0p2VmlXZxfUoiLVUlJK81I_SOHN8t60Y97wDGLqKyRx2qgU4jzgey3HEAHPYQJZuOctn7-npeB65p4VjRccNMPMErhsEU52QLnopm_1uRxYxi_8u7zkI2dhexRO6MgpvRIQbNWjyq1po8rhLMGcvZYQxhoUUeolXckOZ8bBL42wRV5AwTNpjUw
p1595
sVhtml_attributions
p1596
(lp1597
V<a href="https://plus.google.com/107703067300113514526">Cornelius O&#39;Leary Jr</a>
p1598
asa(dp1599
Vwidth
p1600
I2048
sVheight
p1601
I1361
sVphoto_reference
p1602
VCnRqAAAATz4Nbfe_z8oVsd-t1Sst38awnYyeI4uGbrQ1JRF5LRFgUKaiUXHVVQED8BChrtDy64if1Vm6ajmOkUSNE3WbXH2zUl4fuZJXp69N5JnDFnPXl_UXDaVViPo01zNvfItC3SlW0fhxD3SJqDbTdpd0qxIQEMSEM7WxMS-3YPLJiERNkRoUpwW11ifYk8PReZW8o5O1q8POd7U
p1603
sVhtml_attributions
p1604
(lp1605
V<a href="https://plus.google.com/107703067300113514526">Cornelius O&#39;Leary Jr</a>
p1606
asa(dp1607
Vwidth
p1608
I2048
sVheight
p1609
I1361
sVphoto_reference
p1610
VCnRqAAAAuAUEe6nPZvP_78XQuv88WB09WcDfZdSbqUK_F01M9lx_XPOWWcL8sM_dn0LBXBY_n7oFUledd7zySxOyBBjz_KGRKJy-z-uump74ozPXa7sykvjsn8tmZ-SBQqAJV8lii_QICkKnyvylCJz1ZME8MBIQgC4vUcsW-5p4wV_LABBR2xoUK9-Bn9lhLbkJ6FTK_ln6wjuQr9I
p1611
sVhtml_attributions
p1612
(lp1613
V<a href="https://plus.google.com/107703067300113514526">Cornelius O&#39;Leary Jr</a>
p1614
asa(dp1615
Vwidth
p1616
I2048
sVheight
p1617
I1361
sVphoto_reference
p1618
VCnRqAAAAH_3Pf3Ra-nlRoPBysF_To4Sdu5ZEOXjUHkEILZPlAMIalH4JGhmzrcyHD9kJc5WPS3b01NW35jSWGIQWPbS2YOsObajJi3h9Vi1BHRgGX5kmBSTykn1AUwnVUWeoAXKvWfDORtzujZTthhDQ9-cf2xIQjPE882_HOa7O6S592_S-ZxoUbDVNLeD_NOQ97IWMB3BBloBN1wY
p1619
sVhtml_attributions
p1620
(lp1621
V<a href="https://plus.google.com/107703067300113514526">Cornelius O&#39;Leary Jr</a>
p1622
asa(dp1623
Vwidth
p1624
I2048
sVheight
p1625
I1361
sVphoto_reference
p1626
VCnRqAAAA2jPDkVnMYsQ3gHKjEFQ0cQqpkwgni44M6AWNQeAuAYQtf7Y_ScIKqvgUoWpiDGtBlJN3RBKzUiag-I5aAAb-LvOhY0wmOSx8eIVVPJGxDNV3qiTinkBctnNauY0K_vVXsK_SpoXKAUOLa7GEhdvENBIQ8eqkkuoGcKFCwaeMBEGE-BoU4xSTHylah625QW6rAoB9KvRoJe4
p1627
sVhtml_attributions
p1628
(lp1629
V<a href="https://plus.google.com/107703067300113514526">Cornelius O&#39;Leary Jr</a>
p1630
asa(dp1631
Vwidth
p1632
I2048
sVheight
p1633
I1361
sVphoto_reference
p1634
VCnRqAAAAyhSeY5tLiVzrNly_DHJIfhBTt_duSthu-WFOlGLd-DTKZUSzTamk58pmnM-ab7IX1O83aaLoAFfVtPbf589hdV2aAhYqotBEdMHdVRfm4YWAprW8WPe0ONFispDwO_UVerUmZjmvugtE8nzW5Dt3ThIQguxrainBC_UTQ-ST76xu_BoUZKYPlzyDIaC1UvlLFKM8G8hQaNw
p1635
sVhtml_attributions
p1636
(lp1637
V<a href="https://plus.google.com/107703067300113514526">Cornelius O&#39;Leary Jr</a>
p1638
asasVtypes
p1639
(lp1640
Vmuseum
p1641
aVestablishment
p1642
asVicon
p1643
Vhttp://maps.gstatic.com/mapfiles/place_api/icons/museum-71.png
p1644
sVname
p1645
Vde Young Museum
p1646
sVurl
p1647
Vhttps://plus.google.com/104010277220168946324/about?hl=en-US
p1648
sVadr_address
p1649
V<span class="street-address">50 Hagiwara Tea Garden Dr</span>, <span class="locality">San Francisco</span>, <span class="region">CA</span> <span class="postal-code">94118</span>, <span class="country-name">United States</span>
p1650
sVinternational_phone_number
p1651
V+1 415-750-3600
p1652
sVreviews
p1653
(lp1654
(dp1655
Vrating
p1656
I5
sVaspects
p1657
(lp1658
(dp1659
Vrating
p1660
I3
sVtype
p1661
Voverall
p1662
sasVlanguage
p1663
Ven
p1664
sVtext
p1665
VGreat collection of American Art, fantastic location and fun place to visit.  Shows change regularly, the permanent collection of glass, silver and furniture on the second floor is not to be missed. You can take the elevator to the top floor tower and see a 360 degree view of Golden Gate Park, The GG Bridge and all the neighborhoods surrounding the park.  Wonderful gardens around the museum too.  The cafe is super, lots of choices and fast, friendly service; dine inside or take your food to the lovely outdoor tables.  
p1666
sVauthor_name
p1667
VYoni Mayeri
p1668
sVauthor_url
p1669
Vhttps://plus.google.com/105820450885180571966
p1670
sVtime
p1671
I1412362196
sa(dp1672
Vrating
p1673
I5
sVaspects
p1674
(lp1675
(dp1676
Vrating
p1677
I3
sVtype
p1678
Voverall
p1679
sasVlanguage
p1680
Ven
p1681
sVtext
p1682
VI have been to a few major exhibits at this museum and I have to say that it is probably my favorite art museum in San Francisco. The staff here does a great job of presenting their classic collection along with an incredible mixture of popular exhibits and temporary installations that very confidently speak to the zeitgeist of the city. This is an amazing accomplishment. Consider how difficult this must be in a city as cool in San Francisco. But with things like the Warhol exhibit and the Jean Paul Gaultier design timeline tour, the DeYoung maintains its place at the pinnacle of the hyper-cool. Having met the people that work there I can also say that they are truly passionate about translating the method, practice, value, and study of art to their community. This is visible in the balance of fun to academic observation and analysis they have in every showing. There is something here for everyone and it's very presentation and curation is art of an incredible caliber. I could go on.....
p1683
sVauthor_name
p1684
VMisha Metrikin
p1685
sVauthor_url
p1686
Vhttps://plus.google.com/114890117672430115819
p1687
sVtime
p1688
I1413260271
sa(dp1689
Vrating
p1690
I4
sVaspects
p1691
(lp1692
(dp1693
Vrating
p1694
I2
sVtype
p1695
Voverall
p1696
sasVlanguage
p1697
Ven
p1698
sVtext
p1699
VWas lucky enough to visit the O'Keefe exhibit earlier this year and this is museum going at its finest (helped by the fact that the SF MoMa is closed for the next two years so options are currently slim).\u000aOnly giving it four stars since at $25 a pop for admission, this place isn't exactly a bargain. \u000aMake time to visit the Japanese Tea Garden next door and also be sure to go up to the viewing floor for unmatched views of the Presidio and Golden Gate Park.
p1700
sVauthor_name
p1701
VElmer Ayala
p1702
sVauthor_url
p1703
Vhttps://plus.google.com/103969904087092883134
p1704
sVtime
p1705
I1413179353
sa(dp1706
Vrating
p1707
I5
sVaspects
p1708
(lp1709
(dp1710
Vrating
p1711
I3
sVtype
p1712
Voverall
p1713
sasVlanguage
p1714
Ven
p1715
sVtext
p1716
VThe de Young is a beautiful and modern museum. Highly recommended; houses a full collection of African art, Native American textiles, modernism, and more. The tower in the de Young also offers access to an expansive view of both Golden Gate Park and the city.
p1717
sVauthor_name
p1718
VJoyce Tang
p1719
sVauthor_url
p1720
Vhttps://plus.google.com/101092365012450853182
p1721
sVtime
p1722
I1414996654
sa(dp1723
Vrating
p1724
I4
sVaspects
p1725
(lp1726
(dp1727
Vrating
p1728
I2
sVtype
p1729
Voverall
p1730
sasVlanguage
p1731
Ven
p1732
sVtext
p1733
VI just visited this place today with my mom, and it was an overall great place. There were lots of beautiful and winsome pieces...just exquisite. I learned about different cultures(European, African, and Native American). As being a person of color, I was being observed more than others, and the security was always following me(it's not even unusual anymore). My mom had to file a complaint about one of the security guards. All he had to do was politely tell my mom to stand farther away from the picture(which had no borders around it), but no...he felt like he had to raise his voice at her, and looked like he was going to touch her. He made it seem like everybody in the entire museum had to hear what was going on..which wasn't even necessary.Supposedly, this same security guard has gotten other complaints, so I hope he gets fired. I had people follow me the whole time I was there. At the end of my day there, we went to that little workshop area, where you could design some little postcard, with anything you wanted(paint, stitch,print, etc). That was really fun. The lady there, will make a collage out of all them...I can't wait to see it. Mine is the one that says,"K-pop 4 Life". So if you go there...please design one too. 
p1734
sVauthor_name
p1735
VLucky Charm
p1736
sVauthor_url
p1737
Vhttps://plus.google.com/105877178219911752867
p1738
sVtime
p1739
I1410070211
sasVformatted_phone_number
p1740
V(415) 750-3600
p1741
sVaddress_components
p1742
(lp1743
(dp1744
Vlong_name
p1745
V50
p1746
sVshort_name
p1747
V50
p1748
sVtypes
p1749
(lp1750
Vstreet_number
p1751
asa(dp1752
Vlong_name
p1753
VHagiwara Tea Garden Dr
p1754
sVshort_name
p1755
VHagiwara Tea Garden Dr
p1756
sVtypes
p1757
(lp1758
Vroute
p1759
asa(dp1760
Vlong_name
p1761
VSan Francisco
p1762
sVshort_name
p1763
VSF
p1764
sVtypes
p1765
(lp1766
Vlocality
p1767
aVpolitical
p1768
asa(dp1769
Vlong_name
p1770
VCalifornia
p1771
sVshort_name
p1772
VCA
p1773
sVtypes
p1774
(lp1775
Vadministrative_area_level_1
p1776
aVpolitical
p1777
asa(dp1778
Vlong_name
p1779
VUnited States
p1780
sVshort_name
p1781
VUS
p1782
sVtypes
p1783
(lp1784
Vcountry
p1785
aVpolitical
p1786
asa(dp1787
Vlong_name
p1788
V94118
p1789
sVshort_name
p1790
V94118
p1791
sVtypes
p1792
(lp1793
Vpostal_code
p1794
asassba(ispot
Spot
p1795
(dp1796
g3
I100
sg4
(dp1797
Vwebsite
p1798
Vhttp://sfrecpark.org/destination/telegraph-hill-pioneer-park/coit-tower/
p1799
sVrating
p1800
F4.1
sVutc_offset
p1801
I-480
sVplace_id
p1802
VChIJAQAAQIyAhYARRN3yIQG4hd4
p1803
sVname
p1804
VCoit Tower
p1805
sVreference
p1806
VCnRkAAAABsyLFQ8xaXNyuJoXBWkV2sgpRdbvLes81akBi5NjJsRquCk7hH4ILDWlLO1t88n-1Mgz_4yOdiwt5RDk6O619HRHiqJ65Pbqdr7eODnTmMfH37C0Rnkv9oVeXUCmMkFTp7yLxKT5WIN38TyKtR0V0BIQOPCNAZ2fHM8vTpZoL4qHeBoUGNdz43S9ee-M1YiM5xL0DHvh934
p1807
sVgeometry
p1808
(dp1809
Vlocation
p1810
(dp1811
Vlat
p1812
F37.802395
sVlng
p1813
F-122.405822
sssVadr_address
p1814
V<span class="street-address">1 Telegraph Hill Blvd</span>, <span class="locality">San Francisco</span>, <span class="region">CA</span> <span class="postal-code">94133</span>, <span class="country-name">United States</span>
p1815
sVuser_ratings_total
p1816
I438
sVvicinity
p1817
V1 Telegraph Hill Blvd, San Francisco
p1818
sVreviews
p1819
(lp1820
(dp1821
Vrating
p1822
I4
sVaspects
p1823
(lp1824
(dp1825
Vrating
p1826
I2
sVtype
p1827
Voverall
p1828
sasVlanguage
p1829
Ven
p1830
sVtext
p1831
VCoit tower has recently undergone some renovations.  (Thanks National Trust for Historic Preservation)   The WPA murals on the ground floor are freshly cleaned, and present interesting visions of life in the 1930's SF.   The stairs are out of commission, so you have to take the small elevator up.   The views are spectacular, particularly on a clear day.  The view from the ground level parking area is also not bad.   On the way down,  try the steps toward the Embarcadero,  very great insights into lush backyards.
p1832
sVauthor_name
p1833
VAnna Hautzinger
p1834
sVauthor_url
p1835
Vhttps://plus.google.com/116136613716129316971
p1836
sVtime
p1837
I1415218790
sa(dp1838
Vrating
p1839
I4
sVaspects
p1840
(lp1841
(dp1842
Vrating
p1843
I2
sVtype
p1844
Voverall
p1845
sasVlanguage
p1846
Ven
p1847
sVtext
p1848
VAn understated icon of San Francisco. Perched on a rocky hill in the middle of the city's core, this art deco styled tower has impressive views from both it's base and it's viewing platform. Well worth the hike up the hill. Parking anywhere nearby is not going to happen, so take that into account.
p1849
sVauthor_name
p1850
VTyler Harding
p1851
sVauthor_url
p1852
Vhttps://plus.google.com/110357160824479158301
p1853
sVtime
p1854
I1412053153
sa(dp1855
Vrating
p1856
I4
sVaspects
p1857
(lp1858
(dp1859
Vrating
p1860
I2
sVtype
p1861
Voverall
p1862
sasVlanguage
p1863
Ven
p1864
sVtext
p1865
VAlthough no amazing heights, it's worth a trip if visiting SF.  Tickets are inexpensive and usually a short wait for the elevator ride up.  The inside at the bottom of the tower has beautifully painted murals and the gift shop has all the typical touristy stuff (mugs, maps, shirts, etc).  Depending on your journey to the tower, you can walk to the steep hill from North Beach for added exercise.  \u000aAnd the view from the top is nice, provided it's a clear day!  Pretty small, so be prepared to share windows to look out.
p1866
sVauthor_name
p1867
VLauren Pinheiro
p1868
sVauthor_url
p1869
Vhttps://plus.google.com/106990768782331898857
p1870
sVtime
p1871
I1400785941
sa(dp1872
Vrating
p1873
I5
sVaspects
p1874
(lp1875
(dp1876
Vrating
p1877
I3
sVtype
p1878
Voverall
p1879
sasVlanguage
p1880
Ven
p1881
sVtext
p1882
VToughed it up the stairs. Enjoyed the view from the base and the stiff breeze. Didn't bother to go to the top. 
p1883
sVauthor_name
p1884
VYvette Skinner
p1885
sVauthor_url
p1886
Vhttps://plus.google.com/116618204309104641755
p1887
sVtime
p1888
I1414728878
sa(dp1889
Vrating
p1890
I5
sVaspects
p1891
(lp1892
(dp1893
Vrating
p1894
I3
sVtype
p1895
Voverall
p1896
sasVlanguage
p1897
Ven
p1898
sVtext
p1899
VOne of, if not best view of city skyline along with both bridges(if no fog, of course) saw one of last full moon eclipses there years ago. Magical it lasted so long. Got a good contact high, too. No rag-weed, for sure.
p1900
sVauthor_name
p1901
VRaymond Alvarez
p1902
sVauthor_url
p1903
Vhttps://plus.google.com/113755175842025386880
p1904
sVtime
p1905
I1405827204
sasVphotos
p1906
(lp1907
(dp1908
Vwidth
p1909
I1268
sVheight
p1910
I947
sVphoto_reference
p1911
VCnRoAAAA4d3wcSx8vijGyFBVz-_6lYSl3er4cWXSGWIu6C_PSmImE5qJFpgE2Ktf3tgIf5SOIvXRRMAdRyradifVeDpGpKLTfJbEf2hvspKFIYr1Ue8fY0qbmQChtuZPjPCHs9c4URzKRoCpBBS8VKSV4Y5GVRIQ7d7BUqVNEHeOdp9lImATIhoUBRlN4A6kugf35tsqtN8ru5mrUfs
p1912
sVhtml_attributions
p1913
(lp1914
V<a href="https://plus.google.com/116596226154549124014">Kee Wook Lee</a>
p1915
asa(dp1916
Vwidth
p1917
I768
sVheight
p1918
I1024
sVphoto_reference
p1919
VCnRqAAAAQgVkYYCFw7uwzpSEkETNHdCja_8RXF6k8XnnjRrlU1H8swHZv5O4BsUOB5GfZ_9BuEkQS6BbayHslwoXme6KVpTK_AMftof3hOaH2U4wYa3Zveh7No6WwvM1RvWBtDP1xyArm1KwFDFMbSr-N4Fo3hIQEVbm755BbZhUdmcPmoObLBoUWHwnvUSM2z24Y3dhWYntbp21704
p1920
sVhtml_attributions
p1921
(lp1922
VFrom a Google User
p1923
asa(dp1924
Vwidth
p1925
I4608
sVheight
p1926
I3456
sVphoto_reference
p1927
VCnRlAAAAseqj10H6MZPmjdwzdiwGaXIycMBNqTaFMR6qqrKpYfVNlNdGPd1-BbXSCva5XmtoMklhr-ka3NKnaRwzjDE6tnBM1PcBsuDRa8Vl6LFc4rjrhPUG0MTxvjgam4po_8bFVXW1rrzjXrPIxBeOOHy2IRIQdFEoXBEY3Iyyhs1BnrqhixoUqfWbAhuq0hysS8htQUVSBz7VBdg
p1928
sVhtml_attributions
p1929
(lp1930
V<a href="https://plus.google.com/113186450052791933529">Joseph D&#39;Angelo</a>
p1931
asa(dp1932
Vwidth
p1933
I1296
sVheight
p1934
I776
sVphoto_reference
p1935
VCnRqAAAAI2m-Fi4L-wLryUzSeTQ8Dxk10wif0DxQVHd15lzpzYfTriB9I10vvZQF0Opkpgkr5P2QBLkFocJLeHIVXHI4ZMdRm6cx7SIxVrIEHAv1qBCSR2erMLsLvLaXPf4N1nHxWWZqIThfmjPsltzLlvkzpRIQWWHOYoDBb2H2LDsRvXF8SRoUQ6Lr13N_5SORGDqRsQEiTnkRF5c
p1936
sVhtml_attributions
p1937
(lp1938
V<a href="https://plus.google.com/114529464953149651619">Kim Nath</a>
p1939
asa(dp1940
Vwidth
p1941
I2048
sVheight
p1942
I1362
sVphoto_reference
p1943
VCpQBigAAAKf157S9jFHEpwK46f3uYDHiUiJ5yVk4TRsHmf5ZFKReB5Gfol5UlNlKBv93dXFfBPQjHKdHMHChy6fZVd2tEFfIGslyG2Hecv28_ls7iBIOzOasjrr2G7w-2KiptJ9GYvF3ybRZIkKAUpr7M1nlwYshpxr7YVkbrV00cWrqVZ9g2rYU_tr83CwSD7rkfPDOghIQTnUHA1CiX1Nj86NLxLE5tBoUQFbpfKYovCWFUSbpQkVbiN8Y728
p1944
sVhtml_attributions
p1945
(lp1946
V<a href="https://plus.google.com/102156534886423108007">Peter Rehberg</a>
p1947
asa(dp1948
Vwidth
p1949
I768
sVheight
p1950
I1024
sVphoto_reference
p1951
VCnRqAAAA5H_pAN7djbgZ9ZYnxO54N46pDDO8UbgGH2JIIDrdVLKT1i95AzVubDe0nSjvJtJHA_tzAKaEZrTWlcI85LwCAUYeUU1TfItnEKxKW3LD6kHi-2LdkBZ0Od_M8Bo6g1jScN2oi9PGv2jsIl5N2ERamxIQ6X-sPrOMU3SNulPJhzngARoUuc_uWJlxCBmhybBKrYlFmEv2aTo
p1952
sVhtml_attributions
p1953
(lp1954
V<a href="https://plus.google.com/108274069435520984069">cesar maldonado</a>
p1955
asa(dp1956
Vwidth
p1957
I1866
sVheight
p1958
I2048
sVphoto_reference
p1959
VCuQB1wAAAOy3iMj4DHmLvzXJsmgn66tVy4LrHtg1LDIOtqdQmGs7GfAL9Gc5pHsTZ5VVIanjxJ1DbrXZLqHYbObjpWU-amiLUdir7hUiStbN82ouEqRUYKsUsgbHsFcoZ-NlkQYAvDrym4gcwSVr58KlN7i-ZlIRGZe3TIrqaItkl0fvFhhpq9nWI98dkbjj9Ig744CEYf_kZ6ICtBNteEd9rhlAgX2hGZpPW_NQhqveKiHZZsJ_R5qChPuWvihUOo_lPxkJqLRclNk2CwHShrNSuyebneslv9skCcNUOLADHrWJk70XEhAdpIxsQFCRohFtaoRu-V1ZGhSgqniwiwCO_d3Q4fsXeQDGJcOW_w
p1960
sVhtml_attributions
p1961
(lp1962
V<a href="https://plus.google.com/113837235805581391057">P Kusserow</a>
p1963
asa(dp1964
Vwidth
p1965
I949
sVheight
p1966
I1265
sVphoto_reference
p1967
VCnRoAAAAaSmYLPn7HBFhVd2oUnAUZOqM3_bJgD2sriWB5MCLouStkEwkuqqlscnYlMYJTRidVJkh8WXbZnMZ5G9vFy_QwTZtEh0BbCxbnlw2_ozqicL-vDsTpTL-ivV0PeUpo54F4hjFTmTLTZHtANm781UyrRIQZfkmQWmp8McAcrstyX7c6hoUA7WkSmrR8LkSZ2-F1ssM2wnF1OY
p1968
sVhtml_attributions
p1969
(lp1970
V<a href="https://plus.google.com/108568994711421183759">Harish S</a>
p1971
asa(dp1972
Vwidth
p1973
I2048
sVheight
p1974
I1468
sVphoto_reference
p1975
VCrQBowAAAGbOFElPny50J13-9B0KPOg3k4hC2H5wn1JlVCwuBpk8pAmef754SLRn5HJ_Do0-6uNjy7Xbwa3RqRhbRFm3nUXQAv9SjtMsT2Fs-NLcvWUA03uU2rAuVEP8OI8WOfrRFgjEt-p3_jcNzaOv9RBHYKXtSV5_PJlDqXazl9yEHiZhFyQ8BMlduKha_rQ1MlLpSM20psNp-PhoPHhIBlw6Q7QfLlKtq_87m4HRrapFaFHDEhDQjD1cJi4vmsHbWo42d7ATGhTIo4cBytvH6Ht6TP3ED0z0hUipAg
p1976
sVhtml_attributions
p1977
(lp1978
V<a href="https://plus.google.com/104908431756212890221">Jay E. Jenkins</a>
p1979
asa(dp1980
Vwidth
p1981
I512
sVheight
p1982
I768
sVphoto_reference
p1983
VCnRsAAAA-KIucIE91nKwQ8fBjjB-mlADmf07uQxsD71lkZgx2XzkLG4eTbjd2vcvyTzHEIDD80TrYk1SOUptSBiQAsiw0J6WZgP3bLcrq9UAADdN-Njul3zGD3i8XUmGueh3wi_bEPEl8LmbWmd-CS0SYQfQBxIQhjaM1UHhAfmtweeFF8bmaBoUR736DIiyrBVRgvjSdPgpoCDgWas
p1984
sVhtml_attributions
p1985
(lp1986
V<a href="https://plus.google.com/106558039864076309587">Fototaker Sf</a>
p1987
asasVurl
p1988
Vhttps://plus.google.com/101183959756635433266/about?hl=en-US
p1989
sVaddress_components
p1990
(lp1991
(dp1992
Vlong_name
p1993
V1
p1994
sVshort_name
p1995
V1
p1996
sVtypes
p1997
(lp1998
Vstreet_number
p1999
asa(dp2000
Vlong_name
p2001
VTelegraph Hill Blvd
p2002
sVshort_name
p2003
VTelegraph Hill Blvd
p2004
sVtypes
p2005
(lp2006
Vroute
p2007
asa(dp2008
Vlong_name
p2009
VSan Francisco
p2010
sVshort_name
p2011
VSF
p2012
sVtypes
p2013
(lp2014
Vlocality
p2015
aVpolitical
p2016
asa(dp2017
Vlong_name
p2018
VCalifornia
p2019
sVshort_name
p2020
VCA
p2021
sVtypes
p2022
(lp2023
Vadministrative_area_level_1
p2024
aVpolitical
p2025
asa(dp2026
Vlong_name
p2027
VUnited States
p2028
sVshort_name
p2029
VUS
p2030
sVtypes
p2031
(lp2032
Vcountry
p2033
aVpolitical
p2034
asa(dp2035
Vlong_name
p2036
V94133
p2037
sVshort_name
p2038
V94133
p2039
sVtypes
p2040
(lp2041
Vpostal_code
p2042
asasVscope
p2043
VGOOGLE
p2044
sVformatted_address
p2045
V1 Telegraph Hill Blvd, San Francisco, CA 94133, United States
p2046
sVid
p2047
Vb29bfcfc1c01d4fb92de2cb3e5bc1c18fc3fb446
p2048
sVtypes
p2049
(lp2050
Vestablishment
p2051
asVicon
p2052
Vhttp://maps.gstatic.com/mapfiles/place_api/icons/generic_business-71.png
p2053
ssba(ispot
Spot
p2054
(dp2055
g3
I50
sg4
(dp2056
Vrating
p2057
F4.4
sVreference
p2058
VCoQBdwAAANm1a19DvXgcPOrmAjVr4KiHq-hPP99Ytl1P_Es_wv-Qi5owgtfc22q7PU71r2EcAsQpCxpYo5VmYsZc02SnYjwFF51D20VlYFjPbCVSrf7ZObdykdeFCQmMfNr9MjyoTSc3FSNSLqueNvvpDWYN-CH1_kzKSZcv4_j97vhEf-mUEhBXoR6C-IVUuWamFGXNeMadGhS5MM3UpiAToPKNpgYy_jUXEabGXw
p2059
sVprice_level
p2060
I3
sVplace_id
p2061
VChIJIUT7rEOHhYARucp3wM-HhBs
p2062
sVformatted_address
p2063
V55 Music Concourse Dr, San Francisco, CA 94118, United States
p2064
sVid
p2065
Vd920c64674d4af2f684358adccbdf3f04eb70002
p2066
sVformatted_phone_number
p2067
V(415) 379-8000
p2068
sVopening_hours
p2069
(dp2070
Vweekday_text
p2071
(lp2072
VMonday: 9:30 am \u2013 5:00 pm
p2073
aVTuesday: 9:30 am \u2013 5:00 pm
p2074
aVWednesday: 9:30 am \u2013 5:00 pm
p2075
aVThursday: 9:30 am \u2013 5:00 pm
p2076
aVFriday: 9:30 am \u2013 5:00 pm
p2077
aVSaturday: 9:30 am \u2013 5:00 pm
p2078
aVSunday: 11:00 am \u2013 5:00 pm
p2079
asVopen_now
p2080
I00
sVperiods
p2081
(lp2082
(dp2083
Vclose
p2084
(dp2085
Vday
p2086
I0
sVtime
p2087
V1700
p2088
ssVopen
p2089
(dp2090
Vday
p2091
I0
sVtime
p2092
V1100
p2093
ssa(dp2094
Vclose
p2095
(dp2096
Vday
p2097
I1
sVtime
p2098
V1700
p2099
ssVopen
p2100
(dp2101
Vday
p2102
I1
sVtime
p2103
V0930
p2104
ssa(dp2105
Vclose
p2106
(dp2107
Vday
p2108
I2
sVtime
p2109
V1700
p2110
ssVopen
p2111
(dp2112
Vday
p2113
I2
sVtime
p2114
V0930
p2115
ssa(dp2116
Vclose
p2117
(dp2118
Vday
p2119
I3
sVtime
p2120
V1700
p2121
ssVopen
p2122
(dp2123
Vday
p2124
I3
sVtime
p2125
V0930
p2126
ssa(dp2127
Vclose
p2128
(dp2129
Vday
p2130
I4
sVtime
p2131
V1700
p2132
ssVopen
p2133
(dp2134
Vday
p2135
I4
sVtime
p2136
V0930
p2137
ssa(dp2138
Vclose
p2139
(dp2140
Vday
p2141
I5
sVtime
p2142
V1700
p2143
ssVopen
p2144
(dp2145
Vday
p2146
I5
sVtime
p2147
V0930
p2148
ssa(dp2149
Vclose
p2150
(dp2151
Vday
p2152
I6
sVtime
p2153
V1700
p2154
ssVopen
p2155
(dp2156
Vday
p2157
I6
sVtime
p2158
V0930
p2159
ssassVvicinity
p2160
V55 Music Concourse Dr, San Francisco
p2161
sVscope
p2162
VGOOGLE
p2163
sVwebsite
p2164
Vhttp://www.calacademy.org/
p2165
sVutc_offset
p2166
I-480
sVuser_ratings_total
p2167
I621
sVphotos
p2168
(lp2169
(dp2170
Vwidth
p2171
I640
sVheight
p2172
I427
sVphoto_reference
p2173
VCnRnAAAAphBfJleDIEekFOA1_ODSWQm7EAYKBFjnzb6fwqBfnImfTX_7UETwrnHIgLJyGjG_rMQ9eMNkOWUVbXGEmzcyxpN_Weh1-jmGrWczq3yUf3H1WgBxvQJSUR059yRYK9hJ9rWSMUlgn_toG9DSk9wa8RIQICv2kIrzu_tEiO9bDXuBVBoUpMzf2zWcV74KDew-r_x75RkpNhk
p2174
sVhtml_attributions
p2175
(lp2176
sa(dp2177
Vwidth
p2178
I482
sVheight
p2179
I640
sVphoto_reference
p2180
VCnRnAAAA-Ax-s2GKW7oTpEE8Dl3fXl8kmzA6_hn_8YD1CUzjgYJDV7yTer3fmT6mlyG8z6P-F94BnTveu9YGuD74CrocPmbMwJjR5GRGzX4Kd34n3Wnj9tfs_Q3KLoVGtOkabEyPUWpnnAcgzkskcTZNrlwH-RIQOf6TJmbGP9JRxZvk0d7UZBoUFYV-P5X6kuQvJGRIz9bqZZpYtuw
p2181
sVhtml_attributions
p2182
(lp2183
sa(dp2184
Vwidth
p2185
I640
sVheight
p2186
I427
sVphoto_reference
p2187
VCnRnAAAAgCsuUA7FjJvEtLHHSPZ7cyIt7orjZo2Zf7hpwxrpErV-tsgQ2aemJGiaattZ_VZewDfu-cGiG45GFhaoYUuLSQ9J4R0JRIUmcaimGg4BZuLrlN1TVIwpe2OfuX1aD9NvMOoXuRcZGgFup-bzNHwB1BIQkUiCXAud1QCSMx0u0OvpTBoUKCxnCxxlcPYJKyi0Vs6ybHPvieI
p2188
sVhtml_attributions
p2189
(lp2190
sa(dp2191
Vwidth
p2192
I640
sVheight
p2193
I427
sVphoto_reference
p2194
VCnRnAAAAptyPeZV--mK_HfQ0m32b6SlruSVcY70TKGxAoedIjiNWF6OppTTelVyD_126Ovmyg5WPEKusuxAwx1ag61UGYUNmcZ_L9C3BeIrZhtPc4jfjWzrPXAh_H6CKrMdyP5vzAbg7J97K3ysOo9JcgfDBvBIQotJEbdG81DlRSHoXssGBXRoUijhzhZnpzHS5eHBCaFFv4lgkYXU
p2195
sVhtml_attributions
p2196
(lp2197
sa(dp2198
Vwidth
p2199
I640
sVheight
p2200
I457
sVphoto_reference
p2201
VCnRnAAAAYyO3rtirf9BvHpvs5e0mJVNAN1F08mMFw7JZRy-GZHWScXqEsAdyTr4duCjI4MhQXpTDDMGliABCiQRbsv4RnO31naQXnEWwy5Q3SKiG8yH-BKbbmWtu1aA80y_p6oHRU0IAkPwweIeeh-2tseMZ1hIQrii7Ufa_K6M0fP0I5mzngxoURAGh2dJJdfxNhsE0Qc5q1q7EaW0
p2202
sVhtml_attributions
p2203
(lp2204
sa(dp2205
Vwidth
p2206
I640
sVheight
p2207
I480
sVphoto_reference
p2208
VCnRnAAAAQJDOQ6VGE4Woi33ekxsNvIbOfzkynpSzi-WkedpOMiJcVvHQyU6ZJ_MV3-pERKbXb_kXjPdEv-6xvFnN848YxuA99p1c-BQWwHvFOJJlfzlnN3WBHo0jZICrjjNoTA3e3yzhG4crlhz_4aNsvItmPBIQ6RInnVop1qUYqgqqRcQ_rhoU4fq2rW_hd1_yL1vBLIgynTodDvE
p2209
sVhtml_attributions
p2210
(lp2211
sa(dp2212
Vwidth
p2213
I562
sVheight
p2214
I640
sVphoto_reference
p2215
VCnRnAAAAZcoYSeE9d6eUq7sTan1QJ5XuB5EL9s2vwZsl__sAq6f2tfxkGWayLuwemx9vyVFWWgh_Akq3JHN0OTuZAXZ3flOzFBQvyajtd4LYhzh6x9CrLvUmKRs7rQGLTXwRCCp6Yd25b9LEmO7yhU-y3Fy3JRIQgsDXShZpU5XBwI3ahNyWxhoUf4UVuCSH3d-d5X5_tOKMJ3H10iA
p2216
sVhtml_attributions
p2217
(lp2218
sa(dp2219
Vwidth
p2220
I640
sVheight
p2221
I443
sVphoto_reference
p2222
VCnRnAAAAfdrw27nB8_PXVKK4umEYRG7d9KVECEyogS_vt6KJVaAJjvIUwGGv71aoKVYusUXPBJVAsQNLFDXfAtekjUVJ2nVyC-DMhBFXoRl4QHtVxiFrnigTUwBk29B0SGmm-Mg-nZGw-MFjZGPXFTsQE4m8hBIQnQlpO-FCOHwjA_V37L1WYhoUsOISoZ4VT-ygYoPyiXjPR8JMC3k
p2223
sVhtml_attributions
p2224
(lp2225
sa(dp2226
Vwidth
p2227
I2048
sVheight
p2228
I1536
sVphoto_reference
p2229
VCnRqAAAA4loB8tZGdUC_XYIDuzCE-awasVTNhCwDUQqX67XuNmvhov7IHvr1ct9NmjHWbzA8TzT9YyovPU8Yhi7kheFi3KlU_5V7lzaYLX10niaXqqnjUgW0qRDiLpFwvH_dlmVf34sGP3RGtYFEK7N28ANFGxIQLCFcO1ZxKXf-3I4nLWQpWBoUmKNBL-SsGruYv00mRJDd26qYfSU
p2230
sVhtml_attributions
p2231
(lp2232
V<a href="https://plus.google.com/104847770319584345133">Shiraz Siddiqui</a>
p2233
asa(dp2234
Vwidth
p2235
I533
sVheight
p2236
I400
sVphoto_reference
p2237
VCnRmAAAAxEU_cErWjoNnVBZb30KcPvwZjdO0cUlnqks-zCsHEcyt3mgScioxA9tbEl5O12F8n_IyDSUgPGYBF4hHAyW8D8tzXVIM4QQlddbZ3cHU-jAqqDhm0xr90H0sGxXf967J0HP33kQOstpgryOvTd7y8BIQ2az5FNmNODwgMeryzig0uxoUJOuRMXNamf750ASeToAUxRfn1zE
p2238
sVhtml_attributions
p2239
(lp2240
V<a href="https://plus.google.com/116600105708585783882">Edwin Ragadio</a>
p2241
asasVtypes
p2242
(lp2243
Vaquarium
p2244
aVmuseum
p2245
aVestablishment
p2246
asVicon
p2247
Vhttp://maps.gstatic.com/mapfiles/place_api/icons/aquarium-71.png
p2248
sVname
p2249
VCalifornia Academy of Sciences
p2250
sVurl
p2251
Vhttps://plus.google.com/116851551368109810342/about?hl=en-US
p2252
sVadr_address
p2253
V<span class="street-address">55 Music Concourse Dr</span>, <span class="locality">San Francisco</span>, <span class="region">CA</span> <span class="postal-code">94118</span>, <span class="country-name">United States</span>
p2254
sVinternational_phone_number
p2255
V+1 415-379-8000
p2256
sVreviews
p2257
(lp2258
(dp2259
Vrating
p2260
I4
sVaspects
p2261
(lp2262
(dp2263
Vrating
p2264
I2
sVtype
p2265
Voverall
p2266
sasVlanguage
p2267
Ven
p2268
sVtext
p2269
VThe Academy of sciences has an amazing aquarium complex that takes a long time to explore and see completely. The layout can be a bit confusing at first, but the high quality exhibits and the signage help. I really like their super small mini aquarium showcasing one tiny type of shrimp or crab, they are very detailed and neat.\u000aTheir biosphere/dome is really cool too, it has a lot to see and spend time in. It's a one way trip: when you get in, you look at things, walk to the top, and take an elevator to exit into the aquarium.\u000aI expected more hands-on things but I guess that's for the Exploratorium.\u000aTheir planetarium, while limited in seats (get a pass as soon as you arrive!) is cool. \u000aI went for the 21+ Thursday night events, which are great, and with a theme, but get very very crowded.
p2270
sVauthor_name
p2271
VJulian Fessard
p2272
sVauthor_url
p2273
Vhttps://plus.google.com/112118270664425522168
p2274
sVtime
p2275
I1412989932
sa(dp2276
Vrating
p2277
I5
sVaspects
p2278
(lp2279
(dp2280
Vrating
p2281
I3
sVtype
p2282
Voverall
p2283
sasVlanguage
p2284
Ven
p2285
sVtext
p2286
VUPDATING TO 5 stars!!!\u000aGot to go here for a city experts event... it was amazing! We got to listen to the tank diver talk about the awesome reef tank, and the older lady docent was awesome about telling us about all the fish and the alligators. Now that I'm expecting I can't wait to take my daughter here to watch all the fish swim by in the tanks, then travel to african savanna and see the zebras\u000a\u000aPrevious:\u000aOk so we all go here on field trips as kids and that's a memory that we hold dear. So you can imagine my surprise as an adult when I came here for one of their nightlife events and the whole inside was changed. It was really disorienting, but I do have to say they new design was still really awesome.\u000a\u000aHOWEVER, once I got acclimated to the changes, I actually had a pretty good time. I took glass with me and my favorite part was the tide pools. The staff were awesome and let me record them talking about the starfish. It made my night really special!!\u000a\u000aDefinitely checkout the nightlife events!!! Fish,dancing, & fun how can you go wrong???
p2287
sVauthor_name
p2288
VShauna Mork
p2289
sVauthor_url
p2290
Vhttps://plus.google.com/110513218467589779477
p2291
sVtime
p2292
I1411720448
sa(dp2293
Vrating
p2294
I5
sVaspects
p2295
(lp2296
(dp2297
Vrating
p2298
I3
sVtype
p2299
Voverall
p2300
sasVlanguage
p2301
Ven
p2302
sVtext
p2303
VThis place is amazing and one of the most impressive places to take a brainy date to. They have these Night-Life events that take place every Thursday and the theme is basically, science meets pop culture, meets a ginger tonic. It is incredibly fun and very hipster approved in my opinion. The drinks are not cheap of course, but the entrance tickets are at only $12 per person. They even have live-ostrich babies! If you can't win date of the year here then you're standing in the wrong museum. OH! and check out the starlight from the living roof exhibit, and get there early to catch the planetarium as it fills up in an instant.
p2304
sVauthor_name
p2305
VMisha Metrikin
p2306
sVauthor_url
p2307
Vhttps://plus.google.com/114890117672430115819
p2308
sVtime
p2309
I1413259773
sa(dp2310
Vrating
p2311
I5
sVaspects
p2312
(lp2313
(dp2314
Vrating
p2315
I3
sVtype
p2316
Voverall
p2317
sasVlanguage
p2318
Ven
p2319
sVtext
p2320
VThe Cal Academy is a great place for people of all ages. Everyone can find something they love here, whether it's ants, lizards, spiders and butterflies in the Rainforest or jellyfish and an albino crocodile in the Aquarium. Though the entrance is pricey, Cal Academy provides hours of fun, especially on a rainy day. And if you're of age, don't miss Nightlife on Thursdays!
p2321
sVauthor_name
p2322
VSamantha Berg
p2323
sVauthor_url
p2324
Vhttps://plus.google.com/107767768560438055175
p2325
sVtime
p2326
I1414974127
sa(dp2327
Vrating
p2328
I5
sVaspects
p2329
(lp2330
(dp2331
Vrating
p2332
I3
sVtype
p2333
Voverall
p2334
sasVlanguage
p2335
Ven
p2336
sVtext
p2337
VI love this place! What I really enjoy about it is that there is so much to learn and see. My favorite things are the rainforest where you get to go to an enclosed area and experience the rainforest habitat. Yes, this means humidity, bugs, butterflies, birds, lizards, etc.! You ascend the different levels of the rainforest and get to learn different environments. I also enjoy the beautiful fish in the coral reef section, I can just stay there all day and look at the different colors and variety of fish! There's also penguins, the albino alligator, etc. and I also love the living roof which also has an amazing view. I did go to the theatre once to watch a show when they first opened and the seats were reclined and comfortable, the space was so quiet and dark and it made me sleepy! I came here on the Thursday night events and those were pretty fun too, live music and you get to drink!
p2338
sVauthor_name
p2339
VAprille Espinueva
p2340
sVauthor_url
p2341
Vhttps://plus.google.com/100822860986184584169
p2342
sVtime
p2343
I1413349742
sasVgeometry
p2344
(dp2345
Vlocation
p2346
(dp2347
Vlat
p2348
F37.769865
sVlng
p2349
F-122.466095
sssVaddress_components
p2350
(lp2351
(dp2352
Vlong_name
p2353
V55
p2354
sVshort_name
p2355
V55
p2356
sVtypes
p2357
(lp2358
Vstreet_number
p2359
asa(dp2360
Vlong_name
p2361
VMusic Concourse Dr
p2362
sVshort_name
p2363
VMusic Concourse Dr
p2364
sVtypes
p2365
(lp2366
Vroute
p2367
asa(dp2368
Vlong_name
p2369
VSan Francisco
p2370
sVshort_name
p2371
VSF
p2372
sVtypes
p2373
(lp2374
Vlocality
p2375
aVpolitical
p2376
asa(dp2377
Vlong_name
p2378
VCalifornia
p2379
sVshort_name
p2380
VCA
p2381
sVtypes
p2382
(lp2383
Vadministrative_area_level_1
p2384
aVpolitical
p2385
asa(dp2386
Vlong_name
p2387
VUnited States
p2388
sVshort_name
p2389
VUS
p2390
sVtypes
p2391
(lp2392
Vcountry
p2393
aVpolitical
p2394
asa(dp2395
Vlong_name
p2396
V94118
p2397
sVshort_name
p2398
V94118
p2399
sVtypes
p2400
(lp2401
Vpostal_code
p2402
asassba.