(lp0
(ispot
Spot
p1
(dp2
S'duration'
p3
NsS'data'
p4
(dp5
Vwebsite
p6
Vhttp://sanfrancisco.giants.mlb.com/sf/ballpark/
p7
sVrating
p8
F4.7
sVutc_offset
p9
I-480
sVuser_ratings_total
p10
I520
sVname
p11
VAT&T Park
p12
sVreference
p13
VCnRjAAAAQXknqqEMuhT1CbmGi5XaBAY97YwkDoR0uSsbfgi4ONXAzwhUhjwfEcuK0U3fByw94u8wFapDdKaXsW9itgxEU8T6n7izaQTqaYpgOe1Rd1QEzCqLt57NTSgcx3mc-AKp0Foh4RGF01aK6kUGqI-ERxIQrpK8c3T145kpdzaYojMESBoUN7ARYNtTYH0pUaIF2Kok8oxCdvU
p14
sVphotos
p15
(lp16
(dp17
Vphoto_reference
p18
VCnRtAAAAVeZZSOjY5SaADYI8oM3yiiQl4XLxbS1k_bYqQ7caEuLnmbYiwYrLml7tK5wT-AkXkVbN3DpS8w3dxT_rdulOqGmKZD_iIa5hleZWLLxakpVgasxx2hO82I4V6tv8aWFMU7MUpHlTlsnYbIqfAyvvLBIQBNI3S9wl3QzKiL411DvRVxoUwQNzUuucanqKO26lzKu3JCeCmXo
p19
sVwidth
p20
I1632
sVhtml_attributions
p21
(lp22
VFrom a Google User
p23
asVheight
p24
I1224
sa(dp25
Vphoto_reference
p26
VCpQBhgAAAKbxuu3B5ilid-y5lEoMqbzv8cZouChgSGQ9KhLOQ86ojjNY5MVZBipt1BQIc44_wTmQZ3ll6TPctPTpnS1ZdgjigNKHd_VVMEomllYs1zvDyCinFmCbJqyVI3sx6OtVxa1IFzYR0K71ReysnW0cEFCtGuKoPoBDeLhmzkDfeOMHSgrUPn7wvB7-kOYxlMJkOhIQYXoA2ceM9AnUfb3k4GHU8BoUOmh3MvcFMIakUD-XwqfVU538Sjc
p27
sVwidth
p28
I2048
sVhtml_attributions
p29
(lp30
V<a href="https://plus.google.com/106170335079428053302">Corrie Davidson</a>
p31
asVheight
p32
I1536
sa(dp33
Vphoto_reference
p34
VCoQBdgAAAP_4SZ9tCv9VABvBoe7xfU6VvlaRJ19yjf87i0kJKak09iZrQZwynnt_cbfYx9Let7FJIBpn9qr_DGoqIq6ZiNI1gjswZu3xTsrRTSI3PIG4DNSMvi4Pyruwln2q8gyY_BmIyUMsRVvUzudlo4mefrXriWNrKVnP9vPbMrIOrjcgEhAyJGOO2egCwhV7S-FtiGCTGhTB6W1GGShuDzweiht3WM7RvmibuA
p35
sVwidth
p36
I1024
sVhtml_attributions
p37
(lp38
VFrom a Google User
p39
asVheight
p40
I768
sa(dp41
Vphoto_reference
p42
VCoQBcQAAAIz-h51vclgRrs163l-kVeUnrJdWojcNUy9HlQ2W3vBrBLUcQKAS42yEkXbERyB9F1G8jbBbVG7xW8Z44o3M1OfAbu-RVbZfn6YSVUK3ju34eRIXEHGG4yN3tN9rVKIeHjKwCjYAo3ZgBkP2FHjFoDyyBrS8aU7tAedXiTCWWJ1uEhA2iZb6wsbZoIE8w_Uj5rm2GhSTUKODardHle_aGGam8JU6bNR0Wg
p43
sVwidth
p44
I2048
sVhtml_attributions
p45
(lp46
V<a href="https://plus.google.com/112095627515954870302">Garrett Messer</a>
p47
asVheight
p48
I1536
sa(dp49
Vphoto_reference
p50
VCnRoAAAAQaJz3o911Y78iC-H_UqI5_eAfHvo6yBmypjDibiiXdg8baAnwR5Og2XZTvYCYNKgvycI8S8vsp8Q-lsLKVKtdGRY-bRo4xaHVeUxgT9YcQ6xz6BGkL8ccvb7M53rvXw021RhzVAf9D3EmcXJMYqrnxIQoBVt0rg8lAKEUyGLgEzx7xoUxia9tn2i1KDYZZNm4eZCYLUDJcc
p51
sVwidth
p52
I1280
sVhtml_attributions
p53
(lp54
V<a href="https://plus.google.com/108152127945250235563">Michael Villalobos Gomez</a>
p55
asVheight
p56
I960
sa(dp57
Vphoto_reference
p58
VCnRtAAAALESpyAysuzRO8BFwooPtrAtOrXHA8VfFOyP6yUkCJ7Tk0QJBQftZ8anT1eDgmDFlAczCz1UVa_vhWSwK0w4oIsf_VML9OekyGIo4kQXn5icGpSzN3msPAirZRjgwiWLa6v-lN55-exkk3VbpAOQTPBIQc-CcLDijMc9ooslIS3H18hoUA2IxAzq3NFRxk5aVLcVvuNiVzlE
p59
sVwidth
p60
I500
sVhtml_attributions
p61
(lp62
V<a href="https://plus.google.com/117701647401983318963">Piero Fusco</a>
p63
asVheight
p64
I332
sa(dp65
Vphoto_reference
p66
VCnRtAAAAIpY5T9ljHjIdKi_g-wWi-F24qwXRRlTAuJpjBgth489P2UzLv8GNx9-Ox_BRruEHh5DTaPWf5F4RpLcwr-6EA7DDzWTXAUED0L3mLLwKl1Uls5ZWShXKRXl0t0BV-2RrpVLJpfKzq98257oPGZeSURIQfs16T1M-DD8-AzCmpXr-EhoUuAjo2Cei7sRfLzk85dvA9xFCgj4
p67
sVwidth
p68
I394
sVhtml_attributions
p69
(lp70
VFrom a Google User
p71
asVheight
p72
I314
sa(dp73
Vphoto_reference
p74
VCpQBhgAAAH3_MogAluYh3jNxIuS1Umwel4sdu6b4vDPuCfV5dDw0ph4kAZLDWySBOwwLVGyIHszSW8PJbJKCV3bBF7iu6PwyVG2kXEKOhE76rP0kzq3w_zF-1fYsZOGGbhE2FcbS31LSNCOoxEmXG2PXOBPwwuWkW-CeAk4k18-_M6DMQP69m8CnAMULLBQPeyxVT8xMQRIQKhBJ9mkQoh_XO-0wgzr1EhoUFsLfmv_3wTA0wP07xCGeeIHU7H4
p75
sVwidth
p76
I2048
sVhtml_attributions
p77
(lp78
V<a href="https://plus.google.com/106170335079428053302">Corrie Davidson</a>
p79
asVheight
p80
I1536
sa(dp81
Vphoto_reference
p82
VCnRoAAAAhd1Vfa2A7kNYF2vXYYXRTfDhnBsB86CrcKzYY1fLOSEcV_h0oNdFWVeQ3eE1FWyiPWcKO8L3OGnVc25trBnXDajNJWZywi4AVoZqVW_aw0f2tGvymMxCcxT5BXv1XnUZoDqsA3MRhRFU3VmGLcqRVRIQklLp3Sd51oXKVYtsV2LWORoU2sp3kLFkf1loS_7xx2ZbKE8mX0w
p83
sVwidth
p84
I2448
sVhtml_attributions
p85
(lp86
V<a href="https://plus.google.com/114499818319322887155">Tyler Inocencio</a>
p87
asVheight
p88
I3264
sa(dp89
Vphoto_reference
p90
VCnRtAAAABJm5UhczAxm2yk78GOrTHMQa1emElduY036ful83pc9TNcAgRfoIaxc2PJZgLaC4zPtpa55KTeLof8cNIqcVUHyy4ugmmUcPnCYrbEVHExyG8lO58wTkKr2h52U1EJnEPX6ESTXFzZ1OY6l6D0VgaRIQfv8JsK5C4h1Xm0Hjliz88RoUD2fim0ZkD6UVxnOJFiqQWxFEUng
p91
sVwidth
p92
I1296
sVhtml_attributions
p93
(lp94
V<a href="https://plus.google.com/117454953906757170811">George Fosselius</a>
p95
asVheight
p96
I972
sasVgeometry
p97
(dp98
Vlocation
p99
(dp100
Vlat
p101
F37.778595
sVlng
p102
F-122.38927
sssVadr_address
p103
V<span class="street-address">24 Willie Mays Plaza</span>, <span class="locality">San Francisco</span>, <span class="region">CA</span> <span class="postal-code">94107</span>, <span class="country-name">United States</span>
p104
sVplace_id
p105
VChIJ_T25cNd_j4ARehGmHe0pT84
p106
sVinternational_phone_number
p107
V+1 415-972-2000
p108
sVvicinity
p109
V24 Willie Mays Plaza, San Francisco
p110
sVreviews
p111
(lp112
(dp113
Vrating
p114
I5
sVaspects
p115
(lp116
(dp117
Vrating
p118
I3
sVtype
p119
Voverall
p120
sasVlanguage
p121
Ven
p122
sVtext
p123
VI've been here for Giants baseball game,  concerts, and corporate events. The place is very clean and easy to walk through. During games there's TVs all around the stadium near the the food stands and bathrooms so you don't miss any action. The lines for food may be long, and there's so many so it's not too bad! If you are lucky if you go the Virgin America club level you're treating to a great view of the field and even better access to food and drinks! The club level has so much space including a bowling ball alley, galleries of old baseball bats, etc. Try to take a tour of the place if you can! The garden in the back is a welcome addition.
p124
sVauthor_name
p125
VAprille Espinueva
p126
sVauthor_url
p127
Vhttps://plus.google.com/100822860986184584169
p128
sVtime
p129
I1413043156
sa(dp130
Vrating
p131
I5
sVaspects
p132
(lp133
(dp134
Vrating
p135
I3
sVtype
p136
Voverall
p137
sasVlanguage
p138
Ven
p139
sVtext
p140
VGreat stadium - and in the middle of SOMA as well!  The parking can be a bit annoying though as an FYI.\u000a\u000aThe stadium itself is great - I've only come for Giants games, and I've sat usually in the Virgin Airlines area (there's a separate escalator for this).  I really enjoy the food here - I love the garlic fries and I love how clean this stadium is even though it's been open for some time!  \u000a\u000aIt can get very cold here - most people don't realize how cold San Francisco can get at night without the sun, so definitely bring a jacket!  The wine can be really pricey as well so watch out for that. 
p141
sVauthor_name
p142
VSally Zhao
p143
sVauthor_url
p144
Vhttps://plus.google.com/112631984024381153921
p145
sVtime
p146
I1412978141
sa(dp147
Vrating
p148
I5
sVaspects
p149
(lp150
(dp151
Vrating
p152
I3
sVtype
p153
Voverall
p154
sasVlanguage
p155
Ven
p156
sVtext
p157
VBeautiful park, awesome time! We went to the Giants vs. Dodgers game, we're Dodger fans, and people were actually pretty civil, considering how big of a game it was. People were telling me before I went, "try the garlic fries," NASTY!! I only took 6 bites or so, and that's only because they were $8!! I tossed them. And I like garlic. But overall, it was a great experience, pricey, just like any other professional game, but worth it.
p158
sVauthor_name
p159
VAmy Blaisdell
p160
sVauthor_url
p161
Vhttps://plus.google.com/100327111590932161816
p162
sVtime
p163
I1410903632
sa(dp164
Vrating
p165
I5
sVaspects
p166
(lp167
(dp168
Vrating
p169
I3
sVtype
p170
Voverall
p171
sasVlanguage
p172
Ven
p173
sVtext
p174
VWhat can I say about AT&T park?! Anywhere you sit or stand is awesome!!! Entertainment galore! I love their crab cake sandwiches and of course, their garlic fries. The best thing about AT&T Park - The San Francisco Giants!!!!
p175
sVauthor_name
p176
VSharon Bee
p177
sVauthor_url
p178
Vhttps://plus.google.com/112933525571389870098
p179
sVtime
p180
I1413243471
sa(dp181
Vrating
p182
I5
sVaspects
p183
(lp184
(dp185
Vrating
p186
I3
sVtype
p187
Voverall
p188
sasVlanguage
p189
Ven
p190
sVtext
p191
VMy favorite place in San Francisco. Such a beautiful ballpark with amazing energy. Tons of delicious and unique food options. So much to see and do, you will never be bored. Depending on time of the year you can get tickets for pretty inexpensive. Try the garlic fries!
p192
sVauthor_name
p193
VBrendon Nemeth
p194
sVauthor_url
p195
Vhttps://plus.google.com/105213255561655655900
p196
sVtime
p197
I1413257141
sasVformatted_phone_number
p198
V(415) 972-2000
p199
sVurl
p200
Vhttps://plus.google.com/114995991922311473611/about?hl=en-US
p201
sVscope
p202
VGOOGLE
p203
sVaddress_components
p204
(lp205
(dp206
Vlong_name
p207
V24
p208
sVtypes
p209
(lp210
Vstreet_number
p211
asVshort_name
p212
V24
p213
sa(dp214
Vlong_name
p215
VWillie Mays Plaza
p216
sVtypes
p217
(lp218
Vroute
p219
asVshort_name
p220
VWillie Mays Plaza
p221
sa(dp222
Vlong_name
p223
VSan Francisco
p224
sVtypes
p225
(lp226
Vlocality
p227
aVpolitical
p228
asVshort_name
p229
VSF
p230
sa(dp231
Vlong_name
p232
VCalifornia
p233
sVtypes
p234
(lp235
Vadministrative_area_level_1
p236
aVpolitical
p237
asVshort_name
p238
VCA
p239
sa(dp240
Vlong_name
p241
VUnited States
p242
sVtypes
p243
(lp244
Vcountry
p245
aVpolitical
p246
asVshort_name
p247
VUS
p248
sa(dp249
Vlong_name
p250
V94107
p251
sVtypes
p252
(lp253
Vpostal_code
p254
asVshort_name
p255
V94107
p256
sasVformatted_address
p257
V24 Willie Mays Plaza, San Francisco, CA 94107, United States
p258
sVid
p259
V2fabca457541277971b0bc91a40bbad02ecbb5ba
p260
sVtypes
p261
(lp262
Vstadium
p263
aVestablishment
p264
asVicon
p265
Vhttp://maps.gstatic.com/mapfiles/place_api/icons/stadium-71.png
p266
ssba(ispot
Spot
p267
(dp268
g3
Nsg4
(dp269
Vrating
p270
F4.3
sVreference
p271
VCnRoAAAAr2CwUf3YCgJdKAFq0gmjN74EJ9VnUhWqA8V3rSklVz5Dj_i51ZMP-UgLVqjONBSletoMxgQPUbuQXmCogffcTiXp8vy14vLzPFY4920zFBcIWQVSBzxOXDQ_bz6l3eZLbg8Jjcl4iLMcINpiFnepzBIQ78mY7cJGO5BKCmevd2F3JhoUFhf90bkFsu4B8yGpLwDc0W3GN-o
p272
sVplace_id
p273
VChIJI7NivpmAhYARSuRPlbbn_2w
p274
sVurl
p275
Vhttps://plus.google.com/104010277220168946324/about?hl=en-US
p276
sVformatted_address
p277
V50 Hagiwara Tea Garden Dr, San Francisco, CA 94118, United States
p278
sVid
p279
V2a7464f9faa0b872fcc3132045a4b29e7661f83c
p280
sVopening_hours
p281
(dp282
Vweekday_text
p283
(lp284
VMonday: Closed
p285
aVTuesday: 9:30 am \u2013 5:15 pm
p286
aVWednesday: 9:30 am \u2013 5:15 pm
p287
aVThursday: 9:30 am \u2013 5:15 pm
p288
aVFriday: 9:30 am \u2013 8:45 pm
p289
aVSaturday: 9:30 am \u2013 5:15 pm
p290
aVSunday: 9:30 am \u2013 5:15 pm
p291
asVopen_now
p292
I00
sVperiods
p293
(lp294
(dp295
Vclose
p296
(dp297
Vday
p298
I0
sVtime
p299
V1715
p300
ssVopen
p301
(dp302
Vday
p303
I0
sVtime
p304
V0930
p305
ssa(dp306
Vclose
p307
(dp308
Vday
p309
I2
sVtime
p310
V1715
p311
ssVopen
p312
(dp313
Vday
p314
I2
sVtime
p315
V0930
p316
ssa(dp317
Vclose
p318
(dp319
Vday
p320
I3
sVtime
p321
V1715
p322
ssVopen
p323
(dp324
Vday
p325
I3
sVtime
p326
V0930
p327
ssa(dp328
Vclose
p329
(dp330
Vday
p331
I4
sVtime
p332
V1715
p333
ssVopen
p334
(dp335
Vday
p336
I4
sVtime
p337
V0930
p338
ssa(dp339
Vclose
p340
(dp341
Vday
p342
I5
sVtime
p343
V2045
p344
ssVopen
p345
(dp346
Vday
p347
I5
sVtime
p348
V0930
p349
ssa(dp350
Vclose
p351
(dp352
Vday
p353
I6
sVtime
p354
V1715
p355
ssVopen
p356
(dp357
Vday
p358
I6
sVtime
p359
V0930
p360
ssassVvicinity
p361
V50 Hagiwara Tea Garden Dr, San Francisco
p362
sVscope
p363
VGOOGLE
p364
sVwebsite
p365
Vhttp://deyoung.famsf.org/
p366
sVutc_offset
p367
I-480
sVuser_ratings_total
p368
I121
sVphotos
p369
(lp370
(dp371
Vphoto_reference
p372
VCnRwAAAAJU2X4pHAzF6-U77_bttuiTX8ivDa2tczCTOtltHeN-btRxU5ZQqDQZCIp0YZlGtACHDqtT0y1Z1hzB3mRZ2jF941QK2fcE_FzIyrQVac4bAMJYxTwoafcubdg6QC61CMWCOAJdxA89p34rEjRXhwjRIQUQtav31J_ZtPI6wylY8FMxoUEl2MbdZS3N9PB_Ui-XU3MuFZvRw
p373
sVwidth
p374
I953
sVhtml_attributions
p375
(lp376
sVheight
p377
I953
sa(dp378
Vphoto_reference
p379
VCnRqAAAAaGHGY4PdiEI4uppjLNwSpOCrQed9hOu1-06rVmJGkU6KEp41r0briDq6hD8zgaPMOGg0GkIfOGLUbuxrvFFg3opFu8J8fJFdJRGDHYYbM4Zaxv8h07zzyhzMMXPrcpWPsqpjUFVgf080bg_B569n8BIQ2dvEijuuNO24sP2LqX7-URoUcm0K2FN43ULT6pAbNWh-siWs4eI
p380
sVwidth
p381
I2048
sVhtml_attributions
p382
(lp383
V<a href="https://plus.google.com/107703067300113514526">Cornelius O&#39;Leary Jr</a>
p384
asVheight
p385
I1361
sa(dp386
Vphoto_reference
p387
VCnRqAAAA2lfLyqumOOs6-kFgzr5xZtrO2XSInFIuJGI6-my-xOX_mLei-4FTglG6i9iPbEUG4XPQ1qYuw-vMesjYeghZ_joJAp6jAIVIMqG4pI-xC5JgsX8fXWAtXMzuA_lkkPBzMnuY2zpN3vJ-TQmIbvEiQRIQvT_ZINT5GsQxVx5l-40SthoUYgG72EiRhIAIpBioadKVvGrhW-Q
p388
sVwidth
p389
I1984
sVhtml_attributions
p390
(lp391
V<a href="https://plus.google.com/113173931251785215708">Henning Nielsen</a>
p392
asVheight
p393
I1488
sa(dp394
Vphoto_reference
p395
VCnRqAAAAEScnzsVkQbIBTTbQzs8yNh0E3NcGnI-G3jXHnOFaAxilqn6sGZxgnRRn_eXJljnMTuJ_RKxMl-TF0QfJwrdd11FqnZBw15AI5xZr1LofsXaQKvp5pmjuPlnT5W5WEsOqOQfMPjCidLULrd-kJ3MmZRIQDmE3Kgh5OO8uZQCOrXA1yxoU_UoxPbfvxs6dlS0uTPJEP_HesEs
p396
sVwidth
p397
I380
sVhtml_attributions
p398
(lp399
V<a href="https://plus.google.com/100146962083959904819">Sarah White</a>
p400
asVheight
p401
I276
sa(dp402
Vphoto_reference
p403
VCnRqAAAAjMbygFO-QRnH_Xa_GCPqz6mHJmSloYkmyyNeh_8OUaHL6AbOKa-gd9m8ojkTaofrZLNJlHeJ09mTG_KPmbkiFTZ0zZTitXepEn99RVwX2bc52kgR7EHM9vNiWb1vO-bZxfPT0qheMUzzvgJZAonAzBIQB1kOnxPmT4amhBOMGHqeVhoUB50KZg1sQI1Laup7EJdVHqIzhxc
p404
sVwidth
p405
I2048
sVhtml_attributions
p406
(lp407
V<a href="https://plus.google.com/107703067300113514526">Cornelius O&#39;Leary Jr</a>
p408
asVheight
p409
I1361
sa(dp410
Vphoto_reference
p411
VCnRqAAAAExwL-tu1oUqr4wD9vagYUA1wlmLjjoYpC8n40jG5wvhZwghOKzb7z_TG1eU52qVYs8blsbOlgcJ51HbiUyOLP6whlxs1YNaJBeUxYWzWhXkjN8s_TlzjFqZIj_kk8XxIeF2KPmjw9wHf9dSHB0u61RIQzONcVLdX3-aNW8Hd9XxF2RoUuw2bvU2dD4iRJxifiwosD-3ZSwM
p412
sVwidth
p413
I2048
sVhtml_attributions
p414
(lp415
V<a href="https://plus.google.com/107703067300113514526">Cornelius O&#39;Leary Jr</a>
p416
asVheight
p417
I1361
sa(dp418
Vphoto_reference
p419
VCnRqAAAAtPL5pIc3PHDjhMpfryEph80OlnWzq6icJFzvhI7VxJZxs9zogRQlq0a2D7mOWxmLbUmVwPWzzBiPSLBXoa8rhAGYUFZQz9WNdxmW3WhcrlrNSRd5cF5GmQ_2Fyzf3sPk0_iSI0pafcyOuGnKRoxOABIQEZv1HqGNkPeGkjkZn81AQRoU40i7boD64HSfroqKJTUrF_Zwngk
p420
sVwidth
p421
I2048
sVhtml_attributions
p422
(lp423
V<a href="https://plus.google.com/107703067300113514526">Cornelius O&#39;Leary Jr</a>
p424
asVheight
p425
I1361
sa(dp426
Vphoto_reference
p427
VCnRqAAAAB17WlSY-KvHsqb3hS5eAShs4ehchU8sLcM3qxiRk0OgJnZvBX15Ej2ZShQ1Ej4FEa7o7Bg9prMNhIIcRka0i1YsytHqzsUBVowQQifnRms_eNIh5WF3MAkW72JNJo5H60hizd9jUR7fcGwBQZCW9cRIQAYiRf30ztn-0XkMqWR1KKRoUlXu737hgM2mWCntsMAg4-2Vw_F4
p428
sVwidth
p429
I2048
sVhtml_attributions
p430
(lp431
V<a href="https://plus.google.com/107703067300113514526">Cornelius O&#39;Leary Jr</a>
p432
asVheight
p433
I1361
sa(dp434
Vphoto_reference
p435
VCnRqAAAAU2PLdr7CTs0iBgrdCTDhaI8INglos552l7pC3HPrq-oJ16MSEUly7Pvd9u8YEy6uOGgl0mJFBl288OSq7IPPuSP-WlrcfzyJmzsOzCUYVsyIG_KEypIJlYisM55Vheri6_WNWot1cttgN3xata7HmhIQqIuDiYa2jBwmcN2GFSuT0xoU4H-o9sSPGk1mTrHrNnJ7xVyVzlM
p436
sVwidth
p437
I2048
sVhtml_attributions
p438
(lp439
V<a href="https://plus.google.com/107703067300113514526">Cornelius O&#39;Leary Jr</a>
p440
asVheight
p441
I1361
sa(dp442
Vphoto_reference
p443
VCnRqAAAAF9uzZizhW0iYhJQ3CQfDOA_j2idvihhy6wwvc0lpn6SM6r17opdc7kgPeD9osBP_7hZIpX512jioD8PhnRvV1GcdGjICnhdqSaW5PvoMlQg7YFTdfKzp5StqjntCe_YUvoWOfx0e-lf9eGG2ZbIKnBIQ6Y1dTCepuqBUNY-gQw07yRoUJSo1lhfSVGI8SUcClcL0tHlFR5A
p444
sVwidth
p445
I2048
sVhtml_attributions
p446
(lp447
V<a href="https://plus.google.com/107703067300113514526">Cornelius O&#39;Leary Jr</a>
p448
asVheight
p449
I1361
sasVtypes
p450
(lp451
Vmuseum
p452
aVestablishment
p453
asVicon
p454
Vhttp://maps.gstatic.com/mapfiles/place_api/icons/museum-71.png
p455
sVname
p456
Vde Young Museum
p457
sVgeometry
p458
(dp459
Vlocation
p460
(dp461
Vlat
p462
F37.771517
sVlng
p463
F-122.468733
sssVadr_address
p464
V<span class="street-address">50 Hagiwara Tea Garden Dr</span>, <span class="locality">San Francisco</span>, <span class="region">CA</span> <span class="postal-code">94118</span>, <span class="country-name">United States</span>
p465
sVinternational_phone_number
p466
V+1 415-750-3600
p467
sVreviews
p468
(lp469
(dp470
Vrating
p471
I5
sVaspects
p472
(lp473
(dp474
Vrating
p475
I3
sVtype
p476
Voverall
p477
sasVlanguage
p478
Ven
p479
sVtext
p480
VGreat collection of American Art, fantastic location and fun place to visit.  Shows change regularly, the permanent collection of glass, silver and furniture on the second floor is not to be missed. You can take the elevator to the top floor tower and see a 360 degree view of Golden Gate Park, The GG Bridge and all the neighborhoods surrounding the park.  Wonderful gardens around the museum too.  The cafe is super, lots of choices and fast, friendly service; dine inside or take your food to the lovely outdoor tables.  
p481
sVauthor_name
p482
VYoni Mayeri
p483
sVauthor_url
p484
Vhttps://plus.google.com/105820450885180571966
p485
sVtime
p486
I1412362196
sa(dp487
Vrating
p488
I5
sVaspects
p489
(lp490
(dp491
Vrating
p492
I3
sVtype
p493
Voverall
p494
sasVlanguage
p495
Ven
p496
sVtext
p497
VI have been to a few major exhibits at this museum and I have to say that it is probably my favorite art museum in San Francisco. The staff here does a great job of presenting their classic collection along with an incredible mixture of popular exhibits and temporary installations that very confidently speak to the zeitgeist of the city. This is an amazing accomplishment. Consider how difficult this must be in a city as cool in San Francisco. But with things like the Warhol exhibit and the Jean Paul Gaultier design timeline tour, the DeYoung maintains its place at the pinnacle of the hyper-cool. Having met the people that work there I can also say that they are truly passionate about translating the method, practice, value, and study of art to their community. This is visible in the balance of fun to academic observation and analysis they have in every showing. There is something here for everyone and it's very presentation and curation is art of an incredible caliber. I could go on.....
p498
sVauthor_name
p499
VMisha Metrikin
p500
sVauthor_url
p501
Vhttps://plus.google.com/114890117672430115819
p502
sVtime
p503
I1413260271
sa(dp504
Vrating
p505
I4
sVaspects
p506
(lp507
(dp508
Vrating
p509
I2
sVtype
p510
Voverall
p511
sasVlanguage
p512
Ven
p513
sVtext
p514
VWas lucky enough to visit the O'Keefe exhibit earlier this year and this is museum going at its finest (helped by the fact that the SF MoMa is closed for the next two years so options are currently slim).\u000aOnly giving it four stars since at $25 a pop for admission, this place isn't exactly a bargain. \u000aMake time to visit the Japanese Tea Garden next door and also be sure to go up to the viewing floor for unmatched views of the Presidio and Golden Gate Park.
p515
sVauthor_name
p516
VElmer Ayala
p517
sVauthor_url
p518
Vhttps://plus.google.com/103969904087092883134
p519
sVtime
p520
I1413179353
sa(dp521
Vrating
p522
I5
sVaspects
p523
(lp524
(dp525
Vrating
p526
I3
sVtype
p527
Voverall
p528
sasVlanguage
p529
Ven
p530
sVtext
p531
VThe de Young is a beautiful and modern museum. Highly recommended; houses a full collection of African art, Native American textiles, modernism, and more. The tower in the de Young also offers access to an expansive view of both Golden Gate Park and the city.
p532
sVauthor_name
p533
VJoyce Tang
p534
sVauthor_url
p535
Vhttps://plus.google.com/101092365012450853182
p536
sVtime
p537
I1414996654
sa(dp538
Vrating
p539
I4
sVaspects
p540
(lp541
(dp542
Vrating
p543
I2
sVtype
p544
Voverall
p545
sasVlanguage
p546
Ven
p547
sVtext
p548
VThis museum has great architecture.   There is a 360 degree overlook in the tower, that is free to access.    The views of the park and bay area are spectacular, but of course dependant on the weather. There are also a sculpture court and maze garden that are free.
p549
sVauthor_name
p550
VAnna Hautzinger
p551
sVauthor_url
p552
Vhttps://plus.google.com/116136613716129316971
p553
sVtime
p554
I1415130977
sasVformatted_phone_number
p555
V(415) 750-3600
p556
sVaddress_components
p557
(lp558
(dp559
Vlong_name
p560
V50
p561
sVtypes
p562
(lp563
Vstreet_number
p564
asVshort_name
p565
V50
p566
sa(dp567
Vlong_name
p568
VHagiwara Tea Garden Dr
p569
sVtypes
p570
(lp571
Vroute
p572
asVshort_name
p573
VHagiwara Tea Garden Dr
p574
sa(dp575
Vlong_name
p576
VSan Francisco
p577
sVtypes
p578
(lp579
Vlocality
p580
aVpolitical
p581
asVshort_name
p582
VSF
p583
sa(dp584
Vlong_name
p585
VCalifornia
p586
sVtypes
p587
(lp588
Vadministrative_area_level_1
p589
aVpolitical
p590
asVshort_name
p591
VCA
p592
sa(dp593
Vlong_name
p594
VUnited States
p595
sVtypes
p596
(lp597
Vcountry
p598
aVpolitical
p599
asVshort_name
p600
VUS
p601
sa(dp602
Vlong_name
p603
V94118
p604
sVtypes
p605
(lp606
Vpostal_code
p607
asVshort_name
p608
V94118
p609
sassba(ispot
Spot
p610
(dp611
g3
Nsg4
(dp612
Vwebsite
p613
Vhttp://sfrecpark.org/destination/telegraph-hill-pioneer-park/coit-tower/
p614
sVrating
p615
F4.1
sVutc_offset
p616
I-480
sVuser_ratings_total
p617
I441
sVname
p618
VCoit Tower
p619
sVreference
p620
VCnRkAAAAJiSypCAbWWsDrsKNUvyXJePgfT3zKpazrOP0S0Xbu7_xUAcLB8C_Qg43k1vpMm3xw9wbkfi3ozsk2x33UeObVKaIxaANUcYvqVDCvxnkRd0_1wvlJCVLEEL0bgg0N71jp5WKnTs_T6G6FUQfqOG6FRIQCYS_pJh03fAEZI2F39ouGxoUVTH8kPJoEvNigQspC8EnzJc12B4
p621
sVgeometry
p622
(dp623
Vlocation
p624
(dp625
Vlat
p626
F37.802395
sVlng
p627
F-122.405822
sssVadr_address
p628
V<span class="street-address">1 Telegraph Hill Blvd</span>, <span class="locality">San Francisco</span>, <span class="region">CA</span> <span class="postal-code">94133</span>, <span class="country-name">United States</span>
p629
sVplace_id
p630
VChIJAQAAQIyAhYARRN3yIQG4hd4
p631
sVvicinity
p632
V1 Telegraph Hill Blvd, San Francisco
p633
sVreviews
p634
(lp635
(dp636
Vrating
p637
I4
sVaspects
p638
(lp639
(dp640
Vrating
p641
I2
sVtype
p642
Voverall
p643
sasVlanguage
p644
Ven
p645
sVtext
p646
VCoit tower has recently undergone some renovations.  (Thanks National Trust for Historic Preservation)   The WPA murals on the ground floor are freshly cleaned, and present interesting visions of life in the 1930's SF.   The stairs are out of commission, so you have to take the small elevator up.   The views are spectacular, particularly on a clear day.  The view from the ground level parking area is also not bad.   On the way down,  try the steps toward the Embarcadero,  very great insights into lush backyards.
p647
sVauthor_name
p648
VAnna Hautzinger
p649
sVauthor_url
p650
Vhttps://plus.google.com/116136613716129316971
p651
sVtime
p652
I1415218790
sa(dp653
Vrating
p654
I4
sVaspects
p655
(lp656
(dp657
Vrating
p658
I2
sVtype
p659
Voverall
p660
sasVlanguage
p661
Ven
p662
sVtext
p663
VAn understated icon of San Francisco. Perched on a rocky hill in the middle of the city's core, this art deco styled tower has impressive views from both it's base and it's viewing platform. Well worth the hike up the hill. Parking anywhere nearby is not going to happen, so take that into account.
p664
sVauthor_name
p665
VTyler Harding
p666
sVauthor_url
p667
Vhttps://plus.google.com/110357160824479158301
p668
sVtime
p669
I1412053153
sa(dp670
Vrating
p671
I4
sVaspects
p672
(lp673
(dp674
Vrating
p675
I2
sVtype
p676
Voverall
p677
sasVlanguage
p678
Ven
p679
sVtext
p680
VAlthough no amazing heights, it's worth a trip if visiting SF.  Tickets are inexpensive and usually a short wait for the elevator ride up.  The inside at the bottom of the tower has beautifully painted murals and the gift shop has all the typical touristy stuff (mugs, maps, shirts, etc).  Depending on your journey to the tower, you can walk to the steep hill from North Beach for added exercise.  \u000aAnd the view from the top is nice, provided it's a clear day!  Pretty small, so be prepared to share windows to look out.
p681
sVauthor_name
p682
VLauren Pinheiro
p683
sVauthor_url
p684
Vhttps://plus.google.com/106990768782331898857
p685
sVtime
p686
I1400785941
sa(dp687
Vrating
p688
I5
sVaspects
p689
(lp690
(dp691
Vrating
p692
I3
sVtype
p693
Voverall
p694
sasVlanguage
p695
Ven
p696
sVtext
p697
VToughed it up the stairs. Enjoyed the view from the base and the stiff breeze. Didn't bother to go to the top. 
p698
sVauthor_name
p699
VYvette Skinner
p700
sVauthor_url
p701
Vhttps://plus.google.com/116618204309104641755
p702
sVtime
p703
I1414728878
sa(dp704
Vrating
p705
I5
sVaspects
p706
(lp707
(dp708
Vrating
p709
I3
sVtype
p710
Voverall
p711
sasVlanguage
p712
Ven
p713
sVtext
p714
VOne of, if not best view of city skyline along with both bridges(if no fog, of course) saw one of last full moon eclipses there years ago. Magical it lasted so long. Got a good contact high, too. No rag-weed, for sure.
p715
sVauthor_name
p716
VRaymond Alvarez
p717
sVauthor_url
p718
Vhttps://plus.google.com/113755175842025386880
p719
sVtime
p720
I1405827204
sasVphotos
p721
(lp722
(dp723
Vphoto_reference
p724
VCnRoAAAAyEUXWWKNFAiEVAaMAEnCJgEztEIIgPoVtHgUdOTDAkgT2PmWw2pFQypNz9GkJ1WRxbl_iUIf69JlDSuqQJ6ELeK6gNQXuYAZYUqcBV5At49FM294CPNP9lNMeQKoGAsFqTbRTGWC-Sat_RttgqOMxhIQLsOgkxtfvuAk1BdJgWSCSBoUlH5_H64KWNR1Li21qudqqalLyI4
p725
sVwidth
p726
I1268
sVhtml_attributions
p727
(lp728
V<a href="https://plus.google.com/116596226154549124014">Kee Wook Lee</a>
p729
asVheight
p730
I947
sa(dp731
Vphoto_reference
p732
VCnRqAAAAaO3arztnOuQIPENgqm8oAH8mkl75UgnWruoq3ozTtsIvVyCDHSqAPBDWEgLcgN54zzUYMR7rzJkfbfQXd5R50yMDw-AX2YwLkzRHeRJE0NXG8mZv8FniVnCqU4vgRfAEB2ejtTw6qllKS4pS_u6TrxIQ6EIG6SEYZdCUt_OfSxv7rhoUQjmb1KoCDvQ-nz0qiNLnbCND1os
p733
sVwidth
p734
I768
sVhtml_attributions
p735
(lp736
VFrom a Google User
p737
asVheight
p738
I1024
sa(dp739
Vphoto_reference
p740
VCnRlAAAAkibYBIjaH4cPs_SNauYdH4MPdNLJObitgya_arxjCvBjEGc_dyfvoYaR5a1IhrHNxEouiE-ZI0RIlakgfa1xh0Cwv3wBfGD2AIvRYrKV1foAlMu1rh-Asy7bVmOdMaVSaCBGyXpRaa678EOHPeSTBRIQ4aZlXz-rSnoMjD_cETUPohoUz2Kw1oQDJj2YhP3VKNn3xf6mYYM
p741
sVwidth
p742
I4608
sVhtml_attributions
p743
(lp744
V<a href="https://plus.google.com/113186450052791933529">Joseph D&#39;Angelo</a>
p745
asVheight
p746
I3456
sa(dp747
Vphoto_reference
p748
VCnRqAAAAvzSKKtr6e4rP-5VIRwVmgpuCinCiUbRHPcEbifbi_O8sOtR9qtbMdTtXI8S9lK9STOpo9DY077kwp-13cwW-xiRi6NrH7-_iPJsE0wvt71cZJBOTObpzT67pZ0AyEs3hCxlCBvq4vs_pkPBctuNQXhIQaA7MrCaDUomQ56hONeXF7BoUrw5Uu0YC5Ld-wysilXYdYCqBNkc
p749
sVwidth
p750
I1296
sVhtml_attributions
p751
(lp752
V<a href="https://plus.google.com/114529464953149651619">Kim Nath</a>
p753
asVheight
p754
I776
sa(dp755
Vphoto_reference
p756
VCpQBigAAAMTcZD9BWr0hWrbYgl3rhj08nBWGhlkSeh83CwXuJXDMOxzbc1LXpcnEelKvq3oiOIqSv9COMpGvIlXEp8DGSR3WicFH9cCZOkDt2bQEVtEaJWn015xcTI1wt9n8BBcs1ylHYCP8vZi5oG0oQjGZNxFVb4GI3SmnQGGs5Ux-67AN1h54V8VO71A5I1QFN6AsDBIQwY1Jx9P8qN1GVs4PamplPBoU8x4ZODSGJoF-WPqyPl65EQdTma4
p757
sVwidth
p758
I2048
sVhtml_attributions
p759
(lp760
V<a href="https://plus.google.com/102156534886423108007">Peter Rehberg</a>
p761
asVheight
p762
I1362
sa(dp763
Vphoto_reference
p764
VCnRqAAAAl4r3tVfV2asPYc2fX-q3qMHT0D1yLBf2jlVMBfLVSoedkePm7g_TtXzNgzZCNmRZD5xcvtCXePbxT_6mwW7AjldHA7Jj0UuLLxorBVmJHnl8Cmt20ykXIkpA8mmV8lcvxZiD0ke82azPh_t8YZ8itRIQOMWMcIQ2s03OkEWVJ2W0whoUvkcgRFDuVxqpsOP7gaAzRAXzApY
p765
sVwidth
p766
I768
sVhtml_attributions
p767
(lp768
V<a href="https://plus.google.com/108274069435520984069">cesar maldonado</a>
p769
asVheight
p770
I1024
sa(dp771
Vphoto_reference
p772
VCuQB1wAAALyqsL-oSMnEtm9DEIti04p3t1ysMSXyCC3QZ1xBU13Clz82QXLTfqykW6z5rcQlNDY_ev95aAm0yznpPqNoURYJG5CFIAQqxUgxMcyCp1ilO-iNlyfUwQ0-BGb60_QIb2afFVaVXoEFViz7Oj4wLpWdpzCYhRp2aGrzeDe9czOOtN3WKSxb6FqGnPZKQDvDPL2f5MxkFvuFqXiL3ZUcTYUt8zslEsZOB2TikuYx2SZbP2ZXOZdXiBmgvROuhZyO09bhSOgmAqu4aGyCC16mrgo7Xx6zfCB1DMNmKV0g_hSWEhBa1TRVVpB7mHOsiq6BVNwbGhSl435J1tPil1HCZ_TkV5HpQPBxMA
p773
sVwidth
p774
I1866
sVhtml_attributions
p775
(lp776
V<a href="https://plus.google.com/113837235805581391057">P Kusserow</a>
p777
asVheight
p778
I2048
sa(dp779
Vphoto_reference
p780
VCnRoAAAAWIUVYPJOihF-fbnyYsVfr1gN6XwsJeUI_sGq_yqNiO8LiaxMNfvxGc5sliNyL_tqt5_8q8M_QzTENkoY7qpPH7XgOFxlBZ5kmj3ijH1JWvu96BJ1wqsM-RYwJqE59_OTFOsIC5znSmbm8_B9f38jHRIQ6pdL_8y6NGGv_JOgrzLU1BoUcGCg7ijzRPuhrES13EwdgZEbTp0
p781
sVwidth
p782
I949
sVhtml_attributions
p783
(lp784
V<a href="https://plus.google.com/108568994711421183759">Harish S</a>
p785
asVheight
p786
I1265
sa(dp787
Vphoto_reference
p788
VCrQBowAAAO0In2vPBwxRYq1IkXN_sipkI8YQL00btqjjJCSjHseWVxdPAuw23oW6KIOkflu8NnsUlzublJtRY0Auf6ycbqXUvTH006jzUq7kvW5D86DwaBEmhjFyBA1Cx1u-ZSe_ZuDzEke0n5tpL3bUabHEPNBX9BFmA-dg84KJjmFrYRQ4FvjOLTkpG31admg9JDcf5avWeoVTXpNtW2DjeWmTar_r6-H5DW2eROMyxIu3_a-9EhD8UmwKzHPrPutbSjjG3AfJGhQ0WNMncRDSjSYV7ZOKYF9FPn5uHA
p789
sVwidth
p790
I2048
sVhtml_attributions
p791
(lp792
V<a href="https://plus.google.com/104908431756212890221">Jay E. Jenkins</a>
p793
asVheight
p794
I1468
sa(dp795
Vphoto_reference
p796
VCnRsAAAAum9QBpWubgakN4nQa90FFzVRGVDnrLhuNS_DE1ENHlwZX9PEZzkEVs1Mo2i9pxVj_tBh7IiCEiYjc9_6BATB6Z_hvt5KUqZW2_FcIZ_8g1JO6nvh7uG0rK9585fdM9GGEDMMu6NxLamfU7dyf91m6hIQdiPkki7KYkeJLvjKzzxm3RoUOHpYGeg8THSLXE1W0qZQSpV5LPM
p797
sVwidth
p798
I512
sVhtml_attributions
p799
(lp800
V<a href="https://plus.google.com/106558039864076309587">Fototaker Sf</a>
p801
asVheight
p802
I768
sasVurl
p803
Vhttps://plus.google.com/101183959756635433266/about?hl=en-US
p804
sVscope
p805
VGOOGLE
p806
sVaddress_components
p807
(lp808
(dp809
Vlong_name
p810
V1
p811
sVtypes
p812
(lp813
Vstreet_number
p814
asVshort_name
p815
V1
p816
sa(dp817
Vlong_name
p818
VTelegraph Hill Blvd
p819
sVtypes
p820
(lp821
Vroute
p822
asVshort_name
p823
VTelegraph Hill Blvd
p824
sa(dp825
Vlong_name
p826
VSan Francisco
p827
sVtypes
p828
(lp829
Vlocality
p830
aVpolitical
p831
asVshort_name
p832
VSF
p833
sa(dp834
Vlong_name
p835
VCalifornia
p836
sVtypes
p837
(lp838
Vadministrative_area_level_1
p839
aVpolitical
p840
asVshort_name
p841
VCA
p842
sa(dp843
Vlong_name
p844
VUnited States
p845
sVtypes
p846
(lp847
Vcountry
p848
aVpolitical
p849
asVshort_name
p850
VUS
p851
sa(dp852
Vlong_name
p853
V94133
p854
sVtypes
p855
(lp856
Vpostal_code
p857
asVshort_name
p858
V94133
p859
sasVformatted_address
p860
V1 Telegraph Hill Blvd, San Francisco, CA 94133, United States
p861
sVid
p862
Vb29bfcfc1c01d4fb92de2cb3e5bc1c18fc3fb446
p863
sVtypes
p864
(lp865
Vestablishment
p866
asVicon
p867
Vhttp://maps.gstatic.com/mapfiles/place_api/icons/generic_business-71.png
p868
ssba(ispot
Spot
p869
(dp870
g3
Nsg4
(dp871
Vrating
p872
F4.4
sVreference
p873
VCoQBdwAAAEjzGOQP9yhtB0E7ocOnOQ17wbaVdG_CAq4eL-MjpKa9kRvxwnPOjSxBq2-nIEsRtLFbDvOgLJC3dZEXBLE4fjmTEGe70x-uNGH_3D4IIP8y0SGUkO3oshpr_VYCO66ZTDHXFLicMmHQnXgLc5W1wYZyM8FkUyn7zC5WzUV7PLvkEhApUZCwKGYix60APd0hTg9pGhRipRcw63RUh5RNGZltS3_-OOn4Ww
p874
sVprice_level
p875
I3
sVplace_id
p876
VChIJIUT7rEOHhYARucp3wM-HhBs
p877
sVurl
p878
Vhttps://plus.google.com/116851551368109810342/about?hl=en-US
p879
sVformatted_address
p880
V55 Music Concourse Dr, San Francisco, CA 94118, United States
p881
sVid
p882
Vd920c64674d4af2f684358adccbdf3f04eb70002
p883
sVopening_hours
p884
(dp885
Vweekday_text
p886
(lp887
VMonday: 9:30 am \u2013 5:00 pm
p888
aVTuesday: 9:30 am \u2013 5:00 pm
p889
aVWednesday: 9:30 am \u2013 5:00 pm
p890
aVThursday: 9:30 am \u2013 5:00 pm
p891
aVFriday: 9:30 am \u2013 5:00 pm
p892
aVSaturday: 9:30 am \u2013 5:00 pm
p893
aVSunday: 11:00 am \u2013 5:00 pm
p894
asVopen_now
p895
I00
sVperiods
p896
(lp897
(dp898
Vclose
p899
(dp900
Vday
p901
I0
sVtime
p902
V1700
p903
ssVopen
p904
(dp905
Vday
p906
I0
sVtime
p907
V1100
p908
ssa(dp909
Vclose
p910
(dp911
Vday
p912
I1
sVtime
p913
V1700
p914
ssVopen
p915
(dp916
Vday
p917
I1
sVtime
p918
V0930
p919
ssa(dp920
Vclose
p921
(dp922
Vday
p923
I2
sVtime
p924
V1700
p925
ssVopen
p926
(dp927
Vday
p928
I2
sVtime
p929
V0930
p930
ssa(dp931
Vclose
p932
(dp933
Vday
p934
I3
sVtime
p935
V1700
p936
ssVopen
p937
(dp938
Vday
p939
I3
sVtime
p940
V0930
p941
ssa(dp942
Vclose
p943
(dp944
Vday
p945
I4
sVtime
p946
V1700
p947
ssVopen
p948
(dp949
Vday
p950
I4
sVtime
p951
V0930
p952
ssa(dp953
Vclose
p954
(dp955
Vday
p956
I5
sVtime
p957
V1700
p958
ssVopen
p959
(dp960
Vday
p961
I5
sVtime
p962
V0930
p963
ssa(dp964
Vclose
p965
(dp966
Vday
p967
I6
sVtime
p968
V1700
p969
ssVopen
p970
(dp971
Vday
p972
I6
sVtime
p973
V0930
p974
ssassVvicinity
p975
V55 Music Concourse Dr, San Francisco
p976
sVscope
p977
VGOOGLE
p978
sVwebsite
p979
Vhttp://www.calacademy.org/
p980
sVutc_offset
p981
I-480
sVuser_ratings_total
p982
I629
sVphotos
p983
(lp984
(dp985
Vphoto_reference
p986
VCnRnAAAAxfRX0WjH81p58TYMRmKtX8hwxbHwYjLSFtae3yJqOLvLIE5dUhCppg7mRAwOZgQc63Jaf3L-6s9iRsC-jAIMgTUBz8BxoiCasz2NBvDuyK-ZcWkAovsVvBfcVt1f_kgUq6tpAwLnjgo_XZy-ImF00xIQYV7stvvjcbHGQPy2gguINRoU5i8iXLT0Ehzx465gGf-0uOAOVJQ
p987
sVwidth
p988
I640
sVhtml_attributions
p989
(lp990
sVheight
p991
I427
sa(dp992
Vphoto_reference
p993
VCnRnAAAAa7yhagliGsTi3gz57yIcRZyryU762CpCoZrhe68eQ7O2BQhOGjiVJEe9c5s90LdEjG9iCu_tNnsmYfUign9xVY90itGcNDV9hugeWV0ZwuTSPPIveWjteheAX8nPVOx0Vd5o7VjlUO7h4ffWVtOPJhIQwS9E05dEbIIVGd-r-TlHQRoUArrBoyG6ZPzc56A50OSXEq4gunk
p994
sVwidth
p995
I482
sVhtml_attributions
p996
(lp997
sVheight
p998
I640
sa(dp999
Vphoto_reference
p1000
VCnRnAAAAolJJoKEz2jLakdQmoN0qjsNcPD9emsNet5xuhDBq-nIHTW7HGalMcOUxz5kHMoDhKjnRvECeLld2S0pYmYIIq2mB3NIc53seEO3GIfeYCgPmUpSRss5YhdGv1v9eP9GZAkJEFe9tMAf2ZK33wg0JNBIQHM-Sr7DRuX9qrK18dVG4jhoULARpROyWjkkBMZB-0vqoVjETsBo
p1001
sVwidth
p1002
I640
sVhtml_attributions
p1003
(lp1004
sVheight
p1005
I427
sa(dp1006
Vphoto_reference
p1007
VCnRnAAAANTjnJYjxSMMnZHnaibSn4oX9UOURYibyneB-muv8XDg0duvGk3ylr9XANmSXPjtIqBNPc29UX9kHFjH-0Fe7AFNDEvzngFEVPy7w0a9qviZxzpxt9EnAnhhSZM0UvWr_lPDsIsJZwM2t7yAbt4OwoBIQuB-nznnkmbSJvz4KHuzyJBoUmm8Iv_OSqIrACvl7oyZS0MdTqdc
p1008
sVwidth
p1009
I640
sVhtml_attributions
p1010
(lp1011
sVheight
p1012
I427
sa(dp1013
Vphoto_reference
p1014
VCnRnAAAAZy8k2_KxWXs2lkRUdyazhV99aRunJUq5Zby4Eim8gNK5VZYK-faGOfZ2pzcx-6YiFahBWJ1cmhoeobZ8f9WEBh_DWR8NDwKEIiUQI4EaThHaMUcQUQ1WNue7HdHemYhiq63PxyPvHvL5KGezHjolShIQIQClnGy3PjnI0eakbU9y0RoUpLx_OJmZ6YxnBk_PSJtzyPyXcIA
p1015
sVwidth
p1016
I640
sVhtml_attributions
p1017
(lp1018
sVheight
p1019
I457
sa(dp1020
Vphoto_reference
p1021
VCnRnAAAAgcd5hu0FNe_898H0tfunim0u_47Pe9qMRNek8OrTpJku-7YAglE-14WEissAKGi1J19rHjadSgXmQXiull8nXnGZSIR3zp-XqDW5q_syUUVeWqmo-heBStJa-PxuTkOS3qShixE6D5NeYEDTka_ArRIQmpemxuwKe0mQ4ty8UoqbFBoUjDqzMX37T3TtyGwqQvUn5efmanw
p1022
sVwidth
p1023
I640
sVhtml_attributions
p1024
(lp1025
sVheight
p1026
I480
sa(dp1027
Vphoto_reference
p1028
VCnRnAAAAAsKHMga2T32GaSP6DNrGrayaqHZ23raI3ab2sv8smRkichkoxquMK1fu7ft6WsgO5EWaVWAApHRUf7KBO2PHQugHhYKnpTl5M7Zut0jPvGjbtgQMBpoChQOyW4etpqiPapg9V-I7l0xRN4LLch7sjRIQ-n5KRCiB0leSswQc-Pn7bBoUAK9BGvhxmCJVffHpotoZam80mdM
p1029
sVwidth
p1030
I562
sVhtml_attributions
p1031
(lp1032
sVheight
p1033
I640
sa(dp1034
Vphoto_reference
p1035
VCnRnAAAApQmiLT-DzlBQGYX4AnSSd1LGCsKtYgnUM__zU2kb96itoFrfmwt79HmkhKNZyEmkf48Ohv6VmO4fPtn6qndiRi0rhMLy9wqu6dZNR0bTVXnHxTF4oydpm5bcs4yYOQBExYtTdHFq36i78BeJlyrhoRIQS44544GL89hjKRNHdQTRzBoUHstRqrQiJ1-C9RkpfAYC1WdgT8E
p1036
sVwidth
p1037
I640
sVhtml_attributions
p1038
(lp1039
sVheight
p1040
I443
sa(dp1041
Vphoto_reference
p1042
VCnRqAAAAxV5ilFGG4FgiNZdQ2gd6K0ysXC7J-EJDtjimVnz4guSn-USkZrbcSPw2ZlAI2_6v_ibIUndowVm9t4-6NGWBRwaL_jxrd_Y2sL_Sct60UN1cKFuXAxVA2Jpitav-flFP7t_A-NkfG_crwBSBXtkqLRIQmRwOV1gOYAFeVsFiNW5UCRoU_DPwsJ7s6efJKk5sXFcX7jFTP-M
p1043
sVwidth
p1044
I2048
sVhtml_attributions
p1045
(lp1046
V<a href="https://plus.google.com/104847770319584345133">Shiraz Siddiqui</a>
p1047
asVheight
p1048
I1536
sa(dp1049
Vphoto_reference
p1050
VCnRmAAAAMGqvZo--RRSEw-pkWFMpTg-B6ovgl0uJNgc3fWQI4XcD_jVmhdWgdE57S1pyLC1X8MJocM3slJWoqDcXnaDKqCA52XhetrAFkKUVyYEGyMv8Q3oSOeFfzosTDr9VbTB9DOYE8AIzE7ewulvwmESNfRIQdM-sw44L2hxao9hJsBMtIRoUWADAZBnKkkbmvwUhbNerLa9Fo4M
p1051
sVwidth
p1052
I533
sVhtml_attributions
p1053
(lp1054
V<a href="https://plus.google.com/116600105708585783882">Edwin Ragadio</a>
p1055
asVheight
p1056
I400
sasVtypes
p1057
(lp1058
Vaquarium
p1059
aVmuseum
p1060
aVestablishment
p1061
asVicon
p1062
Vhttp://maps.gstatic.com/mapfiles/place_api/icons/aquarium-71.png
p1063
sVname
p1064
VCalifornia Academy of Sciences
p1065
sVgeometry
p1066
(dp1067
Vlocation
p1068
(dp1069
Vlat
p1070
F37.769865
sVlng
p1071
F-122.466095
sssVadr_address
p1072
V<span class="street-address">55 Music Concourse Dr</span>, <span class="locality">San Francisco</span>, <span class="region">CA</span> <span class="postal-code">94118</span>, <span class="country-name">United States</span>
p1073
sVinternational_phone_number
p1074
V+1 415-379-8000
p1075
sVreviews
p1076
(lp1077
(dp1078
Vrating
p1079
I5
sVaspects
p1080
(lp1081
(dp1082
Vrating
p1083
I3
sVtype
p1084
Voverall
p1085
sasVlanguage
p1086
Ven
p1087
sVtext
p1088
VThis is one of the best experiences and values in the city.  This has great night time programs for young adults with music and drinks.  During the daytime this museum showcases the diversity of the whole Bay Area.  You get to explore ecology through the wonderful ECO-dome (biosphere).  The planetarium is fabulous and you get to see the pendulum.  Overall great experience and wonderful for both kids and adults.  Buy the year long membership for your best value.
p1089
sVauthor_name
p1090
Vrobert leung
p1091
sVauthor_url
p1092
Vhttps://plus.google.com/115943204529468844278
p1093
sVtime
p1094
I1416256114
sa(dp1095
Vrating
p1096
I4
sVaspects
p1097
(lp1098
(dp1099
Vrating
p1100
I2
sVtype
p1101
Voverall
p1102
sasVlanguage
p1103
Ven
p1104
sVtext
p1105
VThe Academy of sciences has an amazing aquarium complex that takes a long time to explore and see completely. The layout can be a bit confusing at first, but the high quality exhibits and the signage help. I really like their super small mini aquarium showcasing one tiny type of shrimp or crab, they are very detailed and neat.\u000aTheir biosphere/dome is really cool too, it has a lot to see and spend time in. It's a one way trip: when you get in, you look at things, walk to the top, and take an elevator to exit into the aquarium.\u000aI expected more hands-on things but I guess that's for the Exploratorium.\u000aTheir planetarium, while limited in seats (get a pass as soon as you arrive!) is cool. \u000aI went for the 21+ Thursday night events, which are great, and with a theme, but get very very crowded.
p1106
sVauthor_name
p1107
VJulian Fessard
p1108
sVauthor_url
p1109
Vhttps://plus.google.com/112118270664425522168
p1110
sVtime
p1111
I1412989932
sa(dp1112
Vrating
p1113
I5
sVaspects
p1114
(lp1115
(dp1116
Vrating
p1117
I3
sVtype
p1118
Voverall
p1119
sasVlanguage
p1120
Ven
p1121
sVtext
p1122
VUPDATING TO 5 stars!!!\u000aGot to go here for a city experts event... it was amazing! We got to listen to the tank diver talk about the awesome reef tank, and the older lady docent was awesome about telling us about all the fish and the alligators. Now that I'm expecting I can't wait to take my daughter here to watch all the fish swim by in the tanks, then travel to african savanna and see the zebras\u000a\u000aPrevious:\u000aOk so we all go here on field trips as kids and that's a memory that we hold dear. So you can imagine my surprise as an adult when I came here for one of their nightlife events and the whole inside was changed. It was really disorienting, but I do have to say they new design was still really awesome.\u000a\u000aHOWEVER, once I got acclimated to the changes, I actually had a pretty good time. I took glass with me and my favorite part was the tide pools. The staff were awesome and let me record them talking about the starfish. It made my night really special!!\u000a\u000aDefinitely checkout the nightlife events!!! Fish,dancing, & fun how can you go wrong???
p1123
sVauthor_name
p1124
VShauna Mork
p1125
sVauthor_url
p1126
Vhttps://plus.google.com/110513218467589779477
p1127
sVtime
p1128
I1411720448
sa(dp1129
Vrating
p1130
I5
sVaspects
p1131
(lp1132
(dp1133
Vrating
p1134
I3
sVtype
p1135
Voverall
p1136
sasVlanguage
p1137
Ven
p1138
sVtext
p1139
VI dined there last night for the first time and were very happy with the food and the service! He loved the Cioppino with lots of Maine lobster / shrimp / mussels / clams / fish calamari / scallops and shellfish vegetable broth! I loved my Chilean Sea Bass and we both love our Field Greens Salad! We'll be back!
p1140
sVauthor_name
p1141
VElinor Newell
p1142
sVauthor_url
p1143
Vhttps://plus.google.com/106242117275472828307
p1144
sVtime
p1145
I1416251545
sa(dp1146
Vrating
p1147
I5
sVaspects
p1148
(lp1149
(dp1150
Vrating
p1151
I3
sVtype
p1152
Voverall
p1153
sasVlanguage
p1154
Ven
p1155
sVtext
p1156
VThis place is amazing and one of the most impressive places to take a brainy date to. They have these Night-Life events that take place every Thursday and the theme is basically, science meets pop culture, meets a ginger tonic. It is incredibly fun and very hipster approved in my opinion. The drinks are not cheap of course, but the entrance tickets are at only $12 per person. They even have live-ostrich babies! If you can't win date of the year here then you're standing in the wrong museum. OH! and check out the starlight from the living roof exhibit, and get there early to catch the planetarium as it fills up in an instant.
p1157
sVauthor_name
p1158
VMisha Metrikin
p1159
sVauthor_url
p1160
Vhttps://plus.google.com/114890117672430115819
p1161
sVtime
p1162
I1413259773
sasVformatted_phone_number
p1163
V(415) 379-8000
p1164
sVaddress_components
p1165
(lp1166
(dp1167
Vlong_name
p1168
V55
p1169
sVtypes
p1170
(lp1171
Vstreet_number
p1172
asVshort_name
p1173
V55
p1174
sa(dp1175
Vlong_name
p1176
VMusic Concourse Dr
p1177
sVtypes
p1178
(lp1179
Vroute
p1180
asVshort_name
p1181
VMusic Concourse Dr
p1182
sa(dp1183
Vlong_name
p1184
VSan Francisco
p1185
sVtypes
p1186
(lp1187
Vlocality
p1188
aVpolitical
p1189
asVshort_name
p1190
VSF
p1191
sa(dp1192
Vlong_name
p1193
VCalifornia
p1194
sVtypes
p1195
(lp1196
Vadministrative_area_level_1
p1197
aVpolitical
p1198
asVshort_name
p1199
VCA
p1200
sa(dp1201
Vlong_name
p1202
VUnited States
p1203
sVtypes
p1204
(lp1205
Vcountry
p1206
aVpolitical
p1207
asVshort_name
p1208
VUS
p1209
sa(dp1210
Vlong_name
p1211
V94118
p1212
sVtypes
p1213
(lp1214
Vpostal_code
p1215
asVshort_name
p1216
V94118
p1217
sassba(ispot
Spot
p1218
(dp1219
g3
Nsg4
(dp1220
Vrating
p1221
F4.3
sVreference
p1222
VCoQBdgAAAHtCy7wHb9FTrPRkDgVXB1Ar0qFFNio0G_aDOKJL-PM2ZkjDiPetnN-pbTNNXgutjxkLEeEOf96d58Fb5vgqn5-Ru4Z_OjCSrGAki4i2skMDFj3lEZxeswDiTiivADjov5wr_eQ4asc85VB2UdbYJT_GAtQb-vx1HWez7Gi9aarxEhCXcifyZVRiYQ4j_PSkK45IGhTIZKUDZvYW-JGRFU7SC82kWFS06Q
p1223
sVplace_id
p1224
VChIJ5f7ZKtiGhYAR9WaYFS6bH1U
p1225
sVurl
p1226
Vhttps://plus.google.com/105919498584532583013/about?hl=en-US
p1227
sVformatted_address
p1228
V104 Montgomery St, San Francisco, CA 94129, United States
p1229
sVid
p1230
Vb1467bcc46fa06becac3805afdfcbe5e26806199
p1231
sVopening_hours
p1232
(dp1233
Vweekday_text
p1234
(lp1235
VMonday: 10:00 am \u2013 6:00 pm
p1236
aVTuesday: Closed
p1237
aVWednesday: 10:00 am \u2013 6:00 pm
p1238
aVThursday: 10:00 am \u2013 6:00 pm
p1239
aVFriday: 10:00 am \u2013 6:00 pm
p1240
aVSaturday: 10:00 am \u2013 6:00 pm
p1241
aVSunday: 10:00 am \u2013 6:00 pm
p1242
asVopen_now
p1243
I00
sVperiods
p1244
(lp1245
(dp1246
Vclose
p1247
(dp1248
Vday
p1249
I0
sVtime
p1250
V1800
p1251
ssVopen
p1252
(dp1253
Vday
p1254
I0
sVtime
p1255
V1000
p1256
ssa(dp1257
Vclose
p1258
(dp1259
Vday
p1260
I1
sVtime
p1261
V1800
p1262
ssVopen
p1263
(dp1264
Vday
p1265
I1
sVtime
p1266
V1000
p1267
ssa(dp1268
Vclose
p1269
(dp1270
Vday
p1271
I3
sVtime
p1272
V1800
p1273
ssVopen
p1274
(dp1275
Vday
p1276
I3
sVtime
p1277
V1000
p1278
ssa(dp1279
Vclose
p1280
(dp1281
Vday
p1282
I4
sVtime
p1283
V1800
p1284
ssVopen
p1285
(dp1286
Vday
p1287
I4
sVtime
p1288
V1000
p1289
ssa(dp1290
Vclose
p1291
(dp1292
Vday
p1293
I5
sVtime
p1294
V1800
p1295
ssVopen
p1296
(dp1297
Vday
p1298
I5
sVtime
p1299
V1000
p1300
ssa(dp1301
Vclose
p1302
(dp1303
Vday
p1304
I6
sVtime
p1305
V1800
p1306
ssVopen
p1307
(dp1308
Vday
p1309
I6
sVtime
p1310
V1000
p1311
ssassVvicinity
p1312
V104 Montgomery St, San Francisco
p1313
sVscope
p1314
VGOOGLE
p1315
sVwebsite
p1316
Vhttp://waltdisney.org/
p1317
sVutc_offset
p1318
I-480
sVuser_ratings_total
p1319
I64
sVphotos
p1320
(lp1321
(dp1322
Vphoto_reference
p1323
VCnRoAAAAZnXCwe3wW841_PqKZGQpav-PtL2L_vMVy1k2_JY4jSaDAklQovR7NeWqh3R_SwuD5-_R0j5n8SjTtzsSrLDbFRjZZGcQ_EBBU0eqbCX_HbDlOXW7QS6v5Q2LA26jg9BdmySZnbT4RJ3stichDQo-NxIQ3iUidWSqmWfmdz8A720AJBoUE5rCjNpdrDQYg1iZf6s4ejEeLEw
p1324
sVwidth
p1325
I1344
sVhtml_attributions
p1326
(lp1327
V<a href="https://plus.google.com/104418807524866039109">Rhonda Irmen</a>
p1328
asVheight
p1329
I760
sa(dp1330
Vphoto_reference
p1331
VCnRoAAAAMXwB4zTnquzx5t1eslyyZeFyvAuQjNS3W1cGtEHiDzrVZ_71HdGXbsiw0wSebTOi9tJc594b5JE38yaKIlqTYGMchvwzz6hCIb32pGM8PluHYXEhGJEROhRyWN-P-xSG9KnZvbXSfTwij9I_Up3QZhIQZRuMhn7CI2sB-8c7yWyTvxoUFUt3oFchO6qjznzq2nqDJ1v3dp8
p1332
sVwidth
p1333
I1344
sVhtml_attributions
p1334
(lp1335
V<a href="https://plus.google.com/104418807524866039109">Rhonda Irmen</a>
p1336
asVheight
p1337
I760
sa(dp1338
Vphoto_reference
p1339
VCnRoAAAAxF1cmnW9-h9bZQ1qqL8kcp6FxQD3w0n9-m4Y1a2jKfCu9DM4Ab77rwLCaNWLq44SQ4IIg-G0OkSkCBeoEVI14D-02cRcKPHp53FpoSX-IiRxke8izUkVqlak_nQBXzBFiGbprhHvR5YlcyjQIKIgdRIQHJXh6wb-X9p_CaWY_X0zxxoUUSVSiuY8bBK5h_zrHuWC58PeNDg
p1340
sVwidth
p1341
I1344
sVhtml_attributions
p1342
(lp1343
V<a href="https://plus.google.com/104418807524866039109">Rhonda Irmen</a>
p1344
asVheight
p1345
I760
sa(dp1346
Vphoto_reference
p1347
VCnRoAAAAGslLVJQbm-1ohWXnU677iMdfoRQUvQI145kwlEKBbQyTW77HUGDMFXiKQAzcB6H4FEzjGy2D6J2ooU8asXrF0fXCZjPLoJq0OO5GqxofyvXL19DTa73p1PI7VULC8V7M2elw36o8AoY4Tle9sOejYxIQQhC5PeIdt01onpboFqZ1JxoUMQpLpLbfI4Pcc0YvEl8kc3iKJHc
p1348
sVwidth
p1349
I658
sVhtml_attributions
p1350
(lp1351
V<a href="https://plus.google.com/104418807524866039109">Rhonda Irmen</a>
p1352
asVheight
p1353
I1216
sa(dp1354
Vphoto_reference
p1355
VCnRoAAAATiVALmlEgg9zvZmkus-6wbiViYbmgGjt6BjdHgNmva9BxcDvKjZ4_meVxl9ool26YtTaxMChImfYBTM46DNJ84wIIIDiSv60s9Q6tKVbHKbr5S_mYFFGhKZyQh-JghwS7o2-11MI_FBXUqKIYIzKTBIQUqxSzg9RJ6nAe7Fqg2vxqxoUeI5eRV4fo9OK2X2wMfp0HrvwOL4
p1356
sVwidth
p1357
I760
sVhtml_attributions
p1358
(lp1359
V<a href="https://plus.google.com/104418807524866039109">Rhonda Irmen</a>
p1360
asVheight
p1361
I1344
sa(dp1362
Vphoto_reference
p1363
VCpQBjQAAADc7yp4IN1gZjU7-TdWvENnmoGz2G3lhS7v8JQkJcxVLm5voh2YE8ysZPzSlBBlWbxafdtNQKDChekFyOmukhLGvDHMoAwclncTjkeWLyc7kOqLdsN3UG96BlX1_r8OzbVbNH5wCSvzgIOCPZYORE7nkWDsuPVtD6e9S5gXDzczLPf2BUYzz9XCt0XYf8i9wMhIQkaBnhSP3PpbbSSu0US00wBoU9aPP54_uhB0g8SKHGwspOjCD3Q4
p1364
sVwidth
p1365
I3072
sVhtml_attributions
p1366
(lp1367
VFrom a Google User
p1368
asVheight
p1369
I2304
sa(dp1370
Vphoto_reference
p1371
VCpQBjQAAADVP4mT7cNQ1gGK1mE8VQO6BvjGNpfw77RHgcJ01NXi702SJDsDGTf1cIHPv-upK2_zxX6M4OetE-A2VoP2qPxS6fAbYQGr1owLZbdgUzPvXNXyTzDgUH4OqLLmAg15cqopxSAwq2GMJMQPGCsqFw5iI8WerCKe0Z0ncwvMy89tuXqGEW3wlwV_lUS0F7Lw42xIQZfmvVHmo6Lq39t907GOO7BoUtWTfgiv8pmUkoRj7jeDEOFS1_Dc
p1372
sVwidth
p1373
I3072
sVhtml_attributions
p1374
(lp1375
VFrom a Google User
p1376
asVheight
p1377
I2304
sa(dp1378
Vphoto_reference
p1379
VCnRqAAAAGV9XM54HV-cErRoo_Io2ku2VOXUqdHGtXIRumm4vecq73Us1cwhTEBd9XrkJUccYetuhEABR4ykBJpeSNCLh6_u4epxXgv3IXXGPKmwOvYkKM2HBlYwmJaIz531LtS7e_3hy7gR0b8k9aSjwQOTfwBIQlGpraNafsQk4uGIx4SgSCBoUF6u81MvcVOt-enNac3m-BFNnWnw
p1380
sVwidth
p1381
I4752
sVhtml_attributions
p1382
(lp1383
V<a href="https://plus.google.com/113348736951055038973">Thomas Devaux</a>
p1384
asVheight
p1385
I3168
sasVtypes
p1386
(lp1387
Vmuseum
p1388
aVestablishment
p1389
asVicon
p1390
Vhttp://maps.gstatic.com/mapfiles/place_api/icons/museum-71.png
p1391
sVname
p1392
VThe Walt Disney Family Museum
p1393
sVgeometry
p1394
(dp1395
Vlocation
p1396
(dp1397
Vlat
p1398
F37.801406
sVlng
p1399
F-122.458725
sssVadr_address
p1400
V<span class="street-address">104 Montgomery St</span>, <span class="locality">San Francisco</span>, <span class="region">CA</span> <span class="postal-code">94129</span>, <span class="country-name">United States</span>
p1401
sVinternational_phone_number
p1402
V+1 415-345-6800
p1403
sVreviews
p1404
(lp1405
(dp1406
Vrating
p1407
I5
sVaspects
p1408
(lp1409
(dp1410
Vrating
p1411
I3
sVtype
p1412
Voverall
p1413
sasVlanguage
p1414
Ven
p1415
sVtext
p1416
VMy Family and I went to Disneyland the year it opened and I've returned many, many times over the past fifty years.  Never having been to Disneyland around Christmas, I'm taking my Sons and their Families this Christmas.  \u000a\u000aI went to the Museum with two other friends.  It took us two and one-half hours to see and absorb all there is to see, ending the tour sitting and reflecting with tears.  I loved every minute of it.  It was so well done.  Not sure if 'youngsters' would appreciate the whole of it.\u000a\u000aSo happy it's close by to me too (Sonoma).\u000a\u000aEnjoy!
p1417
sVauthor_name
p1418
VDiane Litchfield
p1419
sVauthor_url
p1420
Vhttps://plus.google.com/118291852086003731498
p1421
sVtime
p1422
I1413835643
sa(dp1423
Vrating
p1424
I3
sVaspects
p1425
(lp1426
(dp1427
Vrating
p1428
I1
sVtype
p1429
Voverall
p1430
sasVlanguage
p1431
Ven
p1432
sVtext
p1433
VThe most interesting part for me was the exhibit of Mary Blair's designs.  Some of them looked a lot like the movies they eventually led to: The Three Caballeros, Peter Pan, Lady and the Tramp.  But she had a unique way of drawing in a plane, which the animators were never able to master, so that her studies led only to a vague idea of what the characters ended up looking like, and in some cases the overall layout of a scene.  But it was quite educational.\u000a\u000aThe Disney Museum itself was pretty much like the displays that used to be in Disneyland (Anaheim) before it was "modernized" with a bunch of new rides and shops.  So for me there wasn't much new there.  For somebody younger, who has never seen those displays before, it might be more interesting.
p1434
sVauthor_name
p1435
VBarry Gold
p1436
sVauthor_url
p1437
Vhttps://plus.google.com/100495659440714462183
p1438
sVtime
p1439
I1405281106
sa(dp1440
Vrating
p1441
I5
sVaspects
p1442
(lp1443
(dp1444
Vrating
p1445
I3
sVtype
p1446
Voverall
p1447
sasVlanguage
p1448
Ven
p1449
sVtext
p1450
VThe Disney Family Museum is the perfect place for any Disney fanatic.  I came here during one of their night life events and I had a great time visiting the different exhibits.  The theme was tiki and everyone came dressed up in vintage tiki clothes.  They had themed cocktails, arts and crafts and had a food truck outside selling Hawaiian style sliders.  My favorite part of the museum was the Mary Blair exhibit in the second building in the back.  They also had a ukulele player that serenaded guests as they waited in the line to get into the museum.  I would love to go back on a day when it's not so crowded so I could see more of the museum.
p1451
sVauthor_name
p1452
VMandy Irvine
p1453
sVauthor_url
p1454
Vhttps://plus.google.com/104622617500175604392
p1455
sVtime
p1456
I1404172582
sa(dp1457
Vrating
p1458
I4
sVaspects
p1459
(lp1460
(dp1461
Vrating
p1462
I2
sVtype
p1463
Voverall
p1464
sasVlanguage
p1465
Ven
p1466
sVtext
p1467
VDiscount for students. Great hidden gem in the Presidio. A museum geared towards adults and artists, not kid recommended.
p1468
sVauthor_name
p1469
VAaron Babst
p1470
sVauthor_url
p1471
Vhttps://plus.google.com/110946194191781310998
p1472
sVtime
p1473
I1413471375
sa(dp1474
Vrating
p1475
I3
sVaspects
p1476
(lp1477
(dp1478
Vrating
p1479
I1
sVtype
p1480
Voverall
p1481
sasVlanguage
p1482
Ven
p1483
sVtext
p1484
VThe main thing I would like to have done in San Francisco was visiting The Walt Disney Family Museum. But on Wednesday, April 23th, 2014, my husband and I went there, but unfortunately it was closed. I cried a lot, because it was my last day in San Francisco. \u000aI am from Brazil and I will return to San Francisco to visit the museum. I love Disneyland. I love Disneyworld and I love Walt Disney.,\u000a
p1485
sVauthor_name
p1486
VSonia Regina Del Nero Vitullo
p1487
sVauthor_url
p1488
Vhttps://plus.google.com/105192130399562483126
p1489
sVtime
p1490
I1416149824
sasVformatted_phone_number
p1491
V(415) 345-6800
p1492
sVaddress_components
p1493
(lp1494
(dp1495
Vlong_name
p1496
V104
p1497
sVtypes
p1498
(lp1499
Vstreet_number
p1500
asVshort_name
p1501
V104
p1502
sa(dp1503
Vlong_name
p1504
VMontgomery St
p1505
sVtypes
p1506
(lp1507
Vroute
p1508
asVshort_name
p1509
VMontgomery St
p1510
sa(dp1511
Vlong_name
p1512
VSan Francisco
p1513
sVtypes
p1514
(lp1515
Vlocality
p1516
aVpolitical
p1517
asVshort_name
p1518
VSF
p1519
sa(dp1520
Vlong_name
p1521
VCalifornia
p1522
sVtypes
p1523
(lp1524
Vadministrative_area_level_1
p1525
aVpolitical
p1526
asVshort_name
p1527
VCA
p1528
sa(dp1529
Vlong_name
p1530
VUnited States
p1531
sVtypes
p1532
(lp1533
Vcountry
p1534
aVpolitical
p1535
asVshort_name
p1536
VUS
p1537
sa(dp1538
Vlong_name
p1539
V94129
p1540
sVtypes
p1541
(lp1542
Vpostal_code
p1543
asVshort_name
p1544
V94129
p1545
sassba(ispot
Spot
p1546
(dp1547
g3
Nsg4
(dp1548
Vrating
p1549
F4.2
sVreference
p1550
VCoQBdgAAAP7TLpG-1s2m9-Z3P5-vI2YcYj_T-hz9HOE2KAaFSbCET6L6FGd-BC9ctKhpLUUavCDsRkVwL0oq-XNf4VgB_15LOoxc8qDbcpp9YcOW34Q54eFqs6dj5cjqMJPBPlnz1Kug-B9yVrCvME299IyQUYhI3gaz9uEUMbevlYrDqB5IEhBJuRretLO8DSFsOKBB0hatGhRIcBWLVJKXqfBtzhYqz2bfsFdCuA
p1551
sVplace_id
p1552
VChIJd2spnJuAhYARhkuvhLCp3us
p1553
sVurl
p1554
Vhttps://plus.google.com/101406392128555893967/about?hl=en-US
p1555
sVformatted_address
p1556
V100 Larkin St, San Francisco, CA 94102, United States
p1557
sVid
p1558
Vb1c83827c82c9fa59ffcdad652d1e8a1b04a4ae8
p1559
sVopening_hours
p1560
(dp1561
Vweekday_text
p1562
(lp1563
VMonday: 10:00 am \u2013 6:00 pm
p1564
aVTuesday: 9:00 am \u2013 8:00 pm
p1565
aVWednesday: 9:00 am \u2013 8:00 pm
p1566
aVThursday: 9:00 am \u2013 8:00 pm
p1567
aVFriday: 12:00 \u2013 6:00 pm
p1568
aVSaturday: 10:00 am \u2013 6:00 pm
p1569
aVSunday: 12:00 \u2013 5:00 pm
p1570
asVopen_now
p1571
I00
sVperiods
p1572
(lp1573
(dp1574
Vclose
p1575
(dp1576
Vday
p1577
I0
sVtime
p1578
V1700
p1579
ssVopen
p1580
(dp1581
Vday
p1582
I0
sVtime
p1583
V1200
p1584
ssa(dp1585
Vclose
p1586
(dp1587
Vday
p1588
I1
sVtime
p1589
V1800
p1590
ssVopen
p1591
(dp1592
Vday
p1593
I1
sVtime
p1594
V1000
p1595
ssa(dp1596
Vclose
p1597
(dp1598
Vday
p1599
I2
sVtime
p1600
V2000
p1601
ssVopen
p1602
(dp1603
Vday
p1604
I2
sVtime
p1605
V0900
p1606
ssa(dp1607
Vclose
p1608
(dp1609
Vday
p1610
I3
sVtime
p1611
V2000
p1612
ssVopen
p1613
(dp1614
Vday
p1615
I3
sVtime
p1616
V0900
p1617
ssa(dp1618
Vclose
p1619
(dp1620
Vday
p1621
I4
sVtime
p1622
V2000
p1623
ssVopen
p1624
(dp1625
Vday
p1626
I4
sVtime
p1627
V0900
p1628
ssa(dp1629
Vclose
p1630
(dp1631
Vday
p1632
I5
sVtime
p1633
V1800
p1634
ssVopen
p1635
(dp1636
Vday
p1637
I5
sVtime
p1638
V1200
p1639
ssa(dp1640
Vclose
p1641
(dp1642
Vday
p1643
I6
sVtime
p1644
V1800
p1645
ssVopen
p1646
(dp1647
Vday
p1648
I6
sVtime
p1649
V1000
p1650
ssassVvicinity
p1651
V100 Larkin St, San Francisco
p1652
sVscope
p1653
VGOOGLE
p1654
sVwebsite
p1655
Vhttp://sfpl.org/index.php?pg=0100000101
p1656
sVutc_offset
p1657
I-480
sVuser_ratings_total
p1658
I87
sVphotos
p1659
(lp1660
(dp1661
Vphoto_reference
p1662
VCnRnAAAARCnV6KzS-uoEMaTJuucoMwPCLBI0ZX2y8If0G7GXsl7AL2ZGeV_iy8VO5KieeKx8_kk78195Nv0AoL9rdZsMIEZFHWYL2a7FY6WfjcqInaESNAYLfkWeUwTFMP6JdVtBj0-zpQx74bCBh31MwO52KRIQCoyLM5YKEkRJt_jTLHj5-BoU-0Ee70Mq1u2LUvT6cYMTmOl7W9M
p1663
sVwidth
p1664
I212
sVhtml_attributions
p1665
(lp1666
sVheight
p1667
I132
sa(dp1668
Vphoto_reference
p1669
VCnRoAAAAdhxqrbMy2_rsZUpwTpciEg5EzxEG0zK_srMKgSFNYVgB6-6gB_tiqcUJ5pzpE45PTSPeE3Sii_U7T9qN6gvSvq0n1OXGVCZ1xp7alf7iCBIhSJaUVclfnKeI8XRK-r2kDNJvxJPa9Fl7RsRh7Ygy5BIQDv7stDwrWpjeeJLPh8ZBrRoU7lz7CG2Lk5d8LS5RFLUaZ7Z4bOI
p1670
sVwidth
p1671
I1224
sVhtml_attributions
p1672
(lp1673
V<a href="https://plus.google.com/110973269841242399688">Leonard Hayes</a>
p1674
asVheight
p1675
I1632
sa(dp1676
Vphoto_reference
p1677
VCnRsAAAAlt88Jo5CtX1JrwoJlUAIWoZ0wUOuK47qvRR6A4uxGc1Vsb43LQuYazwZtfwydh57AQVbzU1v4E6_mSa75lWdffJn2I2etSrSmOLjYJIpf_cH14GgRVzWv_1LJ0LNJLHm-a0opWMdowpfB_Spp5hFoRIQD-8amYL51TPaQp75seXplhoUwIy2yjOe_NNkoYP-uwfJo4xpxFY
p1678
sVwidth
p1679
I1296
sVhtml_attributions
p1680
(lp1681
VFrom a Google User
p1682
asVheight
p1683
I972
sa(dp1684
Vphoto_reference
p1685
VCnRoAAAAIG94GKUfhi6EPaJB9mYh9Ci-m2SFfEGgaZ_mn3XKaQztEkcCe-M5NoOpT7es7U037uP5S1ul6ZijcW8vbXmhHoSJ_ebM6a9Ws4jUBXDC3x7DMXsLHVVmF4yQL1JQz309bkHzNOEyVZWoiPcutyUbsxIQ7DqVpI64TM3aVIuJaI98jxoUBLSYHmtugQmm9w53rdy1zm60kv4
p1686
sVwidth
p1687
I1224
sVhtml_attributions
p1688
(lp1689
V<a href="https://plus.google.com/110623718662972590701">chad labounty</a>
p1690
asVheight
p1691
I1632
sa(dp1692
Vphoto_reference
p1693
VCoQBgAAAAEJb-Oqbg6ftTksFQdc42F9XwoUHnqEqd6steiMkh1hdyh27zrMUdcvy_VGeVCksyuF4GME5XRdz_GB3tPYN26sdwxJp1W6chfkXA20Jjv9m-QITmlpSGaWzJB3oBjp8BHO2Ba6mYZmHWMVPa0HKdwNPZlYNxMUHY-NuLWnli89kEhBoUDPd7fQ9RktJpJPfdXj2GhQ9sri0fvGKqRPSuM7b1rgvbsUNqw
p1694
sVwidth
p1695
I768
sVhtml_attributions
p1696
(lp1697
V<a href="https://plus.google.com/107358372958769357655">Eric T. Fisher</a>
p1698
asVheight
p1699
I1024
sa(dp1700
Vphoto_reference
p1701
VCnRnAAAACWm0rCEPgV-ACYzs0kCTXJcrjClwPNtDXcgas-DEhjVprXKBBQjIpHS0qGr3pMiFzg7TkYlq6S8c1qAOmWaNlpUXgQ0X0evayh6sbkoJVr-Uoy7mZ5VomlyWTzFfNU0w6mz70e3O2NCYl5CTtHMJ4BIQB1QiMuSc618sh6D-PIkaJxoUhzDToX1ykdS95DeQ9c8AtDm8v9M
p1702
sVwidth
p1703
I485
sVhtml_attributions
p1704
(lp1705
sVheight
p1706
I160
sasVtypes
p1707
(lp1708
Vlibrary
p1709
aVestablishment
p1710
asVicon
p1711
Vhttp://maps.gstatic.com/mapfiles/place_api/icons/library-71.png
p1712
sVname
p1713
VSan Francisco Public Library
p1714
sVgeometry
p1715
(dp1716
Vlocation
p1717
(dp1718
Vlat
p1719
F37.779282
sVlng
p1720
F-122.415858
sssVadr_address
p1721
V<span class="street-address">100 Larkin St</span>, <span class="locality">San Francisco</span>, <span class="region">CA</span> <span class="postal-code">94102</span>, <span class="country-name">United States</span>
p1722
sVinternational_phone_number
p1723
V+1 415-557-4400
p1724
sVreviews
p1725
(lp1726
(dp1727
Vrating
p1728
I4
sVaspects
p1729
(lp1730
(dp1731
Vrating
p1732
I2
sVtype
p1733
Voverall
p1734
sasVlanguage
p1735
Ven
p1736
sVtext
p1737
V Great group studying/discussion on the 2nd floor corridor. Free wifi throughout the library. But if you are camera shy, then head for the reading rooms on the third floor; plenty of tourists stop by the central corridor to sit and pose as if studying/reading or just snap lots of photos. Sometimes with flash since no guards/staff are around this area.
p1738
sVauthor_name
p1739
VJennifer Anderson
p1740
sVauthor_url
p1741
Vhttps://plus.google.com/101668878103716987723
p1742
sVtime
p1743
I1416069549
sa(dp1744
Vrating
p1745
I4
sVaspects
p1746
(lp1747
(dp1748
Vrating
p1749
I2
sVtype
p1750
Voverall
p1751
sasVlanguage
p1752
Ven
p1753
sVtext
p1754
VWhen your friends are outside enjoying the sunshine and you have to study this really isn't a bad place to spend your day. It's absolutely gorgeous! 3rd floor reading room. Bundle up because it's always freezing, but it helps keep you awake. For some reason it has smelled like dirty feet/vinegar lately, but it's not always like that. Maybe it's the tourists?
p1755
sVauthor_name
p1756
VClarence Sasser
p1757
sVauthor_url
p1758
Vhttps://plus.google.com/115415379408402048510
p1759
sVtime
p1760
I1415905219
sa(dp1761
Vrating
p1762
I4
sVaspects
p1763
(lp1764
(dp1765
Vrating
p1766
I2
sVtype
p1767
Voverall
p1768
sasVlanguage
p1769
Ven
p1770
sVtext
p1771
VPretty cool library!  I was here more as a tourist and didn't actually check out any books or anything, but it was neat to walk around and see everything.  The building looks interesting and the park in front of it is a nice place to hang out.\u000a
p1772
sVauthor_name
p1773
VVina Lund
p1774
sVauthor_url
p1775
Vhttps://plus.google.com/105821397683553294140
p1776
sVtime
p1777
I1415473895
sa(dp1778
Vrating
p1779
I4
sVaspects
p1780
(lp1781
(dp1782
Vrating
p1783
I2
sVtype
p1784
Voverall
p1785
sasVlanguage
p1786
Ven
p1787
sVtext
p1788
VI go tot his library when I got to the Civic Center, but my regular branch is the Ortega Branch Library in the Sunset District. The librarians were very friendly, and there was a wide collection of books. I love the returning process and the self-checkout. The 6th Floor history room, was superb. I looked through files and much more. i would recommend this to everyone.
p1789
sVauthor_name
p1790
VJunming Guan
p1791
sVauthor_url
p1792
Vhttps://plus.google.com/116961296874666170914
p1793
sVtime
p1794
I1413590548
sa(dp1795
Vrating
p1796
I5
sVaspects
p1797
(lp1798
(dp1799
Vrating
p1800
I3
sVtype
p1801
Voverall
p1802
sasVlanguage
p1803
Ven
p1804
sVtext
p1805
VBeautiful library - I love the architecture and the chandeliers hanging in the main reading room; very large and expansive in which you get grab a table to study and/or do work.  Not to mention that this was one of the sites used for 'Ghostwriters!'  There is plenty of light from the natural sunlight streaming in from the large windows as well as the additional light from the lamps.  They have an extensive collection of books and it's a beautiful place to just stop by if you're in the area.
p1806
sVauthor_name
p1807
VSenaida Salmon
p1808
sVauthor_url
p1809
Vhttps://plus.google.com/114300096668768848098
p1810
sVtime
p1811
I1415185197
sasVformatted_phone_number
p1812
V(415) 557-4400
p1813
sVaddress_components
p1814
(lp1815
(dp1816
Vlong_name
p1817
V100
p1818
sVtypes
p1819
(lp1820
Vstreet_number
p1821
asVshort_name
p1822
V100
p1823
sa(dp1824
Vlong_name
p1825
VLarkin St
p1826
sVtypes
p1827
(lp1828
Vroute
p1829
asVshort_name
p1830
VLarkin St
p1831
sa(dp1832
Vlong_name
p1833
VCivic Center
p1834
sVtypes
p1835
(lp1836
Vneighborhood
p1837
aVpolitical
p1838
asVshort_name
p1839
VCivic Center
p1840
sa(dp1841
Vlong_name
p1842
VSan Francisco
p1843
sVtypes
p1844
(lp1845
Vlocality
p1846
aVpolitical
p1847
asVshort_name
p1848
VSF
p1849
sa(dp1850
Vlong_name
p1851
VSan Francisco County
p1852
sVtypes
p1853
(lp1854
Vadministrative_area_level_2
p1855
aVpolitical
p1856
asVshort_name
p1857
VSan Francisco County
p1858
sa(dp1859
Vlong_name
p1860
VCalifornia
p1861
sVtypes
p1862
(lp1863
Vadministrative_area_level_1
p1864
aVpolitical
p1865
asVshort_name
p1866
VCA
p1867
sa(dp1868
Vlong_name
p1869
VUnited States
p1870
sVtypes
p1871
(lp1872
Vcountry
p1873
aVpolitical
p1874
asVshort_name
p1875
VUS
p1876
sa(dp1877
Vlong_name
p1878
V94102
p1879
sVtypes
p1880
(lp1881
Vpostal_code
p1882
asVshort_name
p1883
V94102
p1884
sassba(ispot
Spot
p1885
(dp1886
g3
Nsg4
(dp1887
Vrating
p1888
F4.4
sVreference
p1889
VCnRwAAAAYCJMgQ06vlhmZMGeCC8EXtuxy5hdMSdy4kWLovzmF60uPGP1gGBjIiNBK2rlUAVWed1QRHZ4eMh6cg0y9sHEZfL4rcAwEUbRC3Nx4gCeUdxpDnTlLyZYL4GGBLc-zwyUl1qVoRwpyDV1b9lYav8swxIQsFmW9P3eaonD6pSUoDe7JBoUO6N_fHQVRuEdca2BxWrffus5sLQ
p1890
sVplace_id
p1891
VChIJS5fZqsx_j4ARsnlQbCfuapc
p1892
sVurl
p1893
Vhttps://plus.google.com/115958020751040892385/about?hl=en-US
p1894
sVformatted_address
p1895
V1705 Mariposa St, San Francisco, CA 94107, United States
p1896
sVid
p1897
Vc1c4eb58d9464534bb426042172104c8745ccac9
p1898
sVopening_hours
p1899
(dp1900
Vweekday_text
p1901
(lp1902
VMonday: 9:00 am \u2013 5:00 pm
p1903
aVTuesday: 9:00 am \u2013 5:00 pm
p1904
aVWednesday: 9:00 am \u2013 5:00 pm
p1905
aVThursday: 9:00 am \u2013 5:00 pm
p1906
aVFriday: 9:00 am \u2013 5:00 pm
p1907
aVSaturday: Closed
p1908
aVSunday: Closed
p1909
asVopen_now
p1910
I00
sVperiods
p1911
(lp1912
(dp1913
Vclose
p1914
(dp1915
Vday
p1916
I1
sVtime
p1917
V1700
p1918
ssVopen
p1919
(dp1920
Vday
p1921
I1
sVtime
p1922
V0900
p1923
ssa(dp1924
Vclose
p1925
(dp1926
Vday
p1927
I2
sVtime
p1928
V1700
p1929
ssVopen
p1930
(dp1931
Vday
p1932
I2
sVtime
p1933
V0900
p1934
ssa(dp1935
Vclose
p1936
(dp1937
Vday
p1938
I3
sVtime
p1939
V1700
p1940
ssVopen
p1941
(dp1942
Vday
p1943
I3
sVtime
p1944
V0900
p1945
ssa(dp1946
Vclose
p1947
(dp1948
Vday
p1949
I4
sVtime
p1950
V1700
p1951
ssVopen
p1952
(dp1953
Vday
p1954
I4
sVtime
p1955
V0900
p1956
ssa(dp1957
Vclose
p1958
(dp1959
Vday
p1960
I5
sVtime
p1961
V1700
p1962
ssVopen
p1963
(dp1964
Vday
p1965
I5
sVtime
p1966
V0900
p1967
ssassVvicinity
p1968
V1705 Mariposa St, San Francisco
p1969
sVscope
p1970
VGOOGLE
p1971
sVwebsite
p1972
Vhttp://www.anchorbrewing.com/
p1973
sVutc_offset
p1974
I-480
sVuser_ratings_total
p1975
I149
sVphotos
p1976
(lp1977
(dp1978
Vphoto_reference
p1979
VCnRnAAAAIIhYX0yfhmYDlxtQNWW8q1hdcxzQSEfMF4OtowJIOOgfaebI7Sl4ceLhZ87VoenEryaPNpo7JFSal8faPMhiU_mMBJ_Qwq0TZnLqP2LKdYFXYoTg_kJIdrRq7SbDs3uZV8uTUaHW9wVJnpsPhSWDxBIQLZh0xJWTk4O5fT3NbRkT8xoUtaNCQAWR_GEPcFDj1FpnkU0E9Cg
p1980
sVwidth
p1981
I1000
sVhtml_attributions
p1982
(lp1983
sVheight
p1984
I664
sa(dp1985
Vphoto_reference
p1986
VCnRnAAAAavuT_2x1T3E_SlzLJZsSi4mZ_ZPz25QTkEkU1tSCJkYlTWGUdjsmUfl_1iYqgMwgGJSUR3sLaL1AnRljrMzXb53dgUCUnkQbPm4WBrH_Gwesadwy_8a6vuOXibZvAO-cFzEYdYrKAQlFQiqJqGOk-xIQYjt5hp4cAFpffGHlgK3FgxoUgjBLOCDQY5TXoYEEHC-TUQrpUgo
p1987
sVwidth
p1988
I1000
sVhtml_attributions
p1989
(lp1990
sVheight
p1991
I541
sa(dp1992
Vphoto_reference
p1993
VCnRnAAAAdRRaMWHl_6rUS8LGl-cQMhMFLzmOFxfwqcsbWIVkTIzl7mrpoiOfTM-zFiQTvkgxCXrNfvKtsqiG6ofcnVzW4tH1U6catWjkbg1XWngTSz7THDsEH9hflK3V4BpqC0ehfiFNrvqD9emGBtBEXSqOHBIQuV1gbG1eXoCgbRPvmwno6xoUw02PANBD61-2NfZ38T0jlXfq9zw
p1994
sVwidth
p1995
I1000
sVhtml_attributions
p1996
(lp1997
sVheight
p1998
I667
sa(dp1999
Vphoto_reference
p2000
VCnRnAAAA5eKH7hxb3UcxVv2sljTQhU-syDJ65CjMCsD5LU5aA8LF7zxfEBsdDeS23rltOtkb48aRTGkjiRFJY7VNABh5ghyf3S5IFeNX92vDO4Cz4PUSL_l3hc3INxfH5AeDSUg9imEzZuW_Y-dIuLOMDmVQ8RIQsTqlJfGFvKyfMLNQrNunfxoUsKHLl8ZflqTmSuZUJ8i_fM2N7vs
p2001
sVwidth
p2002
I1000
sVhtml_attributions
p2003
(lp2004
sVheight
p2005
I667
sa(dp2006
Vphoto_reference
p2007
VCnRnAAAA2AgGnv2pfXd2vaqNmrhhhzk-0j2BCmgi-nk250v1yZq4PiSmFT9G-gghG_o9_EmhaZWB1Uth4-7rOyU4zmPPzVMXQyf5h2Y2pCXxS13wMgQTiZ_1b9NmTUY-TwK4aJryfMZHBE-lp92OEsuWCDfFRRIQqn-zbFHjnrfuUCXrnvbOhRoUuctVffD9SIestopKS1kBKWmYzjI
p2008
sVwidth
p2009
I600
sVhtml_attributions
p2010
(lp2011
sVheight
p2012
I600
sasVtypes
p2013
(lp2014
Vfood
p2015
aVbar
p2016
aVestablishment
p2017
asVicon
p2018
Vhttp://maps.gstatic.com/mapfiles/place_api/icons/bar-71.png
p2019
sVname
p2020
VAnchor Brewing Company
p2021
sVgeometry
p2022
(dp2023
Vlocation
p2024
(dp2025
Vlat
p2026
F37.763222
sVlng
p2027
F-122.400946
sssVadr_address
p2028
V<span class="street-address">1705 Mariposa St</span>, <span class="locality">San Francisco</span>, <span class="region">CA</span> <span class="postal-code">94107</span>, <span class="country-name">United States</span>
p2029
sVinternational_phone_number
p2030
V+1 415-863-8350
p2031
sVreviews
p2032
(lp2033
(dp2034
Vrating
p2035
I5
sVaspects
p2036
(lp2037
(dp2038
Vrating
p2039
I3
sVtype
p2040
Voverall
p2041
sasVlanguage
p2042
Ven
p2043
sVtext
p2044
VThe tour was amazing. Incredibly informative about this amazing 100+ year old brewery and the history behind their method in making inedible beer. The post type trading is a perfect ending after seeing the incredibly large tanks of beer, made with whole hoops that fills the air with a sweet smell that travels throughout the entire brewery, almost ready to enter the bottle with its hand created label. They even have a small stand displaying products with the anchor label ready to take home as a souvenir. \u000a\u000aThis is honestly one of the greatest experiences you will ever have in San Francisco. It requires a reservation month's in advance however that is a small price to pay for this incredible tour, along with the small price of $15 for the tour. I highly recommend it.
p2045
sVauthor_name
p2046
VOscar Velarde
p2047
sVauthor_url
p2048
Vhttps://plus.google.com/103011030476598492144
p2049
sVtime
p2050
I1411697689
sa(dp2051
Vrating
p2052
I5
sVaspects
p2053
(lp2054
(dp2055
Vrating
p2056
I3
sVtype
p2057
Voverall
p2058
sasVlanguage
p2059
Ven
p2060
sVtext
p2061
VI got a free set of tickets to this amazing brewery tour! They are very knowledgeable and clean! (Apparently that's the best way to make beer.) During the tour we were educated not only about the history of the Anchor Brewing company but also how their beers came about and the entire brewing process. After the tour the group got a tasting of all their beer made year round. The guys who gave the tour were engaging and funny. Well worth the money. I'd gladly pay to do it again!
p2062
sVauthor_name
p2063
VMichelle Rowe
p2064
sVauthor_url
p2065
Vhttps://plus.google.com/108974765489459336063
p2066
sVtime
p2067
I1412298568
sa(dp2068
Vrating
p2069
I5
sVaspects
p2070
(lp2071
(dp2072
Vrating
p2073
I3
sVtype
p2074
Voverall
p2075
sasVlanguage
p2076
Ven
p2077
sVtext
p2078
VOne of my favorite local beers. I would highly recommend giving this place and call and setting up a tour of the place. Learn some local SF history about Anchor. Be sure to ask for Bobby if you get a tour. He's great. 
p2079
sVauthor_name
p2080
VRyan Paredez
p2081
sVauthor_url
p2082
Vhttps://plus.google.com/100569678115145725371
p2083
sVtime
p2084
I1392080780
sa(dp2085
Vrating
p2086
I4
sVaspects
p2087
(lp2088
(dp2089
Vrating
p2090
I2
sVtype
p2091
Voverall
p2092
sasVlanguage
p2093
Ven
p2094
sVtext
p2095
VWe were able to get away on a weekday for a tour. It was a good tour, extensive and informative. You try a lot of beer. The employees are upbeat and friendly. Pretty cool facility. Definitely recommend but book a tour early!
p2096
sVauthor_name
p2097
VJenny Gossett
p2098
sVauthor_url
p2099
Vhttps://plus.google.com/101040699501346495649
p2100
sVtime
p2101
I1401831553
sa(dp2102
Vrating
p2103
I3
sVaspects
p2104
(lp2105
(dp2106
Vrating
p2107
I1
sVtype
p2108
Voverall
p2109
sasVlanguage
p2110
Ven
p2111
sVtext
p2112
VWalked many miles from our San Francisco hostel by Fisherman's Warf. Neat building, but no tasteroom or tap house. 
p2113
sVauthor_name
p2114
VChris Allgood
p2115
sVauthor_url
p2116
Vhttps://plus.google.com/113025981059745273246
p2117
sVtime
p2118
I1394503907
sasVformatted_phone_number
p2119
V(415) 863-8350
p2120
sVaddress_components
p2121
(lp2122
(dp2123
Vlong_name
p2124
V1705
p2125
sVtypes
p2126
(lp2127
Vstreet_number
p2128
asVshort_name
p2129
V1705
p2130
sa(dp2131
Vlong_name
p2132
VMariposa St
p2133
sVtypes
p2134
(lp2135
Vroute
p2136
asVshort_name
p2137
VMariposa St
p2138
sa(dp2139
Vlong_name
p2140
VSan Francisco
p2141
sVtypes
p2142
(lp2143
Vlocality
p2144
aVpolitical
p2145
asVshort_name
p2146
VSF
p2147
sa(dp2148
Vlong_name
p2149
VCalifornia
p2150
sVtypes
p2151
(lp2152
Vadministrative_area_level_1
p2153
aVpolitical
p2154
asVshort_name
p2155
VCA
p2156
sa(dp2157
Vlong_name
p2158
VUnited States
p2159
sVtypes
p2160
(lp2161
Vcountry
p2162
aVpolitical
p2163
asVshort_name
p2164
VUS
p2165
sa(dp2166
Vlong_name
p2167
V94107
p2168
sVtypes
p2169
(lp2170
Vpostal_code
p2171
asVshort_name
p2172
V94107
p2173
sa(dp2174
Vlong_name
p2175
V2334
p2176
sVtypes
p2177
(lp2178
Vpostal_code_suffix
p2179
asVshort_name
p2180
V2334
p2181
sassba(ispot
Spot
p2182
(dp2183
g3
Nsg4
(dp2184
Vrating
p2185
F3.9
sVreference
p2186
VCoQBdwAAABEH5B-Sd05h6ktvLEl89GEfRZy31Oc6dzbVyCPrDj-mEckIcNsvgTRudJytO0J6pOk516coui7tN2y9IgR7_g9w8EwfS0j0QwrS95owxK6nc4SEnCAuOzkGRudih6iJnCV6qYXbB_nJfs7Rurv97rL07WAv9gH4qQ5DLC5MQVoLEhC1rWr6TaEHqclwMkN7JMxeGhSXf0r2PjMBvXxaYkeY2uHvCTjW1w
p2187
sVplace_id
p2188
VChIJ6zMe3oWAhYARaZ33Z1BAMRo
p2189
sVurl
p2190
Vhttps://plus.google.com/106989872492416375687/about?hl=en-US
p2191
sVformatted_address
p2192
V865 Market St, San Francisco, CA 94103, United States
p2193
sVid
p2194
V25d4bf0577c1d6e6c1ad6372dca5c4efaa5d74da
p2195
sVopening_hours
p2196
(dp2197
Vweekday_text
p2198
(lp2199
VMonday: 10:00 am \u2013 8:30 pm
p2200
aVTuesday: 10:00 am \u2013 8:30 pm
p2201
aVWednesday: 10:00 am \u2013 8:30 pm
p2202
aVThursday: 10:00 am \u2013 8:30 pm
p2203
aVFriday: 10:00 am \u2013 8:30 pm
p2204
aVSaturday: 10:00 am \u2013 8:30 pm
p2205
aVSunday: 11:00 am \u2013 7:00 pm
p2206
asVopen_now
p2207
I00
sVperiods
p2208
(lp2209
(dp2210
Vclose
p2211
(dp2212
Vday
p2213
I0
sVtime
p2214
V1900
p2215
ssVopen
p2216
(dp2217
Vday
p2218
I0
sVtime
p2219
V1100
p2220
ssa(dp2221
Vclose
p2222
(dp2223
Vday
p2224
I1
sVtime
p2225
V2030
p2226
ssVopen
p2227
(dp2228
Vday
p2229
I1
sVtime
p2230
V1000
p2231
ssa(dp2232
Vclose
p2233
(dp2234
Vday
p2235
I2
sVtime
p2236
V2030
p2237
ssVopen
p2238
(dp2239
Vday
p2240
I2
sVtime
p2241
V1000
p2242
ssa(dp2243
Vclose
p2244
(dp2245
Vday
p2246
I3
sVtime
p2247
V2030
p2248
ssVopen
p2249
(dp2250
Vday
p2251
I3
sVtime
p2252
V1000
p2253
ssa(dp2254
Vclose
p2255
(dp2256
Vday
p2257
I4
sVtime
p2258
V2030
p2259
ssVopen
p2260
(dp2261
Vday
p2262
I4
sVtime
p2263
V1000
p2264
ssa(dp2265
Vclose
p2266
(dp2267
Vday
p2268
I5
sVtime
p2269
V2030
p2270
ssVopen
p2271
(dp2272
Vday
p2273
I5
sVtime
p2274
V1000
p2275
ssa(dp2276
Vclose
p2277
(dp2278
Vday
p2279
I6
sVtime
p2280
V2030
p2281
ssVopen
p2282
(dp2283
Vday
p2284
I6
sVtime
p2285
V1000
p2286
ssassVvicinity
p2287
V865 Market St, San Francisco
p2288
sVscope
p2289
VGOOGLE
p2290
sVwebsite
p2291
Vhttp://www.westfield.com/sanfrancisco
p2292
sVutc_offset
p2293
I-480
sVuser_ratings_total
p2294
I426
sVphotos
p2295
(lp2296
(dp2297
Vphoto_reference
p2298
VCnRqAAAA2T3emMt-AWnH7bpLU-ftEZvLlvcMzY9yljXfWIGRZLYipUNg_vZreU_QthsIO_02Rwk5mZTcW0zkUQscFaVOWFa4M58GONOCSabJz5Ta41AmJCsLvLY8at31FyoSaycRovbTqPZ8LAX5p6b3sVLx5xIQOwFL6gWLNm2SuvXK1Lvm-xoU0uM_O3sUWsw74cLmkebrB-iIQQQ
p2299
sVwidth
p2300
I336
sVhtml_attributions
p2301
(lp2302
sVheight
p2303
I448
sa(dp2304
Vphoto_reference
p2305
VCpQBggAAAHkMPQT9yPbyHa0oJ9sOfaHwVV5B8o_b2ont0yconK5ORH6r7PcRkVScTerODmkO5Y97_1zJtccBYuyUfDXm6JJRGITx6Ym3H1lDjj5kIuMHkrwmDQxA-a4-vlReSPLmNUjYfQ5_bqT-3Yq1weEHb827pTflYrtA2ISrv51GGlXwuXogNflx3m7r5qVoCfy_kxIQdPP4ty3lW-e4e_unAZmFhRoUryJHR7Tzr-B4_SNvPU6fDB-gmgs
p2306
sVwidth
p2307
I1632
sVhtml_attributions
p2308
(lp2309
VFrom a Google User
p2310
asVheight
p2311
I976
sa(dp2312
Vphoto_reference
p2313
VCpQBggAAAPMWQFY3G51cOvzC6fBsC3lQX01rkA8KNKuFcljN_Fp6PqFD8X_xs5rIzonStXpx5Nzo5cRalzAw_DdfcFwsxfCYoQViRmPDyCOMG2O24GCo_GmGhcQFVkU1fl05CcgYb8Y0mI6dbZ6TtCKICbkVDAdNVWo6zwAlznOve0SjMNnIR6uN1S5ABubPxr8vcTbKkBIQsYmTlu16SzP_1n7nGhBjcBoUln72EogmZq7QSsUW2LIFJzZuOEQ
p2314
sVwidth
p2315
I960
sVhtml_attributions
p2316
(lp2317
V<a href="https://plus.google.com/104122760120991086547">Eddy Veras</a>
p2318
asVheight
p2319
I540
sa(dp2320
Vphoto_reference
p2321
VCnRoAAAAPYePJTTuNiLkG9bw415D-p_laM5g2LGztZz1cnoUbocspOkkhvFhWQBrytULh4dPMJNBROiBTZLVgsfOim2Fpz9RCxBtv-cEw0hRWwKpkRfCKSXBUHl_lC_no0lFqQu11I12gUjOYDTcnURipTEpExIQVNIL8DdoMle55FM9zGtBExoUeyb2s1fH2e1FmbAw3rM_jADgHEg
p2322
sVwidth
p2323
I896
sVhtml_attributions
p2324
(lp2325
V<a href="https://plus.google.com/102202411800644964458">Tarek Auel</a>
p2326
asVheight
p2327
I448
sa(dp2328
Vphoto_reference
p2329
VCpQBggAAAD6Qk42OVwizx0ADKDFriIeNocij-07-oIgq-TrEtBudMYRuuF3AggJB0UteFIlHEWxU_J4-4z4cwiDcfFzCRsDQ4-G5myIKZJddsaYGYkSBrqnTqgtNVpYm0f4Jck8yOVXfzAUP7I9ezn8SKYnDensV14JB9SgJstx_IgHB0bIO0xJIVyJFmBR-pO-YNbDPsxIQ6ZUJ3jGDN0lq4PgPqEpMVxoU-dgktg-2ZOvSLlbPReRo6BWopOI
p2330
sVwidth
p2331
I640
sVhtml_attributions
p2332
(lp2333
VFrom a Google User
p2334
asVheight
p2335
I480
sa(dp2336
Vphoto_reference
p2337
VCnRoAAAA9UEtZp74NPGVlD71ZtDzq0zDhiCBuGht49YKakUgdk9DCqXRD0VS7RSeSuvjCBuDtBza990HrM7Yt-p-WO_MIOBIdE4vDFpEgPLLmbBm11ikkKi0_77YlTVnaXCyqYFG-1RjE24Qz0fPj71OZZCOthIQxWnNqz5J8Z1Mn55CyXBh8RoUPbZIAjbEHcr4YVPHQqPiTSlkES8
p2338
sVwidth
p2339
I640
sVhtml_attributions
p2340
(lp2341
V<a href="https://plus.google.com/105160613024897619532">Abdullah Al Marshed</a>
p2342
asVheight
p2343
I640
sa(dp2344
Vphoto_reference
p2345
VCpQBggAAAPSt-9CchflxKrHtJO55qOCN_74CqWU1zKvi80j7Kq18yTd7ut2QQ71WBsfkx5BuRSzhr9PDtMKAuHyEzG8TEmjVg_AjOD2Az37hsAVz2WWU3mSO9UTRh8tNNzdRCHEo7dTZDpyMjuOeHm-HiIfTOoXEE008AKBprlWQzgwcGZ5u7SOfXQkMCp9cW8pZyrcbwhIQD-TXo0Jkdv1rPBqvN_ghdhoUa0LfRdVergYtJhavrTIHAPYOZI8
p2346
sVwidth
p2347
I1296
sVhtml_attributions
p2348
(lp2349
VFrom a Google User
p2350
asVheight
p2351
I776
sa(dp2352
Vphoto_reference
p2353
VCnRqAAAA3j8j1GOgheMTYJEy4i_q3dNgOumloXWlKTFosrhMWgk3aemTqGgvwVkujBbV8k7dSvyy1jKe6q6v4OLoKe8YUfQc-EaG3sxZml32TE3UGqaTYO42fCSwcxjLJZ3t1htnDaj9lTHY456SXVa3FlJNARIQIiSgtds-WqrET1BWEWqPchoUmcthuyqdsS8XjKEnrWwpCnVYwPE
p2354
sVwidth
p2355
I448
sVhtml_attributions
p2356
(lp2357
sVheight
p2358
I156
sasVtypes
p2359
(lp2360
Vshopping_mall
p2361
aVestablishment
p2362
asVicon
p2363
Vhttp://maps.gstatic.com/mapfiles/place_api/icons/generic_business-71.png
p2364
sVname
p2365
VWestfield San Francisco Centre
p2366
sVgeometry
p2367
(dp2368
Vlocation
p2369
(dp2370
Vlat
p2371
F37.784143
sVlng
p2372
F-122.407361
sssVadr_address
p2373
V<span class="street-address">865 Market St</span>, <span class="locality">San Francisco</span>, <span class="region">CA</span> <span class="postal-code">94103</span>, <span class="country-name">United States</span>
p2374
sVinternational_phone_number
p2375
V+1 415-495-5656
p2376
sVreviews
p2377
(lp2378
(dp2379
Vrating
p2380
I5
sVaspects
p2381
(lp2382
(dp2383
Vrating
p2384
I3
sVtype
p2385
Voverall
p2386
sasVlanguage
p2387
Ven
p2388
sVtext
p2389
VThis mall offers an all-inclusive customer experience with shops, restaurants, a full service spa, grocery store and theater all under one roof. You can easily spend an entire day browsing, shopping, eating and relaxing with the added convenience of accessing an attached BART station. They offer a good variety of shops and department stores, including one of my favorites, Bloomingdales. Bristol Farms is a very fun gourmet grocery store to peruse and buy, with a wonderful variety of food that even the most discriminating eaters can select from. 
p2390
sVauthor_name
p2391
VLana C
p2392
sVauthor_url
p2393
Vhttps://plus.google.com/104200568677644151902
p2394
sVtime
p2395
I1408153162
sa(dp2396
Vrating
p2397
I5
sVaspects
p2398
(lp2399
(dp2400
Vrating
p2401
I3
sVtype
p2402
Voverall
p2403
sasVlanguage
p2404
Ven
p2405
sVtext
p2406
Vh t t p s : / / t . c o / S e 2 W S e R x Q G 
p2407
sVauthor_name
p2408
VRoyce Rollzae
p2409
sVauthor_url
p2410
Vhttps://plus.google.com/115845183049449381542
p2411
sVtime
p2412
I1408723479
sa(dp2413
Vrating
p2414
I1
sVaspects
p2415
(lp2416
(dp2417
Vrating
p2418
I0
sVtype
p2419
Voverall
p2420
sasVlanguage
p2421
Ven
p2422
sVtext
p2423
VIt was a very bad shopping experience at Westfield, San Francisco Centre. I was eating my  lunch  by Sarku Japan when i saw a black man sat down beside me and suddenly he snatched my phone then ran off. But the securities are very stupid, they can't  run fast to catch up the robber. Just run very slowly, i'm so angry. i cannot believe that my phone was snatched in a big shopping mall. It is a Westfield big shopping mall, not a small place or on the street.  The safety system is very very poor of Westfield San Francisco Centre !!!!
p2424
sVauthor_name
p2425
Vhuijie woo
p2426
sVauthor_url
p2427
Vhttps://plus.google.com/107279968104690970437
p2428
sVtime
p2429
I1398414301
sa(dp2430
Vrating
p2431
I4
sVaspects
p2432
(lp2433
(dp2434
Vrating
p2435
I2
sVtype
p2436
Voverall
p2437
sasVlanguage
p2438
Ven
p2439
sVtext
p2440
VBeautiful, historic architecture inside the mall.  The amount of stores is a bit overwhelming, and it is typically crowded.  You can find almost any store you want in the mall (no See's chocolate though).  The food court has a very large selection of choices.  Parking across the street can get expensive.  I like to take out of town visitors here to take pictures.  The dome is super impressive.
p2441
sVauthor_name
p2442
VLibby Chang
p2443
sVauthor_url
p2444
Vhttps://plus.google.com/105175245829173637529
p2445
sVtime
p2446
I1394606800
sa(dp2447
Vrating
p2448
I4
sVaspects
p2449
(lp2450
(dp2451
Vrating
p2452
I2
sVtype
p2453
Voverall
p2454
sasVlanguage
p2455
Ven
p2456
sVtext
p2457
VI like the architecture of the Westfield. Explore the top level (dome) for some nicer areas to sit and also for the new, upscale restaurants.
p2458
sVauthor_name
p2459
VTye Chait
p2460
sVauthor_url
p2461
Vhttps://plus.google.com/100427141882576084440
p2462
sVtime
p2463
I1407698304
sasVformatted_phone_number
p2464
V(415) 495-5656
p2465
sVaddress_components
p2466
(lp2467
(dp2468
Vlong_name
p2469
V865
p2470
sVtypes
p2471
(lp2472
Vstreet_number
p2473
asVshort_name
p2474
V865
p2475
sa(dp2476
Vlong_name
p2477
VMarket St
p2478
sVtypes
p2479
(lp2480
Vroute
p2481
asVshort_name
p2482
VMarket St
p2483
sa(dp2484
Vlong_name
p2485
VSan Francisco
p2486
sVtypes
p2487
(lp2488
Vlocality
p2489
aVpolitical
p2490
asVshort_name
p2491
VSF
p2492
sa(dp2493
Vlong_name
p2494
VSan Francisco County
p2495
sVtypes
p2496
(lp2497
Vadministrative_area_level_2
p2498
aVpolitical
p2499
asVshort_name
p2500
VSan Francisco County
p2501
sa(dp2502
Vlong_name
p2503
VCalifornia
p2504
sVtypes
p2505
(lp2506
Vadministrative_area_level_1
p2507
aVpolitical
p2508
asVshort_name
p2509
VCA
p2510
sa(dp2511
Vlong_name
p2512
VUnited States
p2513
sVtypes
p2514
(lp2515
Vcountry
p2516
aVpolitical
p2517
asVshort_name
p2518
VUS
p2519
sa(dp2520
Vlong_name
p2521
V94103
p2522
sVtypes
p2523
(lp2524
Vpostal_code
p2525
asVshort_name
p2526
V94103
p2527
sassba(ispot
Spot
p2528
(dp2529
g3
Nsg4
(dp2530
Vrating
p2531
F3.9
sVreference
p2532
VCnRmAAAAfIq3yYNEx7vWp-6fg8iqmlpo29b1NUlfTpKmyaSKb9JW4rEnQqhbaEZZhRDUCDH4qkqPLILWOPWv4X95Rm6afSKfAOI0jeRl5gBKlbcvfabfoKpqX-3ewkSzC-7cBTsVEg384gpcdpocSJ-ELLWrCBIQT9d_h-iH6mLdmdrWV7ZeaBoUBdHTgq4siqOgJfbUTCgXledlKvo
p2533
sVprice_level
p2534
I0
sVplace_id
p2535
VChIJJ6m71o6AhYARiUxigIz3gLw
p2536
sVurl
p2537
Vhttps://plus.google.com/105424703974286241832/about?hl=en-US
p2538
sVformatted_address
p2539
V333 Post St, San Francisco, CA 94108, United States
p2540
sVid
p2541
Vb49a3811f38d6725cd7f95b00b4f03593c62b5de
p2542
sVopening_hours
p2543
(dp2544
Vweekday_text
p2545
(lp2546
VMonday: 9:00 am \u2013 12:00 am
p2547
aVTuesday: 9:00 am \u2013 12:00 am
p2548
aVWednesday: 9:00 am \u2013 12:00 am
p2549
aVThursday: 9:00 am \u2013 12:00 am
p2550
aVFriday: 9:00 am \u2013 12:00 am
p2551
aVSaturday: 9:00 am \u2013 12:00 am
p2552
aVSunday: 9:00 am \u2013 12:00 am
p2553
asVopen_now
p2554
I00
sVperiods
p2555
(lp2556
(dp2557
Vclose
p2558
(dp2559
Vday
p2560
I1
sVtime
p2561
V0000
p2562
ssVopen
p2563
(dp2564
Vday
p2565
I0
sVtime
p2566
V0900
p2567
ssa(dp2568
Vclose
p2569
(dp2570
Vday
p2571
I2
sVtime
p2572
V0000
p2573
ssVopen
p2574
(dp2575
Vday
p2576
I1
sVtime
p2577
V0900
p2578
ssa(dp2579
Vclose
p2580
(dp2581
Vday
p2582
I3
sVtime
p2583
V0000
p2584
ssVopen
p2585
(dp2586
Vday
p2587
I2
sVtime
p2588
V0900
p2589
ssa(dp2590
Vclose
p2591
(dp2592
Vday
p2593
I4
sVtime
p2594
V0000
p2595
ssVopen
p2596
(dp2597
Vday
p2598
I3
sVtime
p2599
V0900
p2600
ssa(dp2601
Vclose
p2602
(dp2603
Vday
p2604
I5
sVtime
p2605
V0000
p2606
ssVopen
p2607
(dp2608
Vday
p2609
I4
sVtime
p2610
V0900
p2611
ssa(dp2612
Vclose
p2613
(dp2614
Vday
p2615
I6
sVtime
p2616
V0000
p2617
ssVopen
p2618
(dp2619
Vday
p2620
I5
sVtime
p2621
V0900
p2622
ssa(dp2623
Vclose
p2624
(dp2625
Vday
p2626
I0
sVtime
p2627
V0000
p2628
ssVopen
p2629
(dp2630
Vday
p2631
I6
sVtime
p2632
V0900
p2633
ssassVvicinity
p2634
V333 Post St, San Francisco
p2635
sVscope
p2636
VGOOGLE
p2637
sVwebsite
p2638
Vhttp://www.visitunionsquaresf.com/
p2639
sVutc_offset
p2640
I-480
sVuser_ratings_total
p2641
I266
sVphotos
p2642
(lp2643
(dp2644
Vphoto_reference
p2645
VCoQBdQAAAMAMPDN1bV_BkJie3t64Sm6ag5BBCLZDavPbqZwzHMXrWWxt7tpOOn01VATPf0FxL8NzRe5b5hIpMwj9VvY06nRHQdg1YJRGtqrZHKUWuzSx0Ix5WToiaNr2QKdtQ4D-RwcswTIgbpyPkO3IT2F1xsrwncR_5WN8XUzNjCoyB1hpEhAl5lJ2m5BoerveTvDgG2nqGhSwYJFG-p65Acf0PNRVhIYjK7r_zw
p2646
sVwidth
p2647
I1944
sVhtml_attributions
p2648
(lp2649
V<a href="https://plus.google.com/105076373952934230883">andrea mancini</a>
p2650
asVheight
p2651
I2592
sa(dp2652
Vphoto_reference
p2653
VCoQBcwAAAHSeRMtC-WuhCaaAMWR_vcC-ck-5dem-bmYZAorBmIMIYUvNpnseIq6nJXdQzG7ZEYqYHDbY4Ppb672SWbJG6exjqhmDUrGCTmRqXLOn5sT2W6wPPt56bwFgOC4Bp0ac4pI1OO7c7dYCpfGIJI_X95OglqS-enpO2yrzPDCaKnVREhDAXWYZMfIp2ATXnViRPyjvGhQ9n3k3F8R3PNGc8TxI5wN7aTSflg
p2654
sVwidth
p2655
I1296
sVhtml_attributions
p2656
(lp2657
VFrom a Google User
p2658
asVheight
p2659
I776
sa(dp2660
Vphoto_reference
p2661
VCoQBcwAAAJj_-wq9wDGfA86zSQjXezPMq-f3vmRAGCAYZQWehJtC9E9p4-Bt3iKZRaXl64ytt0FXGUUhNbshVv_bSpH434mLSRffMWjk-Pd5xqpjUuR-230KpezpZ8qBrOBjOB5GLT15cm09aiV9p18oYF_ZR_9Sr703V_a3U28I3XACpc4WEhCHAEmro_KZDlzbs8ZwOQISGhQ1K-aaDe1qzDrmpTF2GgnACZ4kXA
p2662
sVwidth
p2663
I768
sVhtml_attributions
p2664
(lp2665
VFrom a Google User
p2666
asVheight
p2667
I1024
sa(dp2668
Vphoto_reference
p2669
VCoQBcwAAAI7IjRwYnYTh9PZs3-W2_fwsMOjFWMAIB2UEQEIThLnh5e-GNXDhQbuYAdokbNZ2V2oyyUuKfTU0-gyIQuoOyBgeXpk_xx3TSoYhCa3eFEH0xlExWXLxkd5N3-tFfv8FaXSZK_dQHwTTZzeFjkQfG4kKHh1Gr0tnHOznHAsg2jgREhBiMeeEmroZtXshz0VV9ID4GhSxcGgdPvPU4nXf3lf4SsvUX12QGg
p2670
sVwidth
p2671
I1296
sVhtml_attributions
p2672
(lp2673
V<a href="https://plus.google.com/111947489942124903382">Farrel Buchinsky</a>
p2674
asVheight
p2675
I972
sa(dp2676
Vphoto_reference
p2677
VCnRoAAAARW2GVMNYbu4NbeDO73t2ruo9VJl56kJalwknlw2KG5JTHKXTN-9O5PsBNdf_WIONs3lKbhuDMmBKL5XO2VnYDUX5UajyOQ4bGwPC8RwM2Wj4COQet5XFmJr4edmloV3btHS-WBIRmJaphUolAZ4fJRIQ1KyTh_q6LOluiQQT3ERslxoUxKIzKj29HUUmpGawYvJxPgdqZ9Q
p2678
sVwidth
p2679
I1265
sVhtml_attributions
p2680
(lp2681
V<a href="https://plus.google.com/102690091571148307715">Amy Meyer</a>
p2682
asVheight
p2683
I949
sa(dp2684
Vphoto_reference
p2685
VCoQBcwAAAGs8QP0BJ61OdsA71SD3yyntJJB-HMKVteUDaXe_DwdUYwZILjXjteHVkquxIaJnH48v_l7qEKwc4kzLH4lttIFh0OXioWvkN2so0TZaA1WcUV3bFkmjruB81_A37bEHZngRsEgXV8F5L31GJ6NbXpz4fqBxtNARlTGky1KqVwYNEhBoKupmiBdLS_ealrO8oUPLGhTxzSWXmgkUStskLLTA2Kj8APLCTQ
p2686
sVwidth
p2687
I972
sVhtml_attributions
p2688
(lp2689
VFrom a Google User
p2690
asVheight
p2691
I1296
sa(dp2692
Vphoto_reference
p2693
VCnRoAAAAmDBSYbYd3fVtPmOi5xDue2cazmx4saKdH07fgpK9htLtbDLJx_b2ZeYemHHkcxC-T2spES-Ti5ZKMN-PO4golQ5402U0N5hvUkMyRNhGBe4ziENPCumbqLGwmh94XM3rgFugRLY84SnbZ0ITzPsNMBIQC3VlU9H0WwbhriHk6CXO8xoUfQ-BoyWCf9E79Wvj3wKGLwBh-hE
p2694
sVwidth
p2695
I1224
sVhtml_attributions
p2696
(lp2697
V<a href="https://plus.google.com/108708262973663947907">Armando Besa</a>
p2698
asVheight
p2699
I1632
sa(dp2700
Vphoto_reference
p2701
VCoQBcwAAAAq2VfcCbsd6UhzroEEKlp71_xOVltVyiRK-Y_ig83PsoOyQAm10YJW4dtBgxDdypdM9kT2Ta72aMOKC7MhuiDLof-sezCej9QNxY71sNvj_w0kRvFnomwgBqE18jl2g6cShiajodQ6zWktxK9AU_YQ263P7Ox1F8Y_sxSbh1XssEhBi8lvRDb_tvM3qKjG9RB_dGhRFBLLgJyeK_AFlmt6sIOSptvxiLg
p2702
sVwidth
p2703
I776
sVhtml_attributions
p2704
(lp2705
VFrom a Google User
p2706
asVheight
p2707
I1296
sa(dp2708
Vphoto_reference
p2709
VCoQBcwAAAFlUki2LDHQEacUJRUI8vCQ5FBjg-_EwNLGLil_5syZpWT5WSj52x1yTxT-p5KVayDLLoScVd-nTDYcKtddLVsmBOQ7sp1O3JujmlVHBPO1sOexZan04vNINarXT9cKN5MU-Wa7d50KC7E-LAUFjkLIF2uwtBCvEwnQXlC-xZtybEhAUsez0d6E05tKc6w5JgAecGhSyyfqqMkO8L7kw-IjsCvFkZejqLQ
p2710
sVwidth
p2711
I960
sVhtml_attributions
p2712
(lp2713
V<a href="https://plus.google.com/109673904073317858708">Peter Wood</a>
p2714
asVheight
p2715
I1280
sa(dp2716
Vphoto_reference
p2717
VCnRoAAAA5nAZeHpcgQVhqtFZ2p5Oc7cwu5u9K3Ht26aRXUmYE2x8seQ99Bn_btVljaUox_IPebg9RTwceiin3Pf3IKqH10l7KcgQknP9WyWkmeuvosgbMcFKfRDFTZE56ub0Hlq82m6ZmJWevmqgcnYxoNR-qxIQzvC-lPZkrDoBGOsVoO-TKRoUl_pY7-UxxxTI5kyxkHeXxFjrHCw
p2718
sVwidth
p2719
I816
sVhtml_attributions
p2720
(lp2721
V<a href="https://plus.google.com/101350698429042644706">Sergio Rodriguez de Guzman</a>
p2722
asVheight
p2723
I612
sasVtypes
p2724
(lp2725
Vpark
p2726
aVestablishment
p2727
asVicon
p2728
Vhttp://maps.gstatic.com/mapfiles/place_api/icons/generic_business-71.png
p2729
sVname
p2730
VUnion Square
p2731
sVgeometry
p2732
(dp2733
Vlocation
p2734
(dp2735
Vlat
p2736
F37.787994
sVlng
p2737
F-122.407437
sssVadr_address
p2738
V<span class="street-address">333 Post St</span>, <span class="locality">San Francisco</span>, <span class="region">CA</span> <span class="postal-code">94108</span>, <span class="country-name">United States</span>
p2739
sVinternational_phone_number
p2740
V+1 415-477-2610
p2741
sVreviews
p2742
(lp2743
(dp2744
Vrating
p2745
I4
sVaspects
p2746
(lp2747
(dp2748
Vrating
p2749
I2
sVtype
p2750
Voverall
p2751
sasVlanguage
p2752
Ven
p2753
sVtext
p2754
VUnion Square is a great place for tourists. However, for locals it could be quite a headache driving downtown. There are a lot of activities to do in the area. The most beautiful time of year to go is around Christmas time because they set up amazing light displays as well as decorations and an ice skating rink! A great place to take visitors to take pictures
p2755
sVauthor_name
p2756
VLisa Lai
p2757
sVauthor_url
p2758
Vhttps://plus.google.com/111028865577258308025
p2759
sVtime
p2760
I1415740202
sa(dp2761
Vrating
p2762
I4
sVaspects
p2763
(lp2764
(dp2765
Vrating
p2766
I2
sVtype
p2767
Voverall
p2768
sasVlanguage
p2769
Ven
p2770
sVtext
p2771
VGo to place downtown SF, but in the center of it, something still stumps me.\u000a\u000aThe Dewey Monument: designed by sculptor Robert I. Aitken and architect Newton J. Tharp, it was dedicated by President Theodore Roosevelt on May 14, 1903.\u000aTowering over the square, a bronzed figure of a woman dubbed "Winged Victory" bearing a trident, the symbol of Poseidon and of naval victory, and in the other hand, a laurel wreath, also a symbol of victory.\u000a\u000aI hope the Filipinos will remember the charade the Spanish-American war was! \u000a\u000aA moro-moro of deception aimed at a $20-Million transaction - unknown to Filipinos, through the Treaty of Paris (April 11, 1899), Spain sold the Philippines to the United States, which really, really, really, had no intention of giving them freedom at the time, despite having outlawed slavery within its own borders by 1865.
p2772
sVauthor_name
p2773
VSam Prudente
p2774
sVauthor_url
p2775
Vhttps://plus.google.com/102847070689949264672
p2776
sVtime
p2777
I1416196061
sa(dp2778
Vrating
p2779
I5
sVaspects
p2780
(lp2781
(dp2782
Vrating
p2783
I3
sVtype
p2784
Voverall
p2785
sasVlanguage
p2786
Ven
p2787
sVtext
p2788
VA must see in San Francisco! Like it's name, it's quite literally a square. There is something super special about this place though. Lots of activity, stores, restaurants, etc.... My favorite spots here are: Zara, Uniqlo, Apple Store, and Nike. And of course the higher end stores :P Tip: Try to avoid going on a Sunday since most cafes closes.
p2789
sVauthor_name
p2790
VEarl Friedberg
p2791
sVauthor_url
p2792
Vhttps://plus.google.com/110040772890698655598
p2793
sVtime
p2794
I1415723615
sa(dp2795
Vrating
p2796
I5
sVaspects
p2797
(lp2798
(dp2799
Vrating
p2800
I3
sVtype
p2801
Voverall
p2802
sasVlanguage
p2803
Ven
p2804
sVtext
p2805
VBest place for hanging out and working outside. Has free tables, free wifi and free power outlets. What else do you need?
p2806
sVauthor_name
p2807
VGevorg Madzharyan
p2808
sVauthor_url
p2809
Vhttps://plus.google.com/101851695849425096196
p2810
sVtime
p2811
I1413327706
sa(dp2812
Vrating
p2813
I4
sVaspects
p2814
(lp2815
(dp2816
Vrating
p2817
I2
sVtype
p2818
Voverall
p2819
sasVlanguage
p2820
Ven
p2821
sVtext
p2822
VA must see in San Francisco! As per it's name, it's quite literally a square. But there is something special about this place, morning, noon or night. It's a hub of activity and an entertaining place to rest your legs before exploring the rest of the city. 
p2823
sVauthor_name
p2824
VAmy Meyer
p2825
sVauthor_url
p2826
Vhttps://plus.google.com/102690091571148307715
p2827
sVtime
p2828
I1407809789
sasVformatted_phone_number
p2829
V(415) 477-2610
p2830
sVaddress_components
p2831
(lp2832
(dp2833
Vlong_name
p2834
V333
p2835
sVtypes
p2836
(lp2837
Vstreet_number
p2838
asVshort_name
p2839
V333
p2840
sa(dp2841
Vlong_name
p2842
VPost St
p2843
sVtypes
p2844
(lp2845
Vroute
p2846
asVshort_name
p2847
VPost St
p2848
sa(dp2849
Vlong_name
p2850
VSan Francisco
p2851
sVtypes
p2852
(lp2853
Vlocality
p2854
aVpolitical
p2855
asVshort_name
p2856
VSF
p2857
sa(dp2858
Vlong_name
p2859
VCalifornia
p2860
sVtypes
p2861
(lp2862
Vadministrative_area_level_1
p2863
aVpolitical
p2864
asVshort_name
p2865
VCA
p2866
sa(dp2867
Vlong_name
p2868
VUnited States
p2869
sVtypes
p2870
(lp2871
Vcountry
p2872
aVpolitical
p2873
asVshort_name
p2874
VUS
p2875
sa(dp2876
Vlong_name
p2877
V94108
p2878
sVtypes
p2879
(lp2880
Vpostal_code
p2881
asVshort_name
p2882
V94108
p2883
sassba(ispot
Spot
p2884
(dp2885
g3
Nsg4
(dp2886
Vrating
p2887
F4.6
sVreference
p2888
VCnRqAAAAG8oTuCHTqhQybYw3dcR5UTn76AHqL-Jy2N8XP3BCtgxNXa-T6IyhLtzvcBMjQFd2ZhvOWLiCIMPlKCSlPlcUP-r_HSk-iTQS8QJRC1ngaEFtBi0guNmIzrsrlqW5NMpywydW1yFYnQXH3Rsl98rhUxIQOjYE1lMPs1-nCuKet9c8ORoUMYJr5zP4NNyENcADlbpzYUMi3O4
p2889
sVplace_id
p2890
VChIJk2vl5NSGhYARwPGvs_ubIws
p2891
sVurl
p2892
Vhttps://plus.google.com/104270379098812187233/about?hl=en-US
p2893
sVformatted_address
p2894
VPier 15, San Francisco, CA 94111, United States
p2895
sVid
p2896
V9ae214e0b27d97ce2eed7cfd87a119be8820e748
p2897
sVopening_hours
p2898
(dp2899
Vweekday_text
p2900
(lp2901
VMonday: Closed
p2902
aVTuesday: 10:00 am \u2013 5:00 pm
p2903
aVWednesday: 10:00 am \u2013 5:00 pm
p2904
aVThursday: 10:00 am \u2013 5:00 pm
p2905
aVFriday: 10:00 am \u2013 5:00 pm
p2906
aVSaturday: 10:00 am \u2013 5:00 pm
p2907
aVSunday: 10:00 am \u2013 5:00 pm
p2908
asVopen_now
p2909
I00
sVperiods
p2910
(lp2911
(dp2912
Vclose
p2913
(dp2914
Vday
p2915
I0
sVtime
p2916
V1700
p2917
ssVopen
p2918
(dp2919
Vday
p2920
I0
sVtime
p2921
V1000
p2922
ssa(dp2923
Vclose
p2924
(dp2925
Vday
p2926
I2
sVtime
p2927
V1700
p2928
ssVopen
p2929
(dp2930
Vday
p2931
I2
sVtime
p2932
V1000
p2933
ssa(dp2934
Vclose
p2935
(dp2936
Vday
p2937
I3
sVtime
p2938
V1700
p2939
ssVopen
p2940
(dp2941
Vday
p2942
I3
sVtime
p2943
V1000
p2944
ssa(dp2945
Vclose
p2946
(dp2947
Vday
p2948
I4
sVtime
p2949
V1700
p2950
ssVopen
p2951
(dp2952
Vday
p2953
I4
sVtime
p2954
V1000
p2955
ssa(dp2956
Vclose
p2957
(dp2958
Vday
p2959
I5
sVtime
p2960
V1700
p2961
ssVopen
p2962
(dp2963
Vday
p2964
I5
sVtime
p2965
V1000
p2966
ssa(dp2967
Vclose
p2968
(dp2969
Vday
p2970
I6
sVtime
p2971
V1700
p2972
ssVopen
p2973
(dp2974
Vday
p2975
I6
sVtime
p2976
V1000
p2977
ssassVvicinity
p2978
VPier 15, San Francisco
p2979
sVscope
p2980
VGOOGLE
p2981
sVwebsite
p2982
Vhttp://www.exploratorium.edu/
p2983
sVutc_offset
p2984
I-480
sVuser_ratings_total
p2985
I307
sVphotos
p2986
(lp2987
(dp2988
Vphoto_reference
p2989
VCnRoAAAAPl-K1dreoW45QSzpxUXszIx74iZPXxHWFAZrpCfQlv0JqXNIGocEIFS9Ig_SN-U6RewoJ3dTmJuUAo40jczVlL1eKc2T3MB_uULAG1Wd1dhu9WDqcmxdmx0lmNCEV780Rh9A7hwEmaK5De43s5Pr-BIQpzxsLvrQ1rqhd-iE12hXcBoU_E13BpsXcZf0zKec8Y32PuftLVQ
p2990
sVwidth
p2991
I1632
sVhtml_attributions
p2992
(lp2993
V<a href="https://plus.google.com/114317162158984154862">Dave Wong</a>
p2994
asVheight
p2995
I1224
sa(dp2996
Vphoto_reference
p2997
VCnRqAAAALrNFljilPXAyCS2o6DFDKMPEuoHZmcKXbiLUsTarLzTjy0sdR47eoLaLu3WPAzvqy8ly3C4LxYAfdJxlhvLT40Bwiaa7n_JO6q7E9A7K0WqAg6qEx4YZ4I5Gm4EVwABGIhd0rD0hHyg8lA8tOzROBhIQz-4b98tqbEGemLghFBRiRxoUHCRQ9jcYzXtd-Lc6WObZPKc5DV8
p2998
sVwidth
p2999
I800
sVhtml_attributions
p3000
(lp3001
V<a href="https://plus.google.com/104386105875622819823">Adrianna Cai</a>
p3002
asVheight
p3003
I1067
sa(dp3004
Vphoto_reference
p3005
VCnRrAAAATPbRJwsmEs5Halli8aVeSbYVO7NqSwwvcxY3YUcUDngtu0e7zUk03ShHU0aerlWv3R61SOlrEpHpysf5-Cbya2J4a8TbOhU0mjFGvNNCOTCnX_QZyyfWJMMTdRB_oM2ha2qlnnKGBVR3KtKypugGTBIQCtVESslxcoSa0GTq1KuHsxoU-7nUiAYn-1Zih1zkLuClv7Y0feM
p3006
sVwidth
p3007
I960
sVhtml_attributions
p3008
(lp3009
V<a href="https://plus.google.com/115308343643348370972">Tonia Smith</a>
p3010
asVheight
p3011
I1280
sa(dp3012
Vphoto_reference
p3013
VCnRqAAAADOL5oa2vUgIhEdJWxojD3s_5t2o2KVL7o-zsW2Llb5N_skTLk-7D4cVzqmZcFKqNz5LxJ0OWMxW_yux5AeV1dB0mrFakE_JSDOWP6tely1R5Nx24RLhoq7T8rupNpUcIqGzxDXRiHigTSFKROAkdPRIQkFGaRejYuFwSq7Ht_FhvqBoUSuh53T8f2_yJxwJKq83MVu7zjuI
p3014
sVwidth
p3015
I800
sVhtml_attributions
p3016
(lp3017
V<a href="https://plus.google.com/104386105875622819823">Adrianna Cai</a>
p3018
asVheight
p3019
I600
sa(dp3020
Vphoto_reference
p3021
VCnRoAAAAYL_W8dyJgVZDgnFXhuoj0M_xr2nwaEuUCpN1pKvzaNqduKP71kY2PTvcO-qv1Tbe2wXcjrU_zDJO2QtXAv8xjJzxwuwr27GTRi7fB1vaQK-wo4z7EOCk5aUgfGSacS6TKe4U-CCpCRb7RvrV5ugNtxIQWBPzUSNsRG2y6v629l1aEhoUDL9oE4i5QfJ_NQ1w8yoNIO8CH2g
p3022
sVwidth
p3023
I960
sVhtml_attributions
p3024
(lp3025
V<a href="https://plus.google.com/104757709404454136276">Farzad Sharif</a>
p3026
asVheight
p3027
I720
sa(dp3028
Vphoto_reference
p3029
VCnRqAAAAicSNBsvaYKfbMyKLcbV0Y4It__9qKTvXIS-a7A-kUgTXVpMvJhxQQ4d-IXlS8NcYrQj9sP495eD9hO1h5duFcJMQQ2PVQ-MKsVMsfm5CXxxWwXdHmN90hQpzC-3z9PATN2_gkXjfiLERxecL4rmAlRIQc_6iBRGbDljnuLoNCNP4sRoUSAaLm4jwkhLhqKQXoAUNgzVWwkk
p3030
sVwidth
p3031
I800
sVhtml_attributions
p3032
(lp3033
V<a href="https://plus.google.com/104386105875622819823">Adrianna Cai</a>
p3034
asVheight
p3035
I1067
sa(dp3036
Vphoto_reference
p3037
VCnRqAAAA4LKwnkkiPYng1zcPpCzJBneBCVzPAVqdSyR2QlRikvBq_bxPRtyXzhIh7CaCItxeZPlxduwiUXxcbolga0USp_uvCFFls3anA-ArGRK2_h15pk1YLQiZ8unePOST8u20aY00noh3eIAnBNYjSaT5ThIQNydP8bOS4duX1H9eZ6qi1RoUcFCpmgTZ9e9LmRGIlJAnxG7p9t4
p3038
sVwidth
p3039
I1600
sVhtml_attributions
p3040
(lp3041
V<a href="https://plus.google.com/110644604173805326173">Leslie Castelan</a>
p3042
asVheight
p3043
I1200
sa(dp3044
Vphoto_reference
p3045
VCnRoAAAAPceLbYYMg6I1nAt1U2SnZELP_cMclIb-6vIsQylfgCm9nwzXTt3MG859H5_kdzXbH60dr8KyGPHr3kYygjGKGiZcsUTkEIhYtNAs08pcoppm9pVZon9OMLHL0rayKmYecZd1u7CUn1gMmaksE7qzTBIQYD7yQJ1sTs8t8-6DIhVwPxoUIUaDgaKCnQfCZqM00mADdZW6XnM
p3046
sVwidth
p3047
I648
sVhtml_attributions
p3048
(lp3049
V<a href="https://plus.google.com/111544651031607014823">Kelvin Ho</a>
p3050
asVheight
p3051
I486
sa(dp3052
Vphoto_reference
p3053
VCnRoAAAAX_FyDrlxpLw_SNGrL6ZvGzcPo8uc-xLuPzqTMs4ZUwM8uslXkafaAcLozL7c4gfJcmMJ3eqemo-orHRnvdKBCz7XuhLKszPI2qnsKzegyuHvcbgirXWIFHzr33cidRA1A0u82eS97i-2Vog3r5gaGhIQ45wjNxwLjRb5W59K7A7oJxoUqpjK68tIqocKmPhj50jEbXXP4bk
p3054
sVwidth
p3055
I816
sVhtml_attributions
p3056
(lp3057
V<a href="https://plus.google.com/113034897145842763564">MARANDA FAMILY</a>
p3058
asVheight
p3059
I612
sa(dp3060
Vphoto_reference
p3061
VCnRoAAAAa8V53oetqotmEddCDb1QRak9EXVj87ZSaiq7CBRpOzr4_V9n-JB48zRGOA1F71jWiL8pLKP_xl6HcKo61duq7NUwlk74rFs-N9JMKNdu1K0kGOgDuYJFkLppRrYtlvhQ7CHTbKgZgm_dgQT59vCj4RIQJbVsXGhVPpPOjPC_aWaEIxoUljn7Ee1lsnMO7attAOW8kY5EaCg
p3062
sVwidth
p3063
I4000
sVhtml_attributions
p3064
(lp3065
V<a href="https://plus.google.com/112149668004267823244">River Yuan</a>
p3066
asVheight
p3067
I5333
sasVtypes
p3068
(lp3069
Vmuseum
p3070
aVestablishment
p3071
asVicon
p3072
Vhttp://maps.gstatic.com/mapfiles/place_api/icons/museum-71.png
p3073
sVname
p3074
VThe Exploratorium
p3075
sVgeometry
p3076
(dp3077
Vlocation
p3078
(dp3079
Vlat
p3080
F37.800856
sVlng
p3081
F-122.398635
sssVadr_address
p3082
VPier 15, <span class="locality">San Francisco</span>, <span class="region">CA</span> <span class="postal-code">94111</span>, <span class="country-name">United States</span>
p3083
sVinternational_phone_number
p3084
V+1 415-528-4444
p3085
sVreviews
p3086
(lp3087
(dp3088
Vrating
p3089
I5
sVaspects
p3090
(lp3091
(dp3092
Vrating
p3093
I3
sVtype
p3094
Voverall
p3095
sasVlanguage
p3096
Ven
p3097
sVtext
p3098
VWhat a fun way to spend a Thursday evening: Adults only night to run around the exploratorium and explore. Loved all of different interactive exhibits.  Tickets for the Tactile Dome is an extra $10 but totally worth it - its definitely an experience and not for ones that are afraid of the dark and/or claustrophobic. You can get through the course in 10-15 minutes.  Would also recommend going through the course with a group of 4-5 friends.  There is mesh netting to crawl through and slides to go down.. at the very end there's a bean pit for you to land in. Go in with an open mind and just have fun! Adult only nights also mean that alcohol is served, which is always a plus ;)
p3099
sVauthor_name
p3100
VCins Laya
p3101
sVauthor_url
p3102
Vhttps://plus.google.com/101768269232847574282
p3103
sVtime
p3104
I1416595087
sa(dp3105
Vrating
p3106
I4
sVaspects
p3107
(lp3108
(dp3109
Vrating
p3110
I2
sVtype
p3111
Voverall
p3112
sasVlanguage
p3113
Ven
p3114
sVtext
p3115
VThe Exploratorium was the highlight of a recent San Francisco. Another reviewer mentioned the Tactile Dome costing $10, but I was there last week, and the price listed was $15 per adult. Maybe there's been a recent increase? \u000a\u000aI very much appreciated the presence of lockers (only 50 cents to rent one all day), not having to schlep my stuff between exhibits made things a whole lot easier. You can come in and out throughout the day (just be sure to have your hand stamped), and it seems like a lot of the class field trips tend to pack up and go in the early afternoon hours. 
p3116
sVauthor_name
p3117
VNan Carde
p3118
sVauthor_url
p3119
Vhttps://plus.google.com/114777535440994791985
p3120
sVtime
p3121
I1416786777
sa(dp3122
Vrating
p3123
I5
sVaspects
p3124
(lp3125
(dp3126
Vrating
p3127
I3
sVtype
p3128
Voverall
p3129
sasVlanguage
p3130
Ven
p3131
sVtext
p3132
VThe Exploratorium in its new location is great, for people of all ages. I've been to the new location for the "after dark" 21+ events (which I strongly recommend, despite the crowds), and certainly was not disappointed. I saw all my favorites experiments as well as new ones, and the new location is really huge and very well laid out. If you like science (and even if you don't) it's worth a trip since the place is so fun to see. It's all hands-on which is something I really like, but contrary to little kids, I also like to read the labels/signs to know what physical phenomenon I'm looking at instead of blindly pushing a button...
p3133
sVauthor_name
p3134
VJulian Fessard
p3135
sVauthor_url
p3136
Vhttps://plus.google.com/112118270664425522168
p3137
sVtime
p3138
I1413014702
sa(dp3139
Vrating
p3140
I5
sVaspects
p3141
(lp3142
(dp3143
Vrating
p3144
I3
sVtype
p3145
Voverall
p3146
sasVlanguage
p3147
Ven
p3148
sVtext
p3149
VThis is such a creative activity center! My husband and I enjoyed all the educational and interactive, scientific stations. We also experienced the tactile dome which was an extremely unique experience. This is a great place for families with adults and kids of all ages!
p3150
sVauthor_name
p3151
VKristen Colander
p3152
sVauthor_url
p3153
Vhttps://plus.google.com/114658324644137737507
p3154
sVtime
p3155
I1416974707
sa(dp3156
Vrating
p3157
I5
sVaspects
p3158
(lp3159
(dp3160
Vrating
p3161
I3
sVtype
p3162
Voverall
p3163
sasVlanguage
p3164
Ven
p3165
sVtext
p3166
VI want to say it's the most amazing museum I have ever been to but, it's more than that.  I wouldn't even call it a science museum at all.  It's more of an experience based on physics and such.  This is a hands on experience that can consume your entire day easily.  I have been multiple times and on each visit there are new exhibits that have swapped out others.  The new location on the pier is beautiful and the staff are wonderful.  Just go and become a kid again.  It's a full blown tinkering overload.  If you love to push buttons to see what they will do, roll, bounce and swing stuff then this is where you belong.  Some things to know before you go.  If you want to experience the Tactile Dome, be sure to get tickets when you purchase your main tickets.  Also, they have a huge "spyrograph" swinging table and you can have one made but, you have to get your name on the list.  Do that early if you want one to take home.  
p3167
sVauthor_name
p3168
VCarl Cordell
p3169
sVauthor_url
p3170
Vhttps://plus.google.com/105619768905307646583
p3171
sVtime
p3172
I1411581848
sasVformatted_phone_number
p3173
V(415) 528-4444
p3174
sVaddress_components
p3175
(lp3176
(dp3177
Vlong_name
p3178
VSan Francisco
p3179
sVtypes
p3180
(lp3181
Vlocality
p3182
aVpolitical
p3183
asVshort_name
p3184
VSF
p3185
sa(dp3186
Vlong_name
p3187
VCalifornia
p3188
sVtypes
p3189
(lp3190
Vadministrative_area_level_1
p3191
aVpolitical
p3192
asVshort_name
p3193
VCA
p3194
sa(dp3195
Vlong_name
p3196
VUnited States
p3197
sVtypes
p3198
(lp3199
Vcountry
p3200
aVpolitical
p3201
asVshort_name
p3202
VUS
p3203
sa(dp3204
Vlong_name
p3205
V94111
p3206
sVtypes
p3207
(lp3208
Vpostal_code
p3209
asVshort_name
p3210
V94111
p3211
sassba(ispot
Spot
p3212
(dp3213
g3
Nsg4
(dp3214
Vwebsite
p3215
Vhttp://www.apeconcerts.com/
p3216
sVrating
p3217
F3.6
sVutc_offset
p3218
I-480
sVuser_ratings_total
p3219
I40
sVname
p3220
VBill Graham Civic Auditorium
p3221
sVreference
p3222
VCoQBdgAAALEsSh491cGKpDM-mlnKKC_QWRQTH1utmcNa7ldsqos7-k53UHrZJKAaQ-GCs_y5MJduTyKAfsX54ybjkyXIm8n9YkPSjQqRSX5UCsXQtaAA-coc0O0xxdfPnPNYTdtb8yztiErZ1BYmc8KkNeQ9SotZG_PgVOlZHC4zmw7BEi45EhDOW5C11ikRjlTb11-XDEYIGhS0LbJJVKQ-ezNyw4oOc-K0xouvXQ
p3223
sVphotos
p3224
(lp3225
(dp3226
Vphoto_reference
p3227
VCnRoAAAA342touEUzXMYa0a28qPBUSr8UZmFLOWeYAXm8n_adqZOecJ53Oq9_o6F3oNyodjQZrJpf3CLed074nFiAHpYK3GXYEbKkdoRUXzUBS7R2kOmHvKSABat3uD76vuMxTg9Y2pD7FQ1YVxnhhRYYwsoPBIQYCuBYU_F0k6bKdil_hJSxBoUDJVYCosbPWUUsrjSsH1wsNs70j8
p3228
sVwidth
p3229
I1296
sVhtml_attributions
p3230
(lp3231
V<a href="https://plus.google.com/107552387286560569649">Walkerone SFO</a>
p3232
asVheight
p3233
I972
sasVgeometry
p3234
(dp3235
Vlocation
p3236
(dp3237
Vlat
p3238
F37.778077
sVlng
p3239
F-122.417403
sssVadr_address
p3240
V<span class="street-address">99 Grove St</span>, <span class="locality">San Francisco</span>, <span class="region">CA</span> <span class="postal-code">94102</span>, <span class="country-name">United States</span>
p3241
sVplace_id
p3242
VChIJNwYP6ZuAhYARi-mJBD79f-I
p3243
sVinternational_phone_number
p3244
V+1 415-624-8900
p3245
sVvicinity
p3246
V99 Grove St, San Francisco
p3247
sVreviews
p3248
(lp3249
(dp3250
Vrating
p3251
I4
sVaspects
p3252
(lp3253
(dp3254
Vrating
p3255
I2
sVtype
p3256
Voverall
p3257
sasVlanguage
p3258
Ven
p3259
sVtext
p3260
VFor a civic auditorium the place is voluminous. The neighborhood could be suspect at night but with San Francisco City Hall being its neighbor. Things rarely gets too sketchy for a wise visitor.
p3261
sVauthor_name
p3262
VAJ Guest
p3263
sVauthor_url
p3264
Vhttps://plus.google.com/116998966393159336941
p3265
sVtime
p3266
I1416185236
sa(dp3267
Vrating
p3268
I5
sVaspects
p3269
(lp3270
(dp3271
Vrating
p3272
I3
sVtype
p3273
Voverall
p3274
sasVlanguage
p3275
Ven
p3276
sVtext
p3277
VLove this venue for concerts.  There's no assigned seating making everything first come first serve.  The main floor area gets kind of crazy, but if you want to dance like crazy, that will be your preferred location.  The balcony area has some great views, so if you want to be an old grandma like me and sit to enjoy a performer like Macklemore, definitely grab a spot up there.  \u000a\u000a
p3278
sVauthor_name
p3279
VAlyx Barranger
p3280
sVauthor_url
p3281
Vhttps://plus.google.com/106226941420364887072
p3282
sVtime
p3283
I1402430735
sa(dp3284
Vrating
p3285
I4
sVaspects
p3286
(lp3287
(dp3288
Vrating
p3289
I2
sVtype
p3290
Voverall
p3291
sasVlanguage
p3292
Ven
p3293
sVtext
p3294
VNice intimate atmosphere, decent sound quality
p3295
sVauthor_name
p3296
VChristopher Wren
p3297
sVauthor_url
p3298
Vhttps://plus.google.com/113525443008306473512
p3299
sVtime
p3300
I1412467647
sa(dp3301
Vrating
p3302
I1
sVaspects
p3303
(lp3304
(dp3305
Vrating
p3306
I0
sVtype
p3307
Voverall
p3308
sasVlanguage
p3309
Ven
p3310
sVtext
p3311
VWill never ever see any show there again. Terrible acoustics! A slap in the face to the memory of Bill Graham, who's probably rolling in his grave knowing they named it after him. Best show ever seen there was the then San Francisco Warriors where acoustics hardly matter.
p3312
sVauthor_name
p3313
VRaymond Alvarez
p3314
sVauthor_url
p3315
Vhttps://plus.google.com/113755175842025386880
p3316
sVtime
p3317
I1404245811
sa(dp3318
Vrating
p3319
I4
sVaspects
p3320
(lp3321
(dp3322
Vrating
p3323
I2
sVtype
p3324
Vappeal
p3325
sa(dp3326
Vrating
p3327
I2
sVtype
p3328
Vfacilities
p3329
sa(dp3330
Vrating
p3331
I2
sVtype
p3332
Vservice
p3333
sasVlanguage
p3334
Ven
p3335
sVtext
p3336
VMy girlfriend and I came here for the Matt & Kim/Passion Pit/Icona Pop concert a few weeks back, and it was an experience I will never forget. The facility itself was HUGE, and we got lost several times looking for the bathroom. But we made it out okay (thank god), and we enjoyed the concert. I would definitely hit up another concert here. 
p3337
sVauthor_name
p3338
VAaron Ho
p3339
sVauthor_url
p3340
Vhttps://plus.google.com/107917359086116635238
p3341
sVtime
p3342
I1364436036
sasVformatted_phone_number
p3343
V(415) 624-8900
p3344
sVurl
p3345
Vhttps://plus.google.com/112983588439759014729/about?hl=en-US
p3346
sVscope
p3347
VGOOGLE
p3348
sVaddress_components
p3349
(lp3350
(dp3351
Vlong_name
p3352
V99
p3353
sVtypes
p3354
(lp3355
Vstreet_number
p3356
asVshort_name
p3357
V99
p3358
sa(dp3359
Vlong_name
p3360
VGrove St
p3361
sVtypes
p3362
(lp3363
Vroute
p3364
asVshort_name
p3365
VGrove St
p3366
sa(dp3367
Vlong_name
p3368
VSan Francisco
p3369
sVtypes
p3370
(lp3371
Vlocality
p3372
aVpolitical
p3373
asVshort_name
p3374
VSF
p3375
sa(dp3376
Vlong_name
p3377
VCalifornia
p3378
sVtypes
p3379
(lp3380
Vadministrative_area_level_1
p3381
aVpolitical
p3382
asVshort_name
p3383
VCA
p3384
sa(dp3385
Vlong_name
p3386
VUnited States
p3387
sVtypes
p3388
(lp3389
Vcountry
p3390
aVpolitical
p3391
asVshort_name
p3392
VUS
p3393
sa(dp3394
Vlong_name
p3395
V94102
p3396
sVtypes
p3397
(lp3398
Vpostal_code
p3399
asVshort_name
p3400
V94102
p3401
sasVformatted_address
p3402
V99 Grove St, San Francisco, CA 94102, United States
p3403
sVid
p3404
V15a0f86c363cb1211712bfc6780ed314878db7f7
p3405
sVtypes
p3406
(lp3407
Vestablishment
p3408
asVicon
p3409
Vhttp://maps.gstatic.com/mapfiles/place_api/icons/generic_business-71.png
p3410
ssba(ispot
Spot
p3411
(dp3412
g3
Nsg4
(dp3413
Vrating
p3414
I4
sVreference
p3415
VCoQBgAAAAMfN8QdOyCZK5xHjCjd5OLk0HHCmhAoPhj8ZIs9jHy5N3zPsXZdxsUu_YnlAcmJlYTsrDKbIbsO3NMLZIFf8R5-ghi7tLdVKqHygw0Uf9xr-5OShx2mVG1Ib16tDSlgCMZ2CN7zvLflmrk_hrWFWY_eERdnoWUTsmn9rLKVQvlCLEhDoxKN5PB611vuFvcog8jZDGhTNZC2RSK1IyM4Ooo4P_Mgjhq0dgw
p3416
sVplace_id
p3417
VChIJIbjkBuOAhYAR3OzY8Djb7Kc
p3418
sVurl
p3419
Vhttps://plus.google.com/109444163259271298287/about?hl=en-US
p3420
sVformatted_address
p3421
V47 Pier #2, San Francisco, CA 94133, United States
p3422
sVid
p3423
Vbd3b669b926cc6867951344f50962df8779d371f
p3424
sVopening_hours
p3425
(dp3426
Vweekday_text
p3427
(lp3428
VMonday: 10:00 am \u2013 6:00 pm
p3429
aVTuesday: 10:00 am \u2013 6:00 pm
p3430
aVWednesday: 10:00 am \u2013 6:00 pm
p3431
aVThursday: 10:00 am \u2013 6:00 pm
p3432
aVFriday: 10:00 am \u2013 6:00 pm
p3433
aVSaturday: Closed
p3434
aVSunday: Closed
p3435
asVopen_now
p3436
I00
sVperiods
p3437
(lp3438
(dp3439
Vclose
p3440
(dp3441
Vday
p3442
I1
sVtime
p3443
V1800
p3444
ssVopen
p3445
(dp3446
Vday
p3447
I1
sVtime
p3448
V1000
p3449
ssa(dp3450
Vclose
p3451
(dp3452
Vday
p3453
I2
sVtime
p3454
V1800
p3455
ssVopen
p3456
(dp3457
Vday
p3458
I2
sVtime
p3459
V1000
p3460
ssa(dp3461
Vclose
p3462
(dp3463
Vday
p3464
I3
sVtime
p3465
V1800
p3466
ssVopen
p3467
(dp3468
Vday
p3469
I3
sVtime
p3470
V1000
p3471
ssa(dp3472
Vclose
p3473
(dp3474
Vday
p3475
I4
sVtime
p3476
V1800
p3477
ssVopen
p3478
(dp3479
Vday
p3480
I4
sVtime
p3481
V1000
p3482
ssa(dp3483
Vclose
p3484
(dp3485
Vday
p3486
I5
sVtime
p3487
V1800
p3488
ssVopen
p3489
(dp3490
Vday
p3491
I5
sVtime
p3492
V1000
p3493
ssassVvicinity
p3494
V47 Pier #2, San Francisco
p3495
sVscope
p3496
VGOOGLE
p3497
sVwebsite
p3498
Vhttp://www.fishermanswharf.org/
p3499
sVutc_offset
p3500
I-480
sVuser_ratings_total
p3501
I144
sVphotos
p3502
(lp3503
(dp3504
Vphoto_reference
p3505
VCnRoAAAAD7w6HSMM-UVnXjfpI835cITHVW-gZyGjTS1Xv3pPbmFA2v8JWloV8kTqg8LNENdlvcLkuapkQrOeY1HYehB5ZkbhSIICdMhlB-TonQQLNAko8hGvPkCX6siKDUx6Yx9_QGnbg_LGxWlGPX1sRFc3TxIQS2d8Opboxg0kNweDtflUBRoU5Rr4ALSwMr4X9tdVxoIushjK8OE
p3506
sVwidth
p3507
I1265
sVhtml_attributions
p3508
(lp3509
V<a href="https://plus.google.com/116961417085332279422">Justus Hachmann</a>
p3510
asVheight
p3511
I949
sa(dp3512
Vphoto_reference
p3513
VCnRqAAAAcAxKFcaD49uuua-b18jzWN9cWGvtdW-lhZFnKVDTcRng8JWMhyh9FYckz2aJD2AZjziyY18KlFKqa2yEzV3RHIDe31kY1qjWB1ednyFaaDK0QCsINAcqMzA-FJ5lIIa45jCSdYnzlzmu1Avk6HqCTRIQvlRkb30Yu_y-aKuqMtKmRxoU89I3bchCYextugFR2iiR6K_BvSg
p3514
sVwidth
p3515
I2048
sVhtml_attributions
p3516
(lp3517
V<a href="https://plus.google.com/113173931251785215708">Henning Nielsen</a>
p3518
asVheight
p3519
I1151
sa(dp3520
Vphoto_reference
p3521
VCnRoAAAA5EkEhzVZa_NkaJXGUNwSyCgQjYP_blawCuOWEcez8wQYH_6-ngSl5hba7_Ifq6aSSY9Cl3QEq-yzxDkKaI0Zrp6NbJAJzjYdS--TfaF4__eXAhlrQNCYs9k-uMxvUQtjxWOj8KxcP75iu1je1R7OIRIQhsZbrmDTSP4zU5fjC-v1rBoU_A7RpbcpDwngG_UzVs0YgPFegoM
p3522
sVwidth
p3523
I1632
sVhtml_attributions
p3524
(lp3525
V<a href="https://plus.google.com/100241671182590128413">\u9673\u5929\u5065</a>
p3526
asVheight
p3527
I1224
sa(dp3528
Vphoto_reference
p3529
VCoQBegAAAC9JOLZd3zw7GtYfI56wG7fReTPIlp9BhxRZNE7bp01LbXnX05f6SOgim8K6Grn1pjV4KJdUpIY752PuH1ycv5OTZ3_cPg0kHGDfSVEI_iWubreUDgQTEzkCg4AeaH2N4yASENzrUvqDHUiewYUZJxgWv_VXl15NCA6fG0c2oDtkEhAP6HJM2BlBodHBDBnmuToRGhQgKGf30LDbh6jWEfiTOAQvIonrUQ
p3530
sVwidth
p3531
I1440
sVhtml_attributions
p3532
(lp3533
V<a href="https://plus.google.com/113186450052791933529">Joseph D&#39;Angelo</a>
p3534
asVheight
p3535
I1440
sa(dp3536
Vphoto_reference
p3537
VCnRqAAAAlRRdT2wWNPAggOTh042_Ldqm-qlMCVv0lVfHWs1XBow0Kbk8WFp8fo3NyiWjxFaGSfl7vHJ7o3PFlGWBOnIZGaCFjAdperJStgSrUoPoh4aPP290YS-ICxNFnCOqLxLbQqwTc0qb-0JmoOhonpkwmRIQaM8SQ8ZBd22QOCLCf0zYZBoUiKnKvcOWn5angD3XYZqdMfG_qgY
p3538
sVwidth
p3539
I2048
sVhtml_attributions
p3540
(lp3541
V<a href="https://plus.google.com/113173931251785215708">Henning Nielsen</a>
p3542
asVheight
p3543
I1151
sa(dp3544
Vphoto_reference
p3545
VCnRqAAAAGFu6viM8plECOqsp5w6fG6yfcl1_mqYoSnCBKbKdWa2JNwuD2k7KwX33EXkrroKsRqWW3YrSul9YfgCzpMIppHLehtVmq6va4b5jdna31FXLF40GNXq8wEpv2FREhCdUstHiG8eZAeVjbZbdLJIVChIQKC9RsdVufYB3eXELdT5rghoUQjQPvv7mmCVQxgiibzEbyBMdZCA
p3546
sVwidth
p3547
I2048
sVhtml_attributions
p3548
(lp3549
V<a href="https://plus.google.com/113173931251785215708">Henning Nielsen</a>
p3550
asVheight
p3551
I1151
sa(dp3552
Vphoto_reference
p3553
VCnRoAAAAzY-TkX06MB9_M_ZObm4nmR2h3tp_kQ6QQ5-TTAHM6-BvKcuSKigKpuTzzvcHgGoDwpY03Z89pROptNSCOUr7u_7Z_wTuDR7_Ib7hSH8xFn4gHzdtiXiiHIyCsDdUuAgFJ6Yj-JVNzJrGP3t1TQUBARIQ4x9rgWeitkD-j0-FlD3w4RoUeW262onDiybPxxRXHlln7p4fRIo
p3554
sVwidth
p3555
I1344
sVhtml_attributions
p3556
(lp3557
V<a href="https://plus.google.com/111187500888664100438">Mauro Conti</a>
p3558
asVheight
p3559
I894
sasVtypes
p3560
(lp3561
Vestablishment
p3562
asVicon
p3563
Vhttp://maps.gstatic.com/mapfiles/place_api/icons/generic_business-71.png
p3564
sVname
p3565
VFishermans Wharf Merchants Association
p3566
sVgeometry
p3567
(dp3568
Vlocation
p3569
(dp3570
Vlat
p3571
F37.808521
sVlng
p3572
F-122.414994
sssVadr_address
p3573
V<span class="street-address">47 Pier #2</span>, <span class="locality">San Francisco</span>, <span class="region">CA</span> <span class="postal-code">94133</span>, <span class="country-name">United States</span>
p3574
sVinternational_phone_number
p3575
V+1 415-674-7503
p3576
sVreviews
p3577
(lp3578
(dp3579
Vrating
p3580
I5
sVaspects
p3581
(lp3582
(dp3583
Vrating
p3584
I3
sVtype
p3585
Voverall
p3586
sasVlanguage
p3587
Ven
p3588
sVtext
p3589
VLoved it so much, but I was so cold.
p3590
sVauthor_name
p3591
VBasem Al Hawsawi
p3592
sVauthor_url
p3593
Vhttps://plus.google.com/100889550548081964266
p3594
sVtime
p3595
I1417500119
sa(dp3596
Vrating
p3597
I5
sVaspects
p3598
(lp3599
(dp3600
Vrating
p3601
I3
sVtype
p3602
Voverall
p3603
sasVlanguage
p3604
Ven
p3605
sVtext
p3606
VThe fisherman's warf can be a lot of fun if you've never been. There are some cool sea lions, street performers and decent food. It's always fun to people watch here.
p3607
sVauthor_name
p3608
VDarius Emrani
p3609
sVauthor_url
p3610
Vhttps://plus.google.com/108956134437636094004
p3611
sVtime
p3612
I1402303571
sa(dp3613
Vrating
p3614
I3
sVaspects
p3615
(lp3616
(dp3617
Vrating
p3618
I1
sVtype
p3619
Voverall
p3620
sasVlanguage
p3621
Ven
p3622
sVtext
p3623
VGood for tourists. A nightmare for locals. Go to see the sea lions. Avoid if you don't like crowds.
p3624
sVauthor_name
p3625
VJenny Gossett
p3626
sVauthor_url
p3627
Vhttps://plus.google.com/101040699501346495649
p3628
sVtime
p3629
I1401829584
sa(dp3630
Vrating
p3631
I5
sVaspects
p3632
(lp3633
(dp3634
Vrating
p3635
I3
sVtype
p3636
Vappeal
p3637
sa(dp3638
Vrating
p3639
I3
sVtype
p3640
Vfacilities
p3641
sa(dp3642
Vrating
p3643
I3
sVtype
p3644
Vservice
p3645
sasVlanguage
p3646
Ven
p3647
sVtext
p3648
VOne of the top spots to visit when your visiting SF. Fresh, delicious tasty food here. I like to get a bread bowl of clam chowder to snack on. Walk around and enjoy the view (if it is a sunny and relatively warm day, hard to come by sometimes in SF). There are a lot of great shops to look at too.
p3649
sVauthor_name
p3650
VPatrick Zhou
p3651
sVauthor_url
p3652
Vhttps://plus.google.com/114316762263467370524
p3653
sVtime
p3654
I1371424772
sa(dp3655
Vrating
p3656
I5
sVaspects
p3657
(lp3658
(dp3659
Vrating
p3660
I3
sVtype
p3661
Voverall
p3662
sasVlanguage
p3663
Ven
p3664
sVtext
p3665
VMust to see place in San Francisco. Sea Lions like this place, also. They have so intense social structure there that only the toughest sea lion can stay on a floating wharf. You must see it! It is authentic natural harmony in an urban atmosphere. 
p3666
sVauthor_name
p3667
VJuho Kastemaa
p3668
sVauthor_url
p3669
Vhttps://plus.google.com/113075632442410102250
p3670
sVtime
p3671
I1378862344
sasVformatted_phone_number
p3672
V(415) 674-7503
p3673
sVaddress_components
p3674
(lp3675
(dp3676
Vlong_name
p3677
V2
p3678
sVtypes
p3679
(lp3680
Vsubpremise
p3681
asVshort_name
p3682
V2
p3683
sa(dp3684
Vlong_name
p3685
V47
p3686
sVtypes
p3687
(lp3688
Vstreet_number
p3689
asVshort_name
p3690
V47
p3691
sa(dp3692
Vlong_name
p3693
VPier
p3694
sVtypes
p3695
(lp3696
Vroute
p3697
asVshort_name
p3698
VPier
p3699
sa(dp3700
Vlong_name
p3701
VSan Francisco
p3702
sVtypes
p3703
(lp3704
Vlocality
p3705
aVpolitical
p3706
asVshort_name
p3707
VSF
p3708
sa(dp3709
Vlong_name
p3710
VCalifornia
p3711
sVtypes
p3712
(lp3713
Vadministrative_area_level_1
p3714
aVpolitical
p3715
asVshort_name
p3716
VCA
p3717
sa(dp3718
Vlong_name
p3719
VUnited States
p3720
sVtypes
p3721
(lp3722
Vcountry
p3723
aVpolitical
p3724
asVshort_name
p3725
VUS
p3726
sa(dp3727
Vlong_name
p3728
V94133
p3729
sVtypes
p3730
(lp3731
Vpostal_code
p3732
asVshort_name
p3733
V94133
p3734
sa(dp3735
Vlong_name
p3736
V1004
p3737
sVtypes
p3738
(lp3739
Vpostal_code_suffix
p3740
asVshort_name
p3741
V1004
p3742
sassba(ispot
Spot
p3743
(dp3744
g3
Nsg4
(dp3745
Vrating
p3746
F4.4
sVreference
p3747
VCnRlAAAAh-CuVgl1NCoqI8x9Q6bWJ3_BOE3swcvx_I-idxAfAsKmukFKiBvYVybMA48KzZzUTZf6TOMhmE-nZtG7qcLIqKEgxB6quAmj6ssDs3WPCU9JhBHvqUuIZ8HHU3os9aVVZj1EfjQoTWpkQgHRbHv7DBIQzXAPAy2AgjH7BqDgQ2XMXhoU414qhUxopQTEi1XskbbmFNifTqk
p3748
sVprice_level
p3749
I3
sVplace_id
p3750
VChIJO2EGsrmAhYARdDfDm-uVTQQ
p3751
sVurl
p3752
Vhttps://plus.google.com/103616978678211573959/about?hl=en-US
p3753
sVformatted_address
p3754
V1805 Geary Blvd, San Francisco, CA 94115, United States
p3755
sVid
p3756
Vdacdf443ede9158fb1b26cf2ebedfe56514d98ce
p3757
sVvicinity
p3758
V1805 Geary Blvd, San Francisco
p3759
sVscope
p3760
VGOOGLE
p3761
sVwebsite
p3762
Vhttp://www.thefillmore.com
p3763
sVutc_offset
p3764
I-480
sVuser_ratings_total
p3765
I96
sVphotos
p3766
(lp3767
(dp3768
Vphoto_reference
p3769
VCnRoAAAA1-oUy4qUSkmvneq6l-cBdWHUKn0khUI_n8SaseGL13j-KnHFpfp1mSaXhzzVA9CHQOEYr4rqBrDwvGVriIaN7cuslIB3TyJDVoYu4YKpFYScg01uoxV_6xEqEz8ORMaCCvFVTJ-WAqoRGYQrJnGUKRIQ6LplBXECAAYC3fVtqIvaSxoU_yNjDlWpozeASTWM7JWjCmyaJAw
p3770
sVwidth
p3771
I480
sVhtml_attributions
p3772
(lp3773
V<a href="https://plus.google.com/103325079438884164751">Nacho mena</a>
p3774
asVheight
p3775
I360
sa(dp3776
Vphoto_reference
p3777
VCnRoAAAAG0FjBb8BBp25BrIx0LQbOYHUSvtpzAJ69VpmvHUx1L636RFo7IYgLq4d2HpOifPQT30QnrIE-gK8tOknMMcYy1fvFDkV1jIVcicRDupwWAv16goTjzBjwdgj8SM6dj0ZFoP0APDi2VD7Hu4NWy6LEhIQgSmX4ZFpmywadQ0MInbR7BoUJI5dQVvBPrsTUaezf1xCsvrLWRA
p3778
sVwidth
p3779
I640
sVhtml_attributions
p3780
(lp3781
V<a href="https://plus.google.com/113828379409464300532">George Resburg</a>
p3782
asVheight
p3783
I480
sa(dp3784
Vphoto_reference
p3785
VCnRoAAAAc3E9TAwUt8WS1_mvGJgKiMFkrYGRVgMoBw-eEbI_y2YwshAhmTDKYz3nUwcx7r4mP1Q9BoAJJSs1gV9Mduveso1m1hRwYbOxtd1J2M471UHc8UqmF2mgN8RhnR-s3loQBtv3HWL00kZsDMSM4KWljhIQn5HzmjB4H3GRqunMcZqcMRoUvvslgTUD903K4u2tf7obqZO6Z3Y
p3786
sVwidth
p3787
I960
sVhtml_attributions
p3788
(lp3789
V<a href="https://plus.google.com/103325079438884164751">Nacho mena</a>
p3790
asVheight
p3791
I540
sa(dp3792
Vphoto_reference
p3793
VCnRoAAAAniUul2w0NmO2ZHtGOMP5TiGvjb9DQNJnMjID1FsfaQjBKamuoUBMzh0c2wtyKBmHN2idpgauKBd3MGQtTh2Ary4sbjumeqZ9E4h4YOMFQLFmtFEVc5Io3JP3k0D6nPBvla3-jgEhH9XMw16rrdc6sBIQcoO6wZraes_xIiL2bQ76choU0pQkn1bCkWsPNCKWbYNOnj4jOAk
p3794
sVwidth
p3795
I640
sVhtml_attributions
p3796
(lp3797
V<a href="https://plus.google.com/113828379409464300532">George Resburg</a>
p3798
asVheight
p3799
I480
sa(dp3800
Vphoto_reference
p3801
VCnRsAAAA9slRxY70B653wT9Pj5o4Lm6FnHnvyERY5ABug9xV3W6UnRxku5_hSZXGaGS3RCmeTWSA6wXEstaE2l4IugHnPE-leeF1fQOkdHSu2JTKTuWZMGmQWAYifk8Tye9RxaZmvCHttQz9LFTqjKMLc4Fh8xIQeIqSLdED2TXfxjKW-p-agxoUw31y8WR1JxNc05YxKyC4qCqGo4k
p3802
sVwidth
p3803
I1024
sVhtml_attributions
p3804
(lp3805
V<a href="https://plus.google.com/108421535574956083050">Paul Green</a>
p3806
asVheight
p3807
I768
sasVtypes
p3808
(lp3809
Vstore
p3810
aVbar
p3811
aVestablishment
p3812
asVicon
p3813
Vhttp://maps.gstatic.com/mapfiles/place_api/icons/bar-71.png
p3814
sVname
p3815
VThe Fillmore
p3816
sVgeometry
p3817
(dp3818
Vlocation
p3819
(dp3820
Vlat
p3821
F37.783999
sVlng
p3822
F-122.433017
sssVadr_address
p3823
V<span class="street-address">1805 Geary Blvd</span>, <span class="locality">San Francisco</span>, <span class="region">CA</span> <span class="postal-code">94115</span>, <span class="country-name">United States</span>
p3824
sVinternational_phone_number
p3825
V+1 415-346-6000
p3826
sVreviews
p3827
(lp3828
(dp3829
Vrating
p3830
I4
sVaspects
p3831
(lp3832
(dp3833
Vrating
p3834
I2
sVtype
p3835
Voverall
p3836
sasVlanguage
p3837
Ven
p3838
sVtext
p3839
VSuper fun venue - decent beer selection, cool decor, great bands. What more could you ask for?!\u000a\u000aI've seen a handful of shows here and have always been pleased with not having a huge wait to get in or the usual cluster that can come with some concerts. My most memorable experience was Capital Cities which was such a great show and they even did an additional DJ set immediately after the finished. It was such a great time and the venue provided lots of space to be able to dance and enjoy yourself!
p3840
sVauthor_name
p3841
VCristina Salhuana
p3842
sVauthor_url
p3843
Vhttps://plus.google.com/115898238865863907648
p3844
sVtime
p3845
I1412702829
sa(dp3846
Vrating
p3847
I5
sVaspects
p3848
(lp3849
(dp3850
Vrating
p3851
I3
sVtype
p3852
Voverall
p3853
sasVlanguage
p3854
Ven
p3855
sVtext
p3856
VExtremely cool venue that attracts some great acts despite its small size. Fox Theatre and associated arenas are too big for my taste so whenever a decent band comes here I jump on the opportunity. There's no bad seat.
p3857
sVauthor_name
p3858
VJonathan Schoonhoven
p3859
sVauthor_url
p3860
Vhttps://plus.google.com/102046546186394019356
p3861
sVtime
p3862
I1413263799
sa(dp3863
Vrating
p3864
I5
sVaspects
p3865
(lp3866
(dp3867
Vrating
p3868
I3
sVtype
p3869
Voverall
p3870
sasVlanguage
p3871
Ven
p3872
sVtext
p3873
VGreat acoustic and can see the show fine from just about anywhere. Haven't been there in ages. Last shows Bo Didley and Diamanda Galas. Fortunate to catch it in the very old days. Saw Cream back to back weekends and they were second bill both times for Paul Butterfield Blues Band and The Electric Flag(Michael Bloomfield's band just after breaking up with Paul. What an Exceptional Place!
p3874
sVauthor_name
p3875
VRaymond Alvarez
p3876
sVauthor_url
p3877
Vhttps://plus.google.com/113755175842025386880
p3878
sVtime
p3879
I1404761978
sa(dp3880
Vrating
p3881
I5
sVaspects
p3882
(lp3883
(dp3884
Vrating
p3885
I3
sVtype
p3886
Voverall
p3887
sasVlanguage
p3888
Ven
p3889
sVtext
p3890
VThe Fillmore is totally legendary. When you go to a concert there you immediately understand why they have been such an iconic venue and hosted the high caliber of acts that they have. The show floor is intimate and there literally isn't a bad spot in the house. I imagine that The Fillmore would make even a mediocre band excellent live. I might even consider going to see Keller Williams again if he were playing there. 
p3891
sVauthor_name
p3892
VDave Beaudoin
p3893
sVauthor_url
p3894
Vhttps://plus.google.com/112896630675956599355
p3895
sVtime
p3896
I1400650751
sa(dp3897
Vrating
p3898
I5
sVaspects
p3899
(lp3900
(dp3901
Vrating
p3902
I3
sVtype
p3903
Voverall
p3904
sasVlanguage
p3905
Ven
p3906
sVtext
p3907
VCool and classic SF concert venue. General admission only, so if it's a band you really care about being up close with (and you can get CLOSE if you want), be sure to get there early. If you don't care about the band, get there whenever and go upstairs to have a drink and watch from the balcony.
p3908
sVauthor_name
p3909
VBrad DeBat
p3910
sVauthor_url
p3911
Vhttps://plus.google.com/112354800941326928432
p3912
sVtime
p3913
I1405217804
sasVformatted_phone_number
p3914
V(415) 346-6000
p3915
sVaddress_components
p3916
(lp3917
(dp3918
Vlong_name
p3919
V1805
p3920
sVtypes
p3921
(lp3922
Vstreet_number
p3923
asVshort_name
p3924
V1805
p3925
sa(dp3926
Vlong_name
p3927
VGeary Blvd
p3928
sVtypes
p3929
(lp3930
Vroute
p3931
asVshort_name
p3932
VGeary Blvd
p3933
sa(dp3934
Vlong_name
p3935
VWestern Addition
p3936
sVtypes
p3937
(lp3938
Vneighborhood
p3939
aVpolitical
p3940
asVshort_name
p3941
VWestern Addition
p3942
sa(dp3943
Vlong_name
p3944
VSan Francisco
p3945
sVtypes
p3946
(lp3947
Vlocality
p3948
aVpolitical
p3949
asVshort_name
p3950
VSF
p3951
sa(dp3952
Vlong_name
p3953
VSan Francisco County
p3954
sVtypes
p3955
(lp3956
Vadministrative_area_level_2
p3957
aVpolitical
p3958
asVshort_name
p3959
VSan Francisco County
p3960
sa(dp3961
Vlong_name
p3962
VCalifornia
p3963
sVtypes
p3964
(lp3965
Vadministrative_area_level_1
p3966
aVpolitical
p3967
asVshort_name
p3968
VCA
p3969
sa(dp3970
Vlong_name
p3971
VUnited States
p3972
sVtypes
p3973
(lp3974
Vcountry
p3975
aVpolitical
p3976
asVshort_name
p3977
VUS
p3978
sa(dp3979
Vlong_name
p3980
V94115
p3981
sVtypes
p3982
(lp3983
Vpostal_code
p3984
asVshort_name
p3985
V94115
p3986
sassba.